
Node1.elf:     file format elf32-avr

Sections:
Idx Name          Size      VMA       LMA       File off  Algn
  0 .data         0000025a  00800100  00002900  00002994  2**0
                  CONTENTS, ALLOC, LOAD, DATA
  1 .text         00002900  00000000  00000000  00000094  2**1
                  CONTENTS, ALLOC, LOAD, READONLY, CODE
  2 .bss          00000052  0080035a  0080035a  00002bee  2**0
                  ALLOC
  3 .comment      0000005c  00000000  00000000  00002bee  2**0
                  CONTENTS, READONLY
  4 .debug_aranges 000003d8  00000000  00000000  00002c4a  2**0
                  CONTENTS, READONLY, DEBUGGING
  5 .debug_info   000049a8  00000000  00000000  00003022  2**0
                  CONTENTS, READONLY, DEBUGGING
  6 .debug_abbrev 00001798  00000000  00000000  000079ca  2**0
                  CONTENTS, READONLY, DEBUGGING
  7 .debug_line   0000178f  00000000  00000000  00009162  2**0
                  CONTENTS, READONLY, DEBUGGING
  8 .debug_frame  00000ac8  00000000  00000000  0000a8f4  2**2
                  CONTENTS, READONLY, DEBUGGING
  9 .debug_str    00000bba  00000000  00000000  0000b3bc  2**0
                  CONTENTS, READONLY, DEBUGGING
 10 .debug_loc    0000228c  00000000  00000000  0000bf76  2**0
                  CONTENTS, READONLY, DEBUGGING
 11 .debug_ranges 000003a8  00000000  00000000  0000e202  2**0
                  CONTENTS, READONLY, DEBUGGING

Disassembly of section .text:

00000000 <__vectors>:
       0:	0c 94 b4 01 	jmp	0x368	; 0x368 <__ctors_end>
       4:	0c 94 96 03 	jmp	0x72c	; 0x72c <__vector_1>
       8:	0c 94 d1 01 	jmp	0x3a2	; 0x3a2 <__bad_interrupt>
       c:	0c 94 01 02 	jmp	0x402	; 0x402 <__vector_3>
      10:	0c 94 d1 01 	jmp	0x3a2	; 0x3a2 <__bad_interrupt>
      14:	0c 94 d1 01 	jmp	0x3a2	; 0x3a2 <__bad_interrupt>
      18:	0c 94 d1 01 	jmp	0x3a2	; 0x3a2 <__bad_interrupt>
      1c:	0c 94 d1 01 	jmp	0x3a2	; 0x3a2 <__bad_interrupt>
      20:	0c 94 d1 01 	jmp	0x3a2	; 0x3a2 <__bad_interrupt>
      24:	0c 94 fd 04 	jmp	0x9fa	; 0x9fa <__vector_9>
      28:	0c 94 d1 01 	jmp	0x3a2	; 0x3a2 <__bad_interrupt>
      2c:	0c 94 d1 01 	jmp	0x3a2	; 0x3a2 <__bad_interrupt>
      30:	0c 94 d1 01 	jmp	0x3a2	; 0x3a2 <__bad_interrupt>
      34:	0c 94 d1 01 	jmp	0x3a2	; 0x3a2 <__bad_interrupt>
      38:	0c 94 d1 01 	jmp	0x3a2	; 0x3a2 <__bad_interrupt>
      3c:	0c 94 e0 04 	jmp	0x9c0	; 0x9c0 <__vector_15>
      40:	0c 94 d1 01 	jmp	0x3a2	; 0x3a2 <__bad_interrupt>
      44:	0c 94 d1 01 	jmp	0x3a2	; 0x3a2 <__bad_interrupt>
      48:	0c 94 d1 01 	jmp	0x3a2	; 0x3a2 <__bad_interrupt>
      4c:	0c 94 d1 01 	jmp	0x3a2	; 0x3a2 <__bad_interrupt>
      50:	0c 94 d1 01 	jmp	0x3a2	; 0x3a2 <__bad_interrupt>
      54:	0c 94 d1 01 	jmp	0x3a2	; 0x3a2 <__bad_interrupt>
      58:	0c 94 d1 01 	jmp	0x3a2	; 0x3a2 <__bad_interrupt>
      5c:	0c 94 d1 01 	jmp	0x3a2	; 0x3a2 <__bad_interrupt>
      60:	0c 94 d1 01 	jmp	0x3a2	; 0x3a2 <__bad_interrupt>
      64:	0c 94 d1 01 	jmp	0x3a2	; 0x3a2 <__bad_interrupt>
      68:	0c 94 d1 01 	jmp	0x3a2	; 0x3a2 <__bad_interrupt>
      6c:	0c 94 d1 01 	jmp	0x3a2	; 0x3a2 <__bad_interrupt>

00000070 <__trampolines_end>:
	...
      78:	00 06       	cpc	r0, r16
      7a:	5f 5f       	subi	r21, 0xFF	; 255
      7c:	06 00       	.word	0x0006	; ????
      7e:	00 00       	nop
      80:	00 07       	cpc	r16, r16
      82:	07 00       	.word	0x0007	; ????
      84:	07 07       	cpc	r16, r23
      86:	00 00       	nop
      88:	14 7f       	andi	r17, 0xF4	; 244
      8a:	7f 14       	cp	r7, r15
      8c:	7f 7f       	andi	r23, 0xFF	; 255
      8e:	14 00       	.word	0x0014	; ????
      90:	24 2e       	mov	r2, r20
      92:	6b 6b       	ori	r22, 0xBB	; 187
      94:	3a 12       	cpse	r3, r26
      96:	00 00       	nop
      98:	46 66       	ori	r20, 0x66	; 102
      9a:	30 18       	sub	r3, r0
      9c:	0c 66       	ori	r16, 0x6C	; 108
      9e:	62 00       	.word	0x0062	; ????
      a0:	30 7a       	andi	r19, 0xA0	; 160
      a2:	4f 5d       	subi	r20, 0xDF	; 223
      a4:	37 7a       	andi	r19, 0xA7	; 167
      a6:	48 00       	.word	0x0048	; ????
      a8:	04 07       	cpc	r16, r20
      aa:	03 00       	.word	0x0003	; ????
      ac:	00 00       	nop
      ae:	00 00       	nop
      b0:	00 1c       	adc	r0, r0
      b2:	3e 63       	ori	r19, 0x3E	; 62
      b4:	41 00       	.word	0x0041	; ????
      b6:	00 00       	nop
      b8:	00 41       	sbci	r16, 0x10	; 16
      ba:	63 3e       	cpi	r22, 0xE3	; 227
      bc:	1c 00       	.word	0x001c	; ????
      be:	00 00       	nop
      c0:	08 2a       	or	r0, r24
      c2:	3e 1c       	adc	r3, r14
      c4:	1c 3e       	cpi	r17, 0xEC	; 236
      c6:	2a 08       	sbc	r2, r10
      c8:	08 08       	sbc	r0, r8
      ca:	3e 3e       	cpi	r19, 0xEE	; 238
      cc:	08 08       	sbc	r0, r8
      ce:	00 00       	nop
      d0:	00 a0       	ldd	r0, Z+32	; 0x20
      d2:	e0 60       	ori	r30, 0x00	; 0
      d4:	00 00       	nop
      d6:	00 00       	nop
      d8:	08 08       	sbc	r0, r8
      da:	08 08       	sbc	r0, r8
      dc:	08 08       	sbc	r0, r8
      de:	00 00       	nop
      e0:	00 00       	nop
      e2:	60 60       	ori	r22, 0x00	; 0
      e4:	00 00       	nop
      e6:	00 00       	nop
      e8:	60 30       	cpi	r22, 0x00	; 0
      ea:	18 0c       	add	r1, r8
      ec:	06 03       	mulsu	r16, r22
      ee:	01 00       	.word	0x0001	; ????
      f0:	3e 7f       	andi	r19, 0xFE	; 254
      f2:	59 4d       	sbci	r21, 0xD9	; 217
      f4:	7f 3e       	cpi	r23, 0xEF	; 239
      f6:	00 00       	nop
      f8:	42 42       	sbci	r20, 0x22	; 34
      fa:	7f 7f       	andi	r23, 0xFF	; 255
      fc:	40 40       	sbci	r20, 0x00	; 0
      fe:	00 00       	nop
     100:	62 73       	andi	r22, 0x32	; 50
     102:	59 49       	sbci	r21, 0x99	; 153
     104:	6f 66       	ori	r22, 0x6F	; 111
     106:	00 00       	nop
     108:	22 63       	ori	r18, 0x32	; 50
     10a:	49 49       	sbci	r20, 0x99	; 153
     10c:	7f 36       	cpi	r23, 0x6F	; 111
     10e:	00 00       	nop
     110:	18 1c       	adc	r1, r8
     112:	16 13       	cpse	r17, r22
     114:	7f 7f       	andi	r23, 0xFF	; 255
     116:	10 00       	.word	0x0010	; ????
     118:	27 67       	ori	r18, 0x77	; 119
     11a:	45 45       	sbci	r20, 0x55	; 85
     11c:	7d 39       	cpi	r23, 0x9D	; 157
     11e:	00 00       	nop
     120:	3c 7e       	andi	r19, 0xEC	; 236
     122:	4b 49       	sbci	r20, 0x9B	; 155
     124:	79 30       	cpi	r23, 0x09	; 9
     126:	00 00       	nop
     128:	03 63       	ori	r16, 0x33	; 51
     12a:	71 19       	sub	r23, r1
     12c:	0f 07       	cpc	r16, r31
     12e:	00 00       	nop
     130:	36 7f       	andi	r19, 0xF6	; 246
     132:	49 49       	sbci	r20, 0x99	; 153
     134:	7f 36       	cpi	r23, 0x6F	; 111
     136:	00 00       	nop
     138:	06 4f       	sbci	r16, 0xF6	; 246
     13a:	49 69       	ori	r20, 0x99	; 153
     13c:	3f 1e       	adc	r3, r31
     13e:	00 00       	nop
     140:	00 00       	nop
     142:	6c 6c       	ori	r22, 0xCC	; 204
     144:	00 00       	nop
     146:	00 00       	nop
     148:	00 a0       	ldd	r0, Z+32	; 0x20
     14a:	ec 6c       	ori	r30, 0xCC	; 204
     14c:	00 00       	nop
     14e:	00 00       	nop
     150:	08 1c       	adc	r0, r8
     152:	36 63       	ori	r19, 0x36	; 54
     154:	41 00       	.word	0x0041	; ????
     156:	00 00       	nop
     158:	14 14       	cp	r1, r4
     15a:	14 14       	cp	r1, r4
     15c:	14 14       	cp	r1, r4
     15e:	00 00       	nop
     160:	00 41       	sbci	r16, 0x10	; 16
     162:	63 36       	cpi	r22, 0x63	; 99
     164:	1c 08       	sbc	r1, r12
     166:	00 00       	nop
     168:	02 03       	mulsu	r16, r18
     16a:	51 59       	subi	r21, 0x91	; 145
     16c:	0f 06       	cpc	r0, r31
     16e:	00 00       	nop
     170:	3e 7f       	andi	r19, 0xFE	; 254
     172:	41 5d       	subi	r20, 0xD1	; 209
     174:	5d 1f       	adc	r21, r29
     176:	1e 00       	.word	0x001e	; ????
     178:	7c 7e       	andi	r23, 0xEC	; 236
     17a:	13 13       	cpse	r17, r19
     17c:	7e 7c       	andi	r23, 0xCE	; 206
     17e:	00 00       	nop
     180:	41 7f       	andi	r20, 0xF1	; 241
     182:	7f 49       	sbci	r23, 0x9F	; 159
     184:	49 7f       	andi	r20, 0xF9	; 249
     186:	36 00       	.word	0x0036	; ????
     188:	1c 3e       	cpi	r17, 0xEC	; 236
     18a:	63 41       	sbci	r22, 0x13	; 19
     18c:	41 63       	ori	r20, 0x31	; 49
     18e:	22 00       	.word	0x0022	; ????
     190:	41 7f       	andi	r20, 0xF1	; 241
     192:	7f 41       	sbci	r23, 0x1F	; 31
     194:	63 7f       	andi	r22, 0xF3	; 243
     196:	1c 00       	.word	0x001c	; ????
     198:	41 7f       	andi	r20, 0xF1	; 241
     19a:	7f 49       	sbci	r23, 0x9F	; 159
     19c:	5d 41       	sbci	r21, 0x1D	; 29
     19e:	63 00       	.word	0x0063	; ????
     1a0:	41 7f       	andi	r20, 0xF1	; 241
     1a2:	7f 49       	sbci	r23, 0x9F	; 159
     1a4:	1d 01       	movw	r2, r26
     1a6:	03 00       	.word	0x0003	; ????
     1a8:	1c 3e       	cpi	r17, 0xEC	; 236
     1aa:	63 41       	sbci	r22, 0x13	; 19
     1ac:	51 73       	andi	r21, 0x31	; 49
     1ae:	72 00       	.word	0x0072	; ????
     1b0:	7f 7f       	andi	r23, 0xFF	; 255
     1b2:	08 08       	sbc	r0, r8
     1b4:	7f 7f       	andi	r23, 0xFF	; 255
     1b6:	00 00       	nop
     1b8:	00 41       	sbci	r16, 0x10	; 16
     1ba:	7f 7f       	andi	r23, 0xFF	; 255
     1bc:	41 00       	.word	0x0041	; ????
     1be:	00 00       	nop
     1c0:	30 70       	andi	r19, 0x00	; 0
     1c2:	40 41       	sbci	r20, 0x10	; 16
     1c4:	7f 3f       	cpi	r23, 0xFF	; 255
     1c6:	01 00       	.word	0x0001	; ????
     1c8:	41 7f       	andi	r20, 0xF1	; 241
     1ca:	7f 08       	sbc	r7, r15
     1cc:	1c 77       	andi	r17, 0x7C	; 124
     1ce:	63 00       	.word	0x0063	; ????
     1d0:	41 7f       	andi	r20, 0xF1	; 241
     1d2:	7f 41       	sbci	r23, 0x1F	; 31
     1d4:	40 60       	ori	r20, 0x00	; 0
     1d6:	70 00       	.word	0x0070	; ????
     1d8:	7f 7f       	andi	r23, 0xFF	; 255
     1da:	06 0c       	add	r0, r6
     1dc:	06 7f       	andi	r16, 0xF6	; 246
     1de:	7f 00       	.word	0x007f	; ????
     1e0:	7f 7f       	andi	r23, 0xFF	; 255
     1e2:	06 0c       	add	r0, r6
     1e4:	18 7f       	andi	r17, 0xF8	; 248
     1e6:	7f 00       	.word	0x007f	; ????
     1e8:	1c 3e       	cpi	r17, 0xEC	; 236
     1ea:	63 41       	sbci	r22, 0x13	; 19
     1ec:	63 3e       	cpi	r22, 0xE3	; 227
     1ee:	1c 00       	.word	0x001c	; ????
     1f0:	41 7f       	andi	r20, 0xF1	; 241
     1f2:	7f 49       	sbci	r23, 0x9F	; 159
     1f4:	09 0f       	add	r16, r25
     1f6:	06 00       	.word	0x0006	; ????
     1f8:	1e 3f       	cpi	r17, 0xFE	; 254
     1fa:	21 71       	andi	r18, 0x11	; 17
     1fc:	7f 5e       	subi	r23, 0xEF	; 239
     1fe:	00 00       	nop
     200:	41 7f       	andi	r20, 0xF1	; 241
     202:	7f 19       	sub	r23, r15
     204:	39 6f       	ori	r19, 0xF9	; 249
     206:	46 00       	.word	0x0046	; ????
     208:	26 67       	ori	r18, 0x76	; 118
     20a:	4d 59       	subi	r20, 0x9D	; 157
     20c:	7b 32       	cpi	r23, 0x2B	; 43
     20e:	00 00       	nop
     210:	03 41       	sbci	r16, 0x13	; 19
     212:	7f 7f       	andi	r23, 0xFF	; 255
     214:	41 03       	mulsu	r20, r17
     216:	00 00       	nop
     218:	7f 7f       	andi	r23, 0xFF	; 255
     21a:	40 40       	sbci	r20, 0x00	; 0
     21c:	7f 7f       	andi	r23, 0xFF	; 255
     21e:	00 00       	nop
     220:	1f 3f       	cpi	r17, 0xFF	; 255
     222:	60 60       	ori	r22, 0x00	; 0
     224:	3f 1f       	adc	r19, r31
     226:	00 00       	nop
     228:	7f 7f       	andi	r23, 0xFF	; 255
     22a:	30 18       	sub	r3, r0
     22c:	30 7f       	andi	r19, 0xF0	; 240
     22e:	7f 00       	.word	0x007f	; ????
     230:	63 77       	andi	r22, 0x73	; 115
     232:	1c 08       	sbc	r1, r12
     234:	1c 77       	andi	r17, 0x7C	; 124
     236:	63 00       	.word	0x0063	; ????
     238:	07 4f       	sbci	r16, 0xF7	; 247
     23a:	78 78       	andi	r23, 0x88	; 136
     23c:	4f 07       	cpc	r20, r31
     23e:	00 00       	nop
     240:	67 73       	andi	r22, 0x37	; 55
     242:	59 4d       	sbci	r21, 0xD9	; 217
     244:	47 63       	ori	r20, 0x37	; 55
     246:	71 00       	.word	0x0071	; ????
     248:	00 7f       	andi	r16, 0xF0	; 240
     24a:	7f 41       	sbci	r23, 0x1F	; 31
     24c:	41 00       	.word	0x0041	; ????
     24e:	00 00       	nop
     250:	01 03       	mulsu	r16, r17
     252:	06 0c       	add	r0, r6
     254:	18 30       	cpi	r17, 0x08	; 8
     256:	60 00       	.word	0x0060	; ????
     258:	00 41       	sbci	r16, 0x10	; 16
     25a:	41 7f       	andi	r20, 0xF1	; 241
     25c:	7f 00       	.word	0x007f	; ????
     25e:	00 00       	nop
     260:	08 0c       	add	r0, r8
     262:	06 03       	mulsu	r16, r22
     264:	06 0c       	add	r0, r6
     266:	08 00       	.word	0x0008	; ????
     268:	80 80       	ld	r8, Z
     26a:	80 80       	ld	r8, Z
     26c:	80 80       	ld	r8, Z
     26e:	80 80       	ld	r8, Z
     270:	00 00       	nop
     272:	03 07       	cpc	r16, r19
     274:	04 00       	.word	0x0004	; ????
     276:	00 00       	nop
     278:	20 74       	andi	r18, 0x40	; 64
     27a:	54 54       	subi	r21, 0x44	; 68
     27c:	3c 78       	andi	r19, 0x8C	; 140
     27e:	40 00       	.word	0x0040	; ????
     280:	41 3f       	cpi	r20, 0xF1	; 241
     282:	7f 44       	sbci	r23, 0x4F	; 79
     284:	44 7c       	andi	r20, 0xC4	; 196
     286:	38 00       	.word	0x0038	; ????
     288:	38 7c       	andi	r19, 0xC8	; 200
     28a:	44 44       	sbci	r20, 0x44	; 68
     28c:	6c 28       	or	r6, r12
     28e:	00 00       	nop
     290:	30 78       	andi	r19, 0x80	; 128
     292:	48 49       	sbci	r20, 0x98	; 152
     294:	3f 7f       	andi	r19, 0xFF	; 255
     296:	40 00       	.word	0x0040	; ????
     298:	38 7c       	andi	r19, 0xC8	; 200
     29a:	54 54       	subi	r21, 0x44	; 68
     29c:	5c 18       	sub	r5, r12
     29e:	00 00       	nop
     2a0:	48 7e       	andi	r20, 0xE8	; 232
     2a2:	7f 49       	sbci	r23, 0x9F	; 159
     2a4:	03 02       	muls	r16, r19
     2a6:	00 00       	nop
     2a8:	98 bc       	out	0x28, r9	; 40
     2aa:	a4 a4       	ldd	r10, Z+44	; 0x2c
     2ac:	f8 7c       	andi	r31, 0xC8	; 200
     2ae:	04 00       	.word	0x0004	; ????
     2b0:	41 7f       	andi	r20, 0xF1	; 241
     2b2:	7f 08       	sbc	r7, r15
     2b4:	04 7c       	andi	r16, 0xC4	; 196
     2b6:	78 00       	.word	0x0078	; ????
     2b8:	00 44       	sbci	r16, 0x40	; 64
     2ba:	7d 7d       	andi	r23, 0xDD	; 221
     2bc:	40 00       	.word	0x0040	; ????
     2be:	00 00       	nop
     2c0:	40 c4       	rjmp	.+2176   	; 0xb42 <update_EEPROM+0xce>
     2c2:	84 fd       	sbrc	r24, 4
     2c4:	7d 00       	.word	0x007d	; ????
     2c6:	00 00       	nop
     2c8:	41 7f       	andi	r20, 0xF1	; 241
     2ca:	7f 10       	cpse	r7, r15
     2cc:	38 6c       	ori	r19, 0xC8	; 200
     2ce:	44 00       	.word	0x0044	; ????
     2d0:	00 41       	sbci	r16, 0x10	; 16
     2d2:	7f 7f       	andi	r23, 0xFF	; 255
     2d4:	40 00       	.word	0x0040	; ????
     2d6:	00 00       	nop
     2d8:	7c 7c       	andi	r23, 0xCC	; 204
     2da:	0c 18       	sub	r0, r12
     2dc:	0c 7c       	andi	r16, 0xCC	; 204
     2de:	78 00       	.word	0x0078	; ????
     2e0:	7c 7c       	andi	r23, 0xCC	; 204
     2e2:	04 04       	cpc	r0, r4
     2e4:	7c 78       	andi	r23, 0x8C	; 140
     2e6:	00 00       	nop
     2e8:	38 7c       	andi	r19, 0xC8	; 200
     2ea:	44 44       	sbci	r20, 0x44	; 68
     2ec:	7c 38       	cpi	r23, 0x8C	; 140
     2ee:	00 00       	nop
     2f0:	84 fc       	sbrc	r8, 4
     2f2:	f8 a4       	ldd	r15, Y+40	; 0x28
     2f4:	24 3c       	cpi	r18, 0xC4	; 196
     2f6:	18 00       	.word	0x0018	; ????
     2f8:	18 3c       	cpi	r17, 0xC8	; 200
     2fa:	24 a4       	ldd	r2, Z+44	; 0x2c
     2fc:	f8 fc       	.word	0xfcf8	; ????
     2fe:	84 00       	.word	0x0084	; ????
     300:	44 7c       	andi	r20, 0xC4	; 196
     302:	78 44       	sbci	r23, 0x48	; 72
     304:	1c 18       	sub	r1, r12
     306:	00 00       	nop
     308:	48 5c       	subi	r20, 0xC8	; 200
     30a:	54 54       	subi	r21, 0x44	; 68
     30c:	74 24       	eor	r7, r4
     30e:	00 00       	nop
     310:	00 04       	cpc	r0, r0
     312:	3e 7f       	andi	r19, 0xFE	; 254
     314:	44 24       	eor	r4, r4
     316:	00 00       	nop
     318:	3c 7c       	andi	r19, 0xCC	; 204
     31a:	40 40       	sbci	r20, 0x00	; 0
     31c:	3c 7c       	andi	r19, 0xCC	; 204
     31e:	40 00       	.word	0x0040	; ????
     320:	1c 3c       	cpi	r17, 0xCC	; 204
     322:	60 60       	ori	r22, 0x00	; 0
     324:	3c 1c       	adc	r3, r12
     326:	00 00       	nop
     328:	3c 7c       	andi	r19, 0xCC	; 204
     32a:	60 30       	cpi	r22, 0x00	; 0
     32c:	60 7c       	andi	r22, 0xC0	; 192
     32e:	3c 00       	.word	0x003c	; ????
     330:	44 6c       	ori	r20, 0xC4	; 196
     332:	38 10       	cpse	r3, r8
     334:	38 6c       	ori	r19, 0xC8	; 200
     336:	44 00       	.word	0x0044	; ????
     338:	9c bc       	out	0x2c, r9	; 44
     33a:	a0 a0       	ldd	r10, Z+32	; 0x20
     33c:	fc 7c       	andi	r31, 0xCC	; 204
     33e:	00 00       	nop
     340:	4c 64       	ori	r20, 0x4C	; 76
     342:	74 5c       	subi	r23, 0xC4	; 196
     344:	4c 64       	ori	r20, 0x4C	; 76
     346:	00 00       	nop
     348:	08 08       	sbc	r0, r8
     34a:	3e 77       	andi	r19, 0x7E	; 126
     34c:	41 41       	sbci	r20, 0x11	; 17
     34e:	00 00       	nop
     350:	00 00       	nop
     352:	00 77       	andi	r16, 0x70	; 112
     354:	77 00       	.word	0x0077	; ????
     356:	00 00       	nop
     358:	41 41       	sbci	r20, 0x11	; 17
     35a:	77 3e       	cpi	r23, 0xE7	; 231
     35c:	08 08       	sbc	r0, r8
     35e:	00 00       	nop
     360:	02 03       	mulsu	r16, r18
     362:	01 03       	mulsu	r16, r17
     364:	02 03       	mulsu	r16, r18
     366:	01 00       	.word	0x0001	; ????

00000368 <__ctors_end>:
     368:	11 24       	eor	r1, r1
     36a:	1f be       	out	0x3f, r1	; 63
     36c:	cf ef       	ldi	r28, 0xFF	; 255
     36e:	d4 e0       	ldi	r29, 0x04	; 4
     370:	de bf       	out	0x3e, r29	; 62
     372:	cd bf       	out	0x3d, r28	; 61

00000374 <__do_copy_data>:
     374:	13 e0       	ldi	r17, 0x03	; 3
     376:	a0 e0       	ldi	r26, 0x00	; 0
     378:	b1 e0       	ldi	r27, 0x01	; 1
     37a:	e0 e0       	ldi	r30, 0x00	; 0
     37c:	f9 e2       	ldi	r31, 0x29	; 41
     37e:	02 c0       	rjmp	.+4      	; 0x384 <__do_copy_data+0x10>
     380:	05 90       	lpm	r0, Z+
     382:	0d 92       	st	X+, r0
     384:	aa 35       	cpi	r26, 0x5A	; 90
     386:	b1 07       	cpc	r27, r17
     388:	d9 f7       	brne	.-10     	; 0x380 <__do_copy_data+0xc>

0000038a <__do_clear_bss>:
     38a:	23 e0       	ldi	r18, 0x03	; 3
     38c:	aa e5       	ldi	r26, 0x5A	; 90
     38e:	b3 e0       	ldi	r27, 0x03	; 3
     390:	01 c0       	rjmp	.+2      	; 0x394 <.do_clear_bss_start>

00000392 <.do_clear_bss_loop>:
     392:	1d 92       	st	X+, r1

00000394 <.do_clear_bss_start>:
     394:	ac 3a       	cpi	r26, 0xAC	; 172
     396:	b2 07       	cpc	r27, r18
     398:	e1 f7       	brne	.-8      	; 0x392 <.do_clear_bss_loop>
     39a:	0e 94 4b 0f 	call	0x1e96	; 0x1e96 <main>
     39e:	0c 94 7e 14 	jmp	0x28fc	; 0x28fc <_exit>

000003a2 <__bad_interrupt>:
     3a2:	0c 94 00 00 	jmp	0	; 0x0 <__vectors>

000003a6 <ADC_init>:

volatile int ADC_ready;

int ADC_init(void) {
	// Interrupt on rising edge PE0
	EMCUCR |= (1<<ISC2);
     3a6:	86 b7       	in	r24, 0x36	; 54
     3a8:	81 60       	ori	r24, 0x01	; 1
     3aa:	86 bf       	out	0x36, r24	; 54

	// Enable interrupt on PE0
	GICR |= (1<<INT2);
     3ac:	8b b7       	in	r24, 0x3b	; 59
     3ae:	80 62       	ori	r24, 0x20	; 32
     3b0:	8b bf       	out	0x3b, r24	; 59
	
	// Button input
	clr_bit(DDRE, PE0);
     3b2:	30 98       	cbi	0x06, 0	; 6
	
	//Enable the external memory interface/4 bits address
	MCUCR |= (1<<SRE);
     3b4:	85 b7       	in	r24, 0x35	; 53
     3b6:	80 68       	ori	r24, 0x80	; 128
     3b8:	85 bf       	out	0x35, r24	; 53
	SFIOR |= (1<<XMM2);
     3ba:	80 b7       	in	r24, 0x30	; 48
     3bc:	80 62       	ori	r24, 0x20	; 32
     3be:	80 bf       	out	0x30, r24	; 48
	
	//Set the interrupt pin to input
	DDRE &= ~(1<<PINE0);
     3c0:	30 98       	cbi	0x06, 0	; 6

	//set button pins to input
	clr_bit(DDRB, DDB0);
     3c2:	b8 98       	cbi	0x17, 0	; 23
	clr_bit(DDRB, DDB1);
     3c4:	b9 98       	cbi	0x17, 1	; 23
	
	//set joystick button to input
	clr_bit(DDRB, DDB2);
     3c6:	ba 98       	cbi	0x17, 2	; 23
	return 0;
}
     3c8:	80 e0       	ldi	r24, 0x00	; 0
     3ca:	90 e0       	ldi	r25, 0x00	; 0
     3cc:	08 95       	ret

000003ce <ADC_read>:
	#else
		//round up by default
		__ticks_dc = (uint32_t)(ceil(fabs(__tmp)));
	#endif

	__builtin_avr_delay_cycles(__ticks_dc);
     3ce:	e9 e9       	ldi	r30, 0x99	; 153
     3d0:	f9 e0       	ldi	r31, 0x09	; 9
     3d2:	31 97       	sbiw	r30, 0x01	; 1
     3d4:	f1 f7       	brne	.-4      	; 0x3d2 <ADC_read+0x4>
     3d6:	00 c0       	rjmp	.+0      	; 0x3d8 <ADC_read+0xa>
uint8_t ADC_read(uint8_t channel) {
	//Address for the ADC
	volatile char *adc = (char *) 0x1400;
	_delay_ms(2);
	//Choose channel in ADC
	*adc = 0x04 | channel;
     3d8:	84 60       	ori	r24, 0x04	; 4
     3da:	80 93 00 14 	sts	0x1400, r24
	while(!ADC_ready);
     3de:	80 91 76 03 	lds	r24, 0x0376
     3e2:	90 91 77 03 	lds	r25, 0x0377
     3e6:	89 2b       	or	r24, r25
     3e8:	d1 f3       	breq	.-12     	; 0x3de <ADC_read+0x10>
     3ea:	89 e9       	ldi	r24, 0x99	; 153
     3ec:	99 e0       	ldi	r25, 0x09	; 9
     3ee:	01 97       	sbiw	r24, 0x01	; 1
     3f0:	f1 f7       	brne	.-4      	; 0x3ee <ADC_read+0x20>
     3f2:	00 c0       	rjmp	.+0      	; 0x3f4 <ADC_read+0x26>
	_delay_ms(2);
	ADC_ready = 0; 
     3f4:	10 92 77 03 	sts	0x0377, r1
     3f8:	10 92 76 03 	sts	0x0376, r1
	return *adc;
     3fc:	80 91 00 14 	lds	r24, 0x1400
}
     400:	08 95       	ret

00000402 <__vector_3>:


ISR(INT2_vect){
     402:	1f 92       	push	r1
     404:	0f 92       	push	r0
     406:	0f b6       	in	r0, 0x3f	; 63
     408:	0f 92       	push	r0
     40a:	11 24       	eor	r1, r1
     40c:	8f 93       	push	r24
     40e:	9f 93       	push	r25
	ADC_ready = 1;
     410:	81 e0       	ldi	r24, 0x01	; 1
     412:	90 e0       	ldi	r25, 0x00	; 0
     414:	90 93 77 03 	sts	0x0377, r25
     418:	80 93 76 03 	sts	0x0376, r24
	//wake up the CPU
}
     41c:	9f 91       	pop	r25
     41e:	8f 91       	pop	r24
     420:	0f 90       	pop	r0
     422:	0f be       	out	0x3f, r0	; 63
     424:	0f 90       	pop	r0
     426:	1f 90       	pop	r1
     428:	18 95       	reti

0000042a <CAN_init>:
extern volatile uint8_t rx_int_flag; 


Message msg;

int CAN_init(){
     42a:	cf 93       	push	r28
     42c:	df 93       	push	r29
     42e:	1f 92       	push	r1
     430:	cd b7       	in	r28, 0x3d	; 61
     432:	de b7       	in	r29, 0x3e	; 62
	volatile uint8_t value;
	
	//config-mode
	MCP2515_init();
     434:	0e 94 dd 06 	call	0xdba	; 0xdba <MCP2515_init>
     438:	8c ec       	ldi	r24, 0xCC	; 204
     43a:	94 e0       	ldi	r25, 0x04	; 4
     43c:	01 97       	sbiw	r24, 0x01	; 1
     43e:	f1 f7       	brne	.-4      	; 0x43c <CAN_init+0x12>
     440:	00 c0       	rjmp	.+0      	; 0x442 <CAN_init+0x18>
     442:	00 00       	nop
	_delay_ms(1);
	//enable interrupts in MCP
	//Interrupt when message received in RXB0
		
	
	value = MCP2515_read(MCP_CANSTAT);
     444:	8e e0       	ldi	r24, 0x0E	; 14
     446:	0e 94 e2 06 	call	0xdc4	; 0xdc4 <MCP2515_read>
     44a:	89 83       	std	Y+1, r24	; 0x01
	if ((value & MODE_MASK) != MODE_CONFIG) {
     44c:	89 81       	ldd	r24, Y+1	; 0x01
     44e:	80 7e       	andi	r24, 0xE0	; 224
     450:	80 38       	cpi	r24, 0x80	; 128
     452:	39 f0       	breq	.+14     	; 0x462 <CAN_init+0x38>
		printf("MCP2515 is NOT in config mode after reset!\n");
     454:	8c e1       	ldi	r24, 0x1C	; 28
     456:	91 e0       	ldi	r25, 0x01	; 1
     458:	0e 94 6f 11 	call	0x22de	; 0x22de <puts>
		return 1;
     45c:	81 e0       	ldi	r24, 0x01	; 1
     45e:	90 e0       	ldi	r25, 0x00	; 0
     460:	1f c0       	rjmp	.+62     	; 0x4a0 <CAN_init+0x76>
	}
	
	MCP2515_bit_modify(MCP_CANINTE, 0x01, 0x01);
     462:	41 e0       	ldi	r20, 0x01	; 1
     464:	61 e0       	ldi	r22, 0x01	; 1
     466:	8b e2       	ldi	r24, 0x2B	; 43
     468:	0e 94 1b 07 	call	0xe36	; 0xe36 <MCP2515_bit_modify>
	MCP2515_bit_modify(MCP_RXB0CTRL, 0x60, 0xFF);
     46c:	4f ef       	ldi	r20, 0xFF	; 255
     46e:	60 e6       	ldi	r22, 0x60	; 96
     470:	80 e6       	ldi	r24, 0x60	; 96
     472:	0e 94 1b 07 	call	0xe36	; 0xe36 <MCP2515_bit_modify>
	
	//Set Normal-mode
	MCP2515_bit_modify(MCP_CANCTRL, MODE_MASK , MODE_NORMAL);
     476:	40 e0       	ldi	r20, 0x00	; 0
     478:	60 ee       	ldi	r22, 0xE0	; 224
     47a:	8f e0       	ldi	r24, 0x0F	; 15
     47c:	0e 94 1b 07 	call	0xe36	; 0xe36 <MCP2515_bit_modify>
	
	value = MCP2515_read(MCP_CANSTAT);
     480:	8e e0       	ldi	r24, 0x0E	; 14
     482:	0e 94 e2 06 	call	0xdc4	; 0xdc4 <MCP2515_read>
     486:	89 83       	std	Y+1, r24	; 0x01
	if ((value & MODE_MASK) != MODE_NORMAL) {
     488:	89 81       	ldd	r24, Y+1	; 0x01
     48a:	80 7e       	andi	r24, 0xE0	; 224
     48c:	39 f0       	breq	.+14     	; 0x49c <CAN_init+0x72>
		printf("MCP2515 is NOT in normal mode!\n");
     48e:	87 e4       	ldi	r24, 0x47	; 71
     490:	91 e0       	ldi	r25, 0x01	; 1
     492:	0e 94 6f 11 	call	0x22de	; 0x22de <puts>
		return 1;
     496:	81 e0       	ldi	r24, 0x01	; 1
     498:	90 e0       	ldi	r25, 0x00	; 0
     49a:	02 c0       	rjmp	.+4      	; 0x4a0 <CAN_init+0x76>
	}
	
	return 0;
     49c:	80 e0       	ldi	r24, 0x00	; 0
     49e:	90 e0       	ldi	r25, 0x00	; 0
}
     4a0:	0f 90       	pop	r0
     4a2:	df 91       	pop	r29
     4a4:	cf 91       	pop	r28
     4a6:	08 95       	ret

000004a8 <CAN_transmit_complete>:
		MCP2515_request_to_send(1);
	}
}

int CAN_transmit_complete(){
	if ( test_bit(MCP2515_read(MCP_TXB0CTRL), 3)){
     4a8:	80 e3       	ldi	r24, 0x30	; 48
     4aa:	0e 94 e2 06 	call	0xdc4	; 0xdc4 <MCP2515_read>
     4ae:	86 95       	lsr	r24
     4b0:	86 95       	lsr	r24
     4b2:	86 95       	lsr	r24
     4b4:	91 e0       	ldi	r25, 0x01	; 1
     4b6:	89 27       	eor	r24, r25
		return 0;
	}
	return 1;
}
     4b8:	81 70       	andi	r24, 0x01	; 1
     4ba:	90 e0       	ldi	r25, 0x00	; 0
     4bc:	08 95       	ret

000004be <CAN_send>:
	
	return 0;
}


void CAN_send(Message* msg){
     4be:	ef 92       	push	r14
     4c0:	ff 92       	push	r15
     4c2:	0f 93       	push	r16
     4c4:	1f 93       	push	r17
     4c6:	cf 93       	push	r28
     4c8:	df 93       	push	r29
     4ca:	7c 01       	movw	r14, r24
	if(CAN_transmit_complete()){
     4cc:	0e 94 54 02 	call	0x4a8	; 0x4a8 <CAN_transmit_complete>
     4d0:	89 2b       	or	r24, r25
     4d2:	d9 f1       	breq	.+118    	; 0x54a <__stack+0x4b>
		//sending ID
		MCP2515_write(MCP_TXB0SIDH, (uint8_t)msg->ID >> 3);
     4d4:	f7 01       	movw	r30, r14
     4d6:	60 81       	ld	r22, Z
     4d8:	66 95       	lsr	r22
     4da:	66 95       	lsr	r22
     4dc:	66 95       	lsr	r22
     4de:	81 e3       	ldi	r24, 0x31	; 49
     4e0:	0e 94 f5 06 	call	0xdea	; 0xdea <MCP2515_write>
		MCP2515_write(MCP_TXB0SIDL, (uint8_t)msg->ID << 5);
     4e4:	f7 01       	movw	r30, r14
     4e6:	60 81       	ld	r22, Z
     4e8:	62 95       	swap	r22
     4ea:	66 0f       	add	r22, r22
     4ec:	60 7e       	andi	r22, 0xE0	; 224
     4ee:	82 e3       	ldi	r24, 0x32	; 50
     4f0:	0e 94 f5 06 	call	0xdea	; 0xdea <MCP2515_write>
		//sending data length
		MCP2515_write(MCP_TXB0DLC, msg->length & 0x0F);
     4f4:	f7 01       	movw	r30, r14
     4f6:	62 81       	ldd	r22, Z+2	; 0x02
     4f8:	6f 70       	andi	r22, 0x0F	; 15
     4fa:	85 e3       	ldi	r24, 0x35	; 53
     4fc:	0e 94 f5 06 	call	0xdea	; 0xdea <MCP2515_write>
		//Sending data, max 8 bytes
		if(msg->length > 8){
     500:	f7 01       	movw	r30, r14
     502:	82 81       	ldd	r24, Z+2	; 0x02
     504:	93 81       	ldd	r25, Z+3	; 0x03
     506:	89 30       	cpi	r24, 0x09	; 9
     508:	91 05       	cpc	r25, r1
     50a:	54 f0       	brlt	.+20     	; 0x520 <__stack+0x21>
			msg->length = 8;
     50c:	88 e0       	ldi	r24, 0x08	; 8
     50e:	90 e0       	ldi	r25, 0x00	; 0
     510:	93 83       	std	Z+3, r25	; 0x03
     512:	82 83       	std	Z+2, r24	; 0x02
     514:	87 01       	movw	r16, r14
     516:	0c 5f       	subi	r16, 0xFC	; 252
     518:	1f 4f       	sbci	r17, 0xFF	; 255
	
	return 0;
}


void CAN_send(Message* msg){
     51a:	c0 e0       	ldi	r28, 0x00	; 0
     51c:	d0 e0       	ldi	r29, 0x00	; 0
     51e:	04 c0       	rjmp	.+8      	; 0x528 <__stack+0x29>
		MCP2515_write(MCP_TXB0DLC, msg->length & 0x0F);
		//Sending data, max 8 bytes
		if(msg->length > 8){
			msg->length = 8;
		}
		for (int i = 0; i < msg->length; i++){
     520:	18 16       	cp	r1, r24
     522:	19 06       	cpc	r1, r25
     524:	bc f3       	brlt	.-18     	; 0x514 <__stack+0x15>
     526:	0e c0       	rjmp	.+28     	; 0x544 <__stack+0x45>
			MCP2515_write(MCP_TXB0D0 + i, msg->data[i]);  
     528:	f8 01       	movw	r30, r16
     52a:	61 91       	ld	r22, Z+
     52c:	8f 01       	movw	r16, r30
     52e:	8c 2f       	mov	r24, r28
     530:	8a 5c       	subi	r24, 0xCA	; 202
     532:	0e 94 f5 06 	call	0xdea	; 0xdea <MCP2515_write>
		MCP2515_write(MCP_TXB0DLC, msg->length & 0x0F);
		//Sending data, max 8 bytes
		if(msg->length > 8){
			msg->length = 8;
		}
		for (int i = 0; i < msg->length; i++){
     536:	21 96       	adiw	r28, 0x01	; 1
     538:	f7 01       	movw	r30, r14
     53a:	22 81       	ldd	r18, Z+2	; 0x02
     53c:	33 81       	ldd	r19, Z+3	; 0x03
     53e:	c2 17       	cp	r28, r18
     540:	d3 07       	cpc	r29, r19
     542:	94 f3       	brlt	.-28     	; 0x528 <__stack+0x29>
			MCP2515_write(MCP_TXB0D0 + i, msg->data[i]);  
		}
		//initiate message transmission
		MCP2515_request_to_send(1);
     544:	81 e0       	ldi	r24, 0x01	; 1
     546:	0e 94 09 07 	call	0xe12	; 0xe12 <MCP2515_request_to_send>
	}
}
     54a:	df 91       	pop	r29
     54c:	cf 91       	pop	r28
     54e:	1f 91       	pop	r17
     550:	0f 91       	pop	r16
     552:	ff 90       	pop	r15
     554:	ef 90       	pop	r14
     556:	08 95       	ret

00000558 <CAN_recieve>:
		return 0;
	}
	return 1;
}

Message CAN_recieve(){
     558:	7f 92       	push	r7
     55a:	8f 92       	push	r8
     55c:	9f 92       	push	r9
     55e:	af 92       	push	r10
     560:	bf 92       	push	r11
     562:	cf 92       	push	r12
     564:	df 92       	push	r13
     566:	ef 92       	push	r14
     568:	ff 92       	push	r15
     56a:	0f 93       	push	r16
     56c:	1f 93       	push	r17
     56e:	cf 93       	push	r28
     570:	df 93       	push	r29
     572:	cd b7       	in	r28, 0x3d	; 61
     574:	de b7       	in	r29, 0x3e	; 62
     576:	2c 97       	sbiw	r28, 0x0c	; 12
     578:	0f b6       	in	r0, 0x3f	; 63
     57a:	f8 94       	cli
     57c:	de bf       	out	0x3e, r29	; 62
     57e:	0f be       	out	0x3f, r0	; 63
     580:	cd bf       	out	0x3d, r28	; 61
     582:	5c 01       	movw	r10, r24
	Message receive_msg; 
	receive_msg.ID = (MCP2515_read(MCP_RXB0SIDH) << 3 | MCP2515_read(MCP_RXB0SIDL) >> 5);
     584:	81 e6       	ldi	r24, 0x61	; 97
     586:	0e 94 e2 06 	call	0xdc4	; 0xdc4 <MCP2515_read>
     58a:	88 2e       	mov	r8, r24
     58c:	82 e6       	ldi	r24, 0x62	; 98
     58e:	0e 94 e2 06 	call	0xdc4	; 0xdc4 <MCP2515_read>
     592:	82 95       	swap	r24
     594:	86 95       	lsr	r24
     596:	87 70       	andi	r24, 0x07	; 7
     598:	91 2c       	mov	r9, r1
     59a:	88 0c       	add	r8, r8
     59c:	99 1c       	adc	r9, r9
     59e:	88 0c       	add	r8, r8
     5a0:	99 1c       	adc	r9, r9
     5a2:	88 0c       	add	r8, r8
     5a4:	99 1c       	adc	r9, r9
     5a6:	88 2a       	or	r8, r24
	receive_msg.length = MCP2515_read(MCP_RXB0DLC) & 0x0F;
     5a8:	85 e6       	ldi	r24, 0x65	; 101
     5aa:	0e 94 e2 06 	call	0xdc4	; 0xdc4 <MCP2515_read>
     5ae:	8f 70       	andi	r24, 0x0F	; 15
     5b0:	c8 2e       	mov	r12, r24
     5b2:	d1 2c       	mov	r13, r1
     5b4:	89 e0       	ldi	r24, 0x09	; 9
     5b6:	c8 16       	cp	r12, r24
     5b8:	d1 04       	cpc	r13, r1
     5ba:	24 f0       	brlt	.+8      	; 0x5c4 <CAN_recieve+0x6c>
     5bc:	68 94       	set
     5be:	cc 24       	eor	r12, r12
     5c0:	c3 f8       	bld	r12, 3
     5c2:	d1 2c       	mov	r13, r1
	if(receive_msg.length > 8){
		receive_msg.length = 8;
	}
	for (int i = 0; i < receive_msg.length ; i++){
     5c4:	1c 14       	cp	r1, r12
     5c6:	1d 04       	cpc	r1, r13
     5c8:	a4 f4       	brge	.+40     	; 0x5f2 <CAN_recieve+0x9a>
     5ca:	8e 01       	movw	r16, r28
     5cc:	0b 5f       	subi	r16, 0xFB	; 251
     5ce:	1f 4f       	sbci	r17, 0xFF	; 255
     5d0:	78 01       	movw	r14, r16
     5d2:	ec 0c       	add	r14, r12
     5d4:	fd 1c       	adc	r15, r13
     5d6:	0f 2e       	mov	r0, r31
     5d8:	f6 e6       	ldi	r31, 0x66	; 102
     5da:	7f 2e       	mov	r7, r31
     5dc:	f0 2d       	mov	r31, r0
		receive_msg.data[i] = MCP2515_read(MCP_RXB0DM + i);
     5de:	87 2d       	mov	r24, r7
     5e0:	0e 94 e2 06 	call	0xdc4	; 0xdc4 <MCP2515_read>
     5e4:	f8 01       	movw	r30, r16
     5e6:	81 93       	st	Z+, r24
     5e8:	8f 01       	movw	r16, r30
     5ea:	73 94       	inc	r7
	receive_msg.ID = (MCP2515_read(MCP_RXB0SIDH) << 3 | MCP2515_read(MCP_RXB0SIDL) >> 5);
	receive_msg.length = MCP2515_read(MCP_RXB0DLC) & 0x0F;
	if(receive_msg.length > 8){
		receive_msg.length = 8;
	}
	for (int i = 0; i < receive_msg.length ; i++){
     5ec:	ee 15       	cp	r30, r14
     5ee:	ff 05       	cpc	r31, r15
     5f0:	b1 f7       	brne	.-20     	; 0x5de <CAN_recieve+0x86>
		receive_msg.data[i] = MCP2515_read(MCP_RXB0DM + i);
		//printf("Leser %c\n", msg.data[i]);
	}
	rx_int_flag = 0;	
     5f2:	10 92 5a 03 	sts	0x035A, r1
	return receive_msg; 
     5f6:	9a 82       	std	Y+2, r9	; 0x02
     5f8:	89 82       	std	Y+1, r8	; 0x01
     5fa:	dc 82       	std	Y+4, r13	; 0x04
     5fc:	cb 82       	std	Y+3, r12	; 0x03
     5fe:	8c e0       	ldi	r24, 0x0C	; 12
     600:	fe 01       	movw	r30, r28
     602:	31 96       	adiw	r30, 0x01	; 1
     604:	d5 01       	movw	r26, r10
     606:	01 90       	ld	r0, Z+
     608:	0d 92       	st	X+, r0
     60a:	8a 95       	dec	r24
     60c:	e1 f7       	brne	.-8      	; 0x606 <CAN_recieve+0xae>
}
     60e:	c5 01       	movw	r24, r10
     610:	2c 96       	adiw	r28, 0x0c	; 12
     612:	0f b6       	in	r0, 0x3f	; 63
     614:	f8 94       	cli
     616:	de bf       	out	0x3e, r29	; 62
     618:	0f be       	out	0x3f, r0	; 63
     61a:	cd bf       	out	0x3d, r28	; 61
     61c:	df 91       	pop	r29
     61e:	cf 91       	pop	r28
     620:	1f 91       	pop	r17
     622:	0f 91       	pop	r16
     624:	ff 90       	pop	r15
     626:	ef 90       	pop	r14
     628:	df 90       	pop	r13
     62a:	cf 90       	pop	r12
     62c:	bf 90       	pop	r11
     62e:	af 90       	pop	r10
     630:	9f 90       	pop	r9
     632:	8f 90       	pop	r8
     634:	7f 90       	pop	r7
     636:	08 95       	ret

00000638 <CAN_int_vect>:
	return 0; 
}

void CAN_int_vect(){
	//set recieve flag to 0
	MCP2515_bit_modify(MCP_CANINTF, 0x01, 0x00);
     638:	40 e0       	ldi	r20, 0x00	; 0
     63a:	61 e0       	ldi	r22, 0x01	; 1
     63c:	8c e2       	ldi	r24, 0x2C	; 44
     63e:	0e 94 1b 07 	call	0xe36	; 0xe36 <MCP2515_bit_modify>
	//set transmit flag to 0 
	MCP2515_bit_modify(MCP_CANINTF, 0x04, 0x00);
     642:	40 e0       	ldi	r20, 0x00	; 0
     644:	64 e0       	ldi	r22, 0x04	; 4
     646:	8c e2       	ldi	r24, 0x2C	; 44
     648:	0e 94 1b 07 	call	0xe36	; 0xe36 <MCP2515_bit_modify>
	rx_int_flag = 1;
     64c:	81 e0       	ldi	r24, 0x01	; 1
     64e:	80 93 5a 03 	sts	0x035A, r24
     652:	08 95       	ret

00000654 <CAN_send_controllers>:
	
}


void CAN_send_controllers(void){
     654:	0f 93       	push	r16
     656:	1f 93       	push	r17
     658:	cf 93       	push	r28
     65a:	df 93       	push	r29
     65c:	cd b7       	in	r28, 0x3d	; 61
     65e:	de b7       	in	r29, 0x3e	; 62
     660:	2c 97       	sbiw	r28, 0x0c	; 12
     662:	0f b6       	in	r0, 0x3f	; 63
     664:	f8 94       	cli
     666:	de bf       	out	0x3e, r29	; 62
     668:	0f be       	out	0x3f, r0	; 63
     66a:	cd bf       	out	0x3d, r28	; 61
	
	uint8_t joy_pos_x = joystick_read(CHANNEL_X);
     66c:	85 e0       	ldi	r24, 0x05	; 5
     66e:	90 e0       	ldi	r25, 0x00	; 0
     670:	0e 94 4f 07 	call	0xe9e	; 0xe9e <joystick_read>
     674:	08 2f       	mov	r16, r24
	uint8_t slider_pos_r = slider_read(SLIDER_R);
     676:	87 e0       	ldi	r24, 0x07	; 7
     678:	90 e0       	ldi	r25, 0x00	; 0
     67a:	0e 94 53 07 	call	0xea6	; 0xea6 <slider_read>
     67e:	18 2f       	mov	r17, r24
	
	int button_l = button_read(1);
     680:	81 e0       	ldi	r24, 0x01	; 1
     682:	90 e0       	ldi	r25, 0x00	; 0
     684:	0e 94 57 07 	call	0xeae	; 0xeae <button_read>

	Message msg = {0, 3, {joy_pos_x ,slider_pos_r,  button_l}};
     688:	fe 01       	movw	r30, r28
     68a:	31 96       	adiw	r30, 0x01	; 1
     68c:	9c e0       	ldi	r25, 0x0C	; 12
     68e:	df 01       	movw	r26, r30
     690:	1d 92       	st	X+, r1
     692:	9a 95       	dec	r25
     694:	e9 f7       	brne	.-6      	; 0x690 <CAN_send_controllers+0x3c>
     696:	23 e0       	ldi	r18, 0x03	; 3
     698:	30 e0       	ldi	r19, 0x00	; 0
     69a:	3c 83       	std	Y+4, r19	; 0x04
     69c:	2b 83       	std	Y+3, r18	; 0x03
}


void CAN_send_controllers(void){
	
	uint8_t joy_pos_x = joystick_read(CHANNEL_X);
     69e:	0d 83       	std	Y+5, r16	; 0x05
	uint8_t slider_pos_r = slider_read(SLIDER_R);
     6a0:	1e 83       	std	Y+6, r17	; 0x06
	
	int button_l = button_read(1);

	Message msg = {0, 3, {joy_pos_x ,slider_pos_r,  button_l}};
     6a2:	8f 83       	std	Y+7, r24	; 0x07
	
	CAN_send(&msg);	
     6a4:	cf 01       	movw	r24, r30
     6a6:	0e 94 5f 02 	call	0x4be	; 0x4be <CAN_send>
}
     6aa:	2c 96       	adiw	r28, 0x0c	; 12
     6ac:	0f b6       	in	r0, 0x3f	; 63
     6ae:	f8 94       	cli
     6b0:	de bf       	out	0x3e, r29	; 62
     6b2:	0f be       	out	0x3f, r0	; 63
     6b4:	cd bf       	out	0x3d, r28	; 61
     6b6:	df 91       	pop	r29
     6b8:	cf 91       	pop	r28
     6ba:	1f 91       	pop	r17
     6bc:	0f 91       	pop	r16
     6be:	08 95       	ret

000006c0 <CAN_send_ps2_controllers>:

void CAN_send_ps2_controllers(void){
     6c0:	0f 93       	push	r16
     6c2:	1f 93       	push	r17
     6c4:	cf 93       	push	r28
     6c6:	df 93       	push	r29
     6c8:	cd b7       	in	r28, 0x3d	; 61
     6ca:	de b7       	in	r29, 0x3e	; 62
     6cc:	2c 97       	sbiw	r28, 0x0c	; 12
     6ce:	0f b6       	in	r0, 0x3f	; 63
     6d0:	f8 94       	cli
     6d2:	de bf       	out	0x3e, r29	; 62
     6d4:	0f be       	out	0x3f, r0	; 63
     6d6:	cd bf       	out	0x3d, r28	; 61
	ps2_poll(0,0);
     6d8:	60 e0       	ldi	r22, 0x00	; 0
     6da:	80 e0       	ldi	r24, 0x00	; 0
     6dc:	0e 94 1c 0e 	call	0x1c38	; 0x1c38 <ps2_poll>
	CAN_send_controllers();
     6e0:	0e 94 2a 03 	call	0x654	; 0x654 <CAN_send_controllers>
	ps2 ps2_joy_values = ps2_joystick_values();
     6e4:	0e 94 e7 0e 	call	0x1dce	; 0x1dce <ps2_joystick_values>
     6e8:	16 2f       	mov	r17, r22
     6ea:	08 2f       	mov	r16, r24
	int button_r2 =  ps2_R2_pushed();
     6ec:	0e 94 df 0e 	call	0x1dbe	; 0x1dbe <ps2_R2_pushed>
	Message msg = {0, 3, {ps2_joy_values.rx ,ps2_joy_values.lx, button_r2, 1}};
     6f0:	fe 01       	movw	r30, r28
     6f2:	31 96       	adiw	r30, 0x01	; 1
     6f4:	9c e0       	ldi	r25, 0x0C	; 12
     6f6:	df 01       	movw	r26, r30
     6f8:	1d 92       	st	X+, r1
     6fa:	9a 95       	dec	r25
     6fc:	e9 f7       	brne	.-6      	; 0x6f8 <CAN_send_ps2_controllers+0x38>
     6fe:	23 e0       	ldi	r18, 0x03	; 3
     700:	30 e0       	ldi	r19, 0x00	; 0
     702:	3c 83       	std	Y+4, r19	; 0x04
     704:	2b 83       	std	Y+3, r18	; 0x03
     706:	0d 83       	std	Y+5, r16	; 0x05
     708:	1e 83       	std	Y+6, r17	; 0x06
     70a:	8f 83       	std	Y+7, r24	; 0x07
     70c:	81 e0       	ldi	r24, 0x01	; 1
     70e:	88 87       	std	Y+8, r24	; 0x08
	CAN_send(&msg);
     710:	cf 01       	movw	r24, r30
     712:	0e 94 5f 02 	call	0x4be	; 0x4be <CAN_send>
}
     716:	2c 96       	adiw	r28, 0x0c	; 12
     718:	0f b6       	in	r0, 0x3f	; 63
     71a:	f8 94       	cli
     71c:	de bf       	out	0x3e, r29	; 62
     71e:	0f be       	out	0x3f, r0	; 63
     720:	cd bf       	out	0x3d, r28	; 61
     722:	df 91       	pop	r29
     724:	cf 91       	pop	r28
     726:	1f 91       	pop	r17
     728:	0f 91       	pop	r16
     72a:	08 95       	ret

0000072c <__vector_1>:



ISR(INT0_vect){
     72c:	1f 92       	push	r1
     72e:	0f 92       	push	r0
     730:	0f b6       	in	r0, 0x3f	; 63
     732:	0f 92       	push	r0
     734:	11 24       	eor	r1, r1
     736:	2f 93       	push	r18
     738:	3f 93       	push	r19
     73a:	4f 93       	push	r20
     73c:	5f 93       	push	r21
     73e:	6f 93       	push	r22
     740:	7f 93       	push	r23
     742:	8f 93       	push	r24
     744:	9f 93       	push	r25
     746:	af 93       	push	r26
     748:	bf 93       	push	r27
     74a:	ef 93       	push	r30
     74c:	ff 93       	push	r31
	//RX0 interrupt flag set to 0
	CAN_int_vect();
     74e:	0e 94 1c 03 	call	0x638	; 0x638 <CAN_int_vect>
}
     752:	ff 91       	pop	r31
     754:	ef 91       	pop	r30
     756:	bf 91       	pop	r27
     758:	af 91       	pop	r26
     75a:	9f 91       	pop	r25
     75c:	8f 91       	pop	r24
     75e:	7f 91       	pop	r23
     760:	6f 91       	pop	r22
     762:	5f 91       	pop	r21
     764:	4f 91       	pop	r20
     766:	3f 91       	pop	r19
     768:	2f 91       	pop	r18
     76a:	0f 90       	pop	r0
     76c:	0f be       	out	0x3f, r0	; 63
     76e:	0f 90       	pop	r0
     770:	1f 90       	pop	r1
     772:	18 95       	reti

00000774 <play_game>:
states current_state;
int controller = USB;
int difficulty;


void play_game(){
     774:	8f 92       	push	r8
     776:	9f 92       	push	r9
     778:	af 92       	push	r10
     77a:	bf 92       	push	r11
     77c:	cf 92       	push	r12
     77e:	df 92       	push	r13
     780:	ef 92       	push	r14
     782:	ff 92       	push	r15
     784:	0f 93       	push	r16
     786:	1f 93       	push	r17
     788:	cf 93       	push	r28
     78a:	df 93       	push	r29
     78c:	cd b7       	in	r28, 0x3d	; 61
     78e:	de b7       	in	r29, 0x3e	; 62
     790:	a4 97       	sbiw	r28, 0x24	; 36
     792:	0f b6       	in	r0, 0x3f	; 63
     794:	f8 94       	cli
     796:	de bf       	out	0x3e, r29	; 62
     798:	0f be       	out	0x3f, r0	; 63
     79a:	cd bf       	out	0x3d, r28	; 61
	printf("Controller %d\t MODE: %d\t\n", controller, difficulty);
     79c:	80 91 6c 03 	lds	r24, 0x036C
     7a0:	8f 93       	push	r24
     7a2:	80 91 6b 03 	lds	r24, 0x036B
     7a6:	8f 93       	push	r24
     7a8:	80 91 07 01 	lds	r24, 0x0107
     7ac:	8f 93       	push	r24
     7ae:	80 91 06 01 	lds	r24, 0x0106
     7b2:	8f 93       	push	r24
     7b4:	86 e6       	ldi	r24, 0x66	; 102
     7b6:	91 e0       	ldi	r25, 0x01	; 1
     7b8:	9f 93       	push	r25
     7ba:	8f 93       	push	r24
     7bc:	0e 94 54 11 	call	0x22a8	; 0x22a8 <printf>
	Message boot_node2 = {0, 2, {controller, difficulty}};
     7c0:	ce 01       	movw	r24, r28
     7c2:	01 96       	adiw	r24, 0x01	; 1
     7c4:	2c e0       	ldi	r18, 0x0C	; 12
     7c6:	fc 01       	movw	r30, r24
     7c8:	11 92       	st	Z+, r1
     7ca:	2a 95       	dec	r18
     7cc:	e9 f7       	brne	.-6      	; 0x7c8 <play_game+0x54>
     7ce:	22 e0       	ldi	r18, 0x02	; 2
     7d0:	30 e0       	ldi	r19, 0x00	; 0
     7d2:	3c 83       	std	Y+4, r19	; 0x04
     7d4:	2b 83       	std	Y+3, r18	; 0x03
     7d6:	20 91 06 01 	lds	r18, 0x0106
     7da:	2d 83       	std	Y+5, r18	; 0x05
     7dc:	20 91 6b 03 	lds	r18, 0x036B
     7e0:	2e 83       	std	Y+6, r18	; 0x06
	
	CAN_send(&boot_node2);
     7e2:	0e 94 5f 02 	call	0x4be	; 0x4be <CAN_send>
	int game_over = 0;
	life = 3;
     7e6:	83 e0       	ldi	r24, 0x03	; 3
     7e8:	90 e0       	ldi	r25, 0x00	; 0
     7ea:	90 93 9d 03 	sts	0x039D, r25
     7ee:	80 93 9c 03 	sts	0x039C, r24
	score = 0;  
     7f2:	10 92 60 03 	sts	0x0360, r1
     7f6:	10 92 5f 03 	sts	0x035F, r1
	highest_score = 0; 
     7fa:	10 92 5e 03 	sts	0x035E, r1
     7fe:	10 92 5d 03 	sts	0x035D, r1
	while(!rx_int_flag); //wait for init succeeded
     802:	0f 90       	pop	r0
     804:	0f 90       	pop	r0
     806:	0f 90       	pop	r0
     808:	0f 90       	pop	r0
     80a:	0f 90       	pop	r0
     80c:	0f 90       	pop	r0
     80e:	80 91 5a 03 	lds	r24, 0x035A
     812:	88 23       	and	r24, r24
     814:	e1 f3       	breq	.-8      	; 0x80e <play_game+0x9a>
	CAN_recieve();
     816:	ce 01       	movw	r24, r28
     818:	49 96       	adiw	r24, 0x19	; 25
     81a:	0e 94 ac 02 	call	0x558	; 0x558 <CAN_recieve>
	printf("NODE 2 initialized \n");
     81e:	80 e8       	ldi	r24, 0x80	; 128
     820:	91 e0       	ldi	r25, 0x01	; 1
     822:	0e 94 6f 11 	call	0x22de	; 0x22de <puts>
void play_game(){
	printf("Controller %d\t MODE: %d\t\n", controller, difficulty);
	Message boot_node2 = {0, 2, {controller, difficulty}};
	
	CAN_send(&boot_node2);
	int game_over = 0;
     826:	e1 2c       	mov	r14, r1
     828:	f1 2c       	mov	r15, r1
			oled_play_game(life, score);
			oled_flag = 0;
		}
		//Send Can-message to node2
		if(send_can_flag){
			clr_bit(ETIMSK, TOIE3);
     82a:	0d e7       	ldi	r16, 0x7D	; 125
     82c:	10 e0       	ldi	r17, 0x00	; 0
				life --;
				//check if new highscore
				if(score > highest_score){
					highest_score = score;
				}
				printf("life: %d\n", life);
     82e:	0f 2e       	mov	r0, r31
     830:	ff ea       	ldi	r31, 0xAF	; 175
     832:	cf 2e       	mov	r12, r31
     834:	f1 e0       	ldi	r31, 0x01	; 1
     836:	df 2e       	mov	r13, r31
     838:	f0 2d       	mov	r31, r0
					game_over = 1;
					oled_game_over();
				} else{
					//Ask for a new game
					oled_play_again();
					while(!button_read(LEFT_BUTTON) & !button_read(RIGHT_BUTTON));
     83a:	bb 24       	eor	r11, r11
     83c:	b3 94       	inc	r11
     83e:	a1 2c       	mov	r10, r1
	CAN_recieve();
	printf("NODE 2 initialized \n");
	
	while(!game_over){
		//Update display
		if (oled_flag){
     840:	80 91 73 03 	lds	r24, 0x0373
     844:	90 91 74 03 	lds	r25, 0x0374
     848:	89 2b       	or	r24, r25
     84a:	71 f0       	breq	.+28     	; 0x868 <play_game+0xf4>
			oled_play_game(life, score);
     84c:	60 91 5f 03 	lds	r22, 0x035F
     850:	70 91 60 03 	lds	r23, 0x0360
     854:	80 91 9c 03 	lds	r24, 0x039C
     858:	90 91 9d 03 	lds	r25, 0x039D
     85c:	0e 94 b4 0d 	call	0x1b68	; 0x1b68 <oled_play_game>
			oled_flag = 0;
     860:	10 92 74 03 	sts	0x0374, r1
     864:	10 92 73 03 	sts	0x0373, r1
		}
		//Send Can-message to node2
		if(send_can_flag){
     868:	80 91 5b 03 	lds	r24, 0x035B
     86c:	90 91 5c 03 	lds	r25, 0x035C
     870:	89 2b       	or	r24, r25
     872:	b9 f0       	breq	.+46     	; 0x8a2 <play_game+0x12e>
			clr_bit(ETIMSK, TOIE3);
     874:	f8 01       	movw	r30, r16
     876:	80 81       	ld	r24, Z
     878:	8b 7f       	andi	r24, 0xFB	; 251
     87a:	80 83       	st	Z, r24
			if(controller == PS2){
     87c:	80 91 06 01 	lds	r24, 0x0106
     880:	90 91 07 01 	lds	r25, 0x0107
     884:	02 97       	sbiw	r24, 0x02	; 2
     886:	19 f4       	brne	.+6      	; 0x88e <play_game+0x11a>
				CAN_send_ps2_controllers();
     888:	0e 94 60 03 	call	0x6c0	; 0x6c0 <CAN_send_ps2_controllers>
     88c:	02 c0       	rjmp	.+4      	; 0x892 <play_game+0x11e>
			}else{
				CAN_send_controllers();
     88e:	0e 94 2a 03 	call	0x654	; 0x654 <CAN_send_controllers>
			}
			send_can_flag = 0;
     892:	10 92 5c 03 	sts	0x035C, r1
     896:	10 92 5b 03 	sts	0x035B, r1
			set_bit(ETIMSK, TOIE3);
     89a:	f8 01       	movw	r30, r16
     89c:	80 81       	ld	r24, Z
     89e:	84 60       	ori	r24, 0x04	; 4
     8a0:	80 83       	st	Z, r24
		}
		
		
		if(rx_int_flag){							
     8a2:	80 91 5a 03 	lds	r24, 0x035A
     8a6:	88 23       	and	r24, r24
     8a8:	09 f4       	brne	.+2      	; 0x8ac <play_game+0x138>
     8aa:	70 c0       	rjmp	.+224    	; 0x98c <play_game+0x218>
			//Score in Node 2
			printf("mottar melding fra node 2 \n");
     8ac:	84 e9       	ldi	r24, 0x94	; 148
     8ae:	91 e0       	ldi	r25, 0x01	; 1
     8b0:	0e 94 6f 11 	call	0x22de	; 0x22de <puts>
			oled_play_game(life, score);
     8b4:	60 91 5f 03 	lds	r22, 0x035F
     8b8:	70 91 60 03 	lds	r23, 0x0360
     8bc:	80 91 9c 03 	lds	r24, 0x039C
     8c0:	90 91 9d 03 	lds	r25, 0x039D
     8c4:	0e 94 b4 0d 	call	0x1b68	; 0x1b68 <oled_play_game>
			Message msg_node2 = CAN_recieve();
     8c8:	ce 01       	movw	r24, r28
     8ca:	0d 96       	adiw	r24, 0x0d	; 13
     8cc:	0e 94 ac 02 	call	0x558	; 0x558 <CAN_recieve>
			if(msg_node2.data[0] = SCORE_ID){
				//Score in Node 2, end of round
				
				life --;
     8d0:	80 91 9c 03 	lds	r24, 0x039C
     8d4:	90 91 9d 03 	lds	r25, 0x039D
     8d8:	01 97       	sbiw	r24, 0x01	; 1
     8da:	90 93 9d 03 	sts	0x039D, r25
     8de:	80 93 9c 03 	sts	0x039C, r24
				//check if new highscore
				if(score > highest_score){
     8e2:	20 91 5f 03 	lds	r18, 0x035F
     8e6:	30 91 60 03 	lds	r19, 0x0360
     8ea:	40 91 5d 03 	lds	r20, 0x035D
     8ee:	50 91 5e 03 	lds	r21, 0x035E
     8f2:	42 17       	cp	r20, r18
     8f4:	53 07       	cpc	r21, r19
     8f6:	24 f4       	brge	.+8      	; 0x900 <play_game+0x18c>
					highest_score = score;
     8f8:	30 93 5e 03 	sts	0x035E, r19
     8fc:	20 93 5d 03 	sts	0x035D, r18
				}
				printf("life: %d\n", life);
     900:	9f 93       	push	r25
     902:	8f 93       	push	r24
     904:	df 92       	push	r13
     906:	cf 92       	push	r12
     908:	0e 94 54 11 	call	0x22a8	; 0x22a8 <printf>
				if(life == 0){
     90c:	0f 90       	pop	r0
     90e:	0f 90       	pop	r0
     910:	0f 90       	pop	r0
     912:	0f 90       	pop	r0
     914:	80 91 9c 03 	lds	r24, 0x039C
     918:	90 91 9d 03 	lds	r25, 0x039D
     91c:	89 2b       	or	r24, r25
     91e:	19 f4       	brne	.+6      	; 0x926 <play_game+0x1b2>
					game_over = 1;
					oled_game_over();
     920:	0e 94 ea 0d 	call	0x1bd4	; 0x1bd4 <oled_game_over>
     924:	37 c0       	rjmp	.+110    	; 0x994 <play_game+0x220>
				} else{
					//Ask for a new game
					oled_play_again();
     926:	0e 94 f7 0d 	call	0x1bee	; 0x1bee <oled_play_again>
					while(!button_read(LEFT_BUTTON) & !button_read(RIGHT_BUTTON));
     92a:	81 e0       	ldi	r24, 0x01	; 1
     92c:	90 e0       	ldi	r25, 0x00	; 0
     92e:	0e 94 57 07 	call	0xeae	; 0xeae <button_read>
     932:	4c 01       	movw	r8, r24
     934:	82 e0       	ldi	r24, 0x02	; 2
     936:	90 e0       	ldi	r25, 0x00	; 0
     938:	0e 94 57 07 	call	0xeae	; 0xeae <button_read>
     93c:	2b 2d       	mov	r18, r11
     93e:	89 2b       	or	r24, r25
     940:	09 f0       	breq	.+2      	; 0x944 <play_game+0x1d0>
     942:	2a 2d       	mov	r18, r10
     944:	22 23       	and	r18, r18
     946:	31 f0       	breq	.+12     	; 0x954 <play_game+0x1e0>
     948:	8b 2d       	mov	r24, r11
     94a:	89 28       	or	r8, r9
     94c:	09 f0       	breq	.+2      	; 0x950 <play_game+0x1dc>
     94e:	8a 2d       	mov	r24, r10
     950:	81 11       	cpse	r24, r1
     952:	eb cf       	rjmp	.-42     	; 0x92a <play_game+0x1b6>
					
					//If no - game over
					if (button_read(RIGHT_BUTTON) != 0){
     954:	82 e0       	ldi	r24, 0x02	; 2
     956:	90 e0       	ldi	r25, 0x00	; 0
     958:	0e 94 57 07 	call	0xeae	; 0xeae <button_read>
     95c:	89 2b       	or	r24, r25
     95e:	d1 f4       	brne	.+52     	; 0x994 <play_game+0x220>
     960:	ff ef       	ldi	r31, 0xFF	; 255
     962:	2f e7       	ldi	r18, 0x7F	; 127
     964:	87 e0       	ldi	r24, 0x07	; 7
     966:	f1 50       	subi	r31, 0x01	; 1
     968:	20 40       	sbci	r18, 0x00	; 0
     96a:	80 40       	sbci	r24, 0x00	; 0
     96c:	e1 f7       	brne	.-8      	; 0x966 <play_game+0x1f2>
     96e:	00 c0       	rjmp	.+0      	; 0x970 <play_game+0x1fc>
     970:	00 00       	nop
						game_over = 1;
					}else{
						//If yes - Send play game signal to node 2
						_delay_ms(500);
						CAN_send(&boot_node2);
     972:	ce 01       	movw	r24, r28
     974:	01 96       	adiw	r24, 0x01	; 1
     976:	0e 94 5f 02 	call	0x4be	; 0x4be <CAN_send>
						score = 0;
     97a:	10 92 60 03 	sts	0x0360, r1
     97e:	10 92 5f 03 	sts	0x035F, r1
	highest_score = 0; 
	while(!rx_int_flag); //wait for init succeeded
	CAN_recieve();
	printf("NODE 2 initialized \n");
	
	while(!game_over){
     982:	e1 14       	cp	r14, r1
     984:	f1 04       	cpc	r15, r1
     986:	09 f4       	brne	.+2      	; 0x98a <play_game+0x216>
     988:	5b cf       	rjmp	.-330    	; 0x840 <play_game+0xcc>
     98a:	04 c0       	rjmp	.+8      	; 0x994 <play_game+0x220>
     98c:	e1 14       	cp	r14, r1
     98e:	f1 04       	cpc	r15, r1
     990:	09 f4       	brne	.+2      	; 0x994 <play_game+0x220>
     992:	56 cf       	rjmp	.-340    	; 0x840 <play_game+0xcc>
				
		}
			
	}
	//If highscore, add to list and display highscore-list
	current_state = NEW_HIGHSCORE;
     994:	84 e0       	ldi	r24, 0x04	; 4
     996:	80 93 75 03 	sts	0x0375, r24
}
     99a:	a4 96       	adiw	r28, 0x24	; 36
     99c:	0f b6       	in	r0, 0x3f	; 63
     99e:	f8 94       	cli
     9a0:	de bf       	out	0x3e, r29	; 62
     9a2:	0f be       	out	0x3f, r0	; 63
     9a4:	cd bf       	out	0x3d, r28	; 61
     9a6:	df 91       	pop	r29
     9a8:	cf 91       	pop	r28
     9aa:	1f 91       	pop	r17
     9ac:	0f 91       	pop	r16
     9ae:	ff 90       	pop	r15
     9b0:	ef 90       	pop	r14
     9b2:	df 90       	pop	r13
     9b4:	cf 90       	pop	r12
     9b6:	bf 90       	pop	r11
     9b8:	af 90       	pop	r10
     9ba:	9f 90       	pop	r9
     9bc:	8f 90       	pop	r8
     9be:	08 95       	ret

000009c0 <__vector_15>:


ISR(TIMER1_OVF_vect){
     9c0:	1f 92       	push	r1
     9c2:	0f 92       	push	r0
     9c4:	0f b6       	in	r0, 0x3f	; 63
     9c6:	0f 92       	push	r0
     9c8:	11 24       	eor	r1, r1
     9ca:	8f 93       	push	r24
     9cc:	9f 93       	push	r25
	oled_flag = 1;
     9ce:	81 e0       	ldi	r24, 0x01	; 1
     9d0:	90 e0       	ldi	r25, 0x00	; 0
     9d2:	90 93 74 03 	sts	0x0374, r25
     9d6:	80 93 73 03 	sts	0x0373, r24
	score += 1;	
     9da:	80 91 5f 03 	lds	r24, 0x035F
     9de:	90 91 60 03 	lds	r25, 0x0360
     9e2:	01 96       	adiw	r24, 0x01	; 1
     9e4:	90 93 60 03 	sts	0x0360, r25
     9e8:	80 93 5f 03 	sts	0x035F, r24
}
     9ec:	9f 91       	pop	r25
     9ee:	8f 91       	pop	r24
     9f0:	0f 90       	pop	r0
     9f2:	0f be       	out	0x3f, r0	; 63
     9f4:	0f 90       	pop	r0
     9f6:	1f 90       	pop	r1
     9f8:	18 95       	reti

000009fa <__vector_9>:

ISR(TIMER3_OVF_vect){
     9fa:	1f 92       	push	r1
     9fc:	0f 92       	push	r0
     9fe:	0f b6       	in	r0, 0x3f	; 63
     a00:	0f 92       	push	r0
     a02:	11 24       	eor	r1, r1
     a04:	8f 93       	push	r24
     a06:	9f 93       	push	r25
	send_can_flag = 1;
     a08:	81 e0       	ldi	r24, 0x01	; 1
     a0a:	90 e0       	ldi	r25, 0x00	; 0
     a0c:	90 93 5c 03 	sts	0x035C, r25
     a10:	80 93 5b 03 	sts	0x035B, r24
	
}
     a14:	9f 91       	pop	r25
     a16:	8f 91       	pop	r24
     a18:	0f 90       	pop	r0
     a1a:	0f be       	out	0x3f, r0	; 63
     a1c:	0f 90       	pop	r0
     a1e:	1f 90       	pop	r1
     a20:	18 95       	reti

00000a22 <check_highscore>:
}


int check_highscore(int score){
	for (int i = 0; i < 5 ; i++ ){
		if(score > highscore_scores[i]){
     a22:	20 91 61 03 	lds	r18, 0x0361
     a26:	30 91 62 03 	lds	r19, 0x0362
     a2a:	28 17       	cp	r18, r24
     a2c:	39 07       	cpc	r19, r25
     a2e:	7c f0       	brlt	.+30     	; 0xa4e <check_highscore+0x2c>
     a30:	e3 e6       	ldi	r30, 0x63	; 99
     a32:	f3 e0       	ldi	r31, 0x03	; 3
	oled_update();
}


int check_highscore(int score){
	for (int i = 0; i < 5 ; i++ ){
     a34:	21 e0       	ldi	r18, 0x01	; 1
     a36:	30 e0       	ldi	r19, 0x00	; 0
		if(score > highscore_scores[i]){
     a38:	41 91       	ld	r20, Z+
     a3a:	51 91       	ld	r21, Z+
     a3c:	48 17       	cp	r20, r24
     a3e:	59 07       	cpc	r21, r25
     a40:	4c f0       	brlt	.+18     	; 0xa54 <check_highscore+0x32>
	oled_update();
}


int check_highscore(int score){
	for (int i = 0; i < 5 ; i++ ){
     a42:	2f 5f       	subi	r18, 0xFF	; 255
     a44:	3f 4f       	sbci	r19, 0xFF	; 255
     a46:	25 30       	cpi	r18, 0x05	; 5
     a48:	31 05       	cpc	r19, r1
     a4a:	b1 f7       	brne	.-20     	; 0xa38 <check_highscore+0x16>
     a4c:	06 c0       	rjmp	.+12     	; 0xa5a <check_highscore+0x38>
     a4e:	80 e0       	ldi	r24, 0x00	; 0
     a50:	90 e0       	ldi	r25, 0x00	; 0
     a52:	08 95       	ret
     a54:	82 2f       	mov	r24, r18
     a56:	93 2f       	mov	r25, r19
     a58:	08 95       	ret
		if(score > highscore_scores[i]){
			return i;
		}
	}
	return -1;
     a5a:	8f ef       	ldi	r24, 0xFF	; 255
     a5c:	9f ef       	ldi	r25, 0xFF	; 255
}
     a5e:	08 95       	ret

00000a60 <EEPROM_write>:
void EEPROM_write(uint8_t ucData, unsigned int uiAddress){
	/* 
	Wait for completion of previous write
	*/
	
	while(EECR & (1<<EEWE));
     a60:	e1 99       	sbic	0x1c, 1	; 28
     a62:	fe cf       	rjmp	.-4      	; 0xa60 <EEPROM_write>
	/* Set up address and data registers */
	cli();
     a64:	f8 94       	cli
	EEAR = uiAddress;
     a66:	7f bb       	out	0x1f, r23	; 31
     a68:	6e bb       	out	0x1e, r22	; 30
	EEDR = ucData;
     a6a:	8d bb       	out	0x1d, r24	; 29
	/* Write logical one to EEMWE */
	EECR |= (1<<EEMWE);
     a6c:	e2 9a       	sbi	0x1c, 2	; 28
	/* Start eeprom write by setting EEWE */
	EECR |= (1<<EEWE);
     a6e:	e1 9a       	sbi	0x1c, 1	; 28
	sei(); 
     a70:	78 94       	sei
     a72:	08 95       	ret

00000a74 <update_EEPROM>:
	for (int i = 0; i < 5 ; i++){
		highscore_scores[i] = EEPROM_read(i+15);
	}
}

void update_EEPROM(void){
     a74:	af 92       	push	r10
     a76:	bf 92       	push	r11
     a78:	cf 92       	push	r12
     a7a:	df 92       	push	r13
     a7c:	ef 92       	push	r14
     a7e:	ff 92       	push	r15
     a80:	0f 93       	push	r16
     a82:	1f 93       	push	r17
     a84:	cf 93       	push	r28
     a86:	df 93       	push	r29
	printf("Updater highscore: \n ");
     a88:	89 eb       	ldi	r24, 0xB9	; 185
     a8a:	91 e0       	ldi	r25, 0x01	; 1
     a8c:	9f 93       	push	r25
     a8e:	8f 93       	push	r24
     a90:	0e 94 54 11 	call	0x22a8	; 0x22a8 <printf>
     a94:	08 e0       	ldi	r16, 0x08	; 8
     a96:	11 e0       	ldi	r17, 0x01	; 1
     a98:	0f 90       	pop	r0
     a9a:	0f 90       	pop	r0
     a9c:	c1 2c       	mov	r12, r1
     a9e:	d1 2c       	mov	r13, r1
	for (int i = 0; i < 5 ; i++){
		highscore_scores[i] = EEPROM_read(i+15);
	}
}

void update_EEPROM(void){
     aa0:	a1 2c       	mov	r10, r1
     aa2:	b1 2c       	mov	r11, r1
	printf("Updater highscore: \n ");
	for (int i = 0; i < 5 ; i++){
		for(int j = 0 ; j < 3 ; j++){
			printf(" %c", highscore_names[i][j]);
     aa4:	0f 2e       	mov	r0, r31
     aa6:	ff ec       	ldi	r31, 0xCF	; 207
     aa8:	ef 2e       	mov	r14, r31
     aaa:	f1 e0       	ldi	r31, 0x01	; 1
     aac:	ff 2e       	mov	r15, r31
     aae:	f0 2d       	mov	r31, r0
     ab0:	2c c0       	rjmp	.+88     	; 0xb0a <update_EEPROM+0x96>
     ab2:	d8 01       	movw	r26, r16
     ab4:	ed 91       	ld	r30, X+
     ab6:	fc 91       	ld	r31, X
     ab8:	ec 0f       	add	r30, r28
     aba:	fd 1f       	adc	r31, r29
     abc:	80 81       	ld	r24, Z
     abe:	1f 92       	push	r1
     ac0:	8f 93       	push	r24
     ac2:	ff 92       	push	r15
     ac4:	ef 92       	push	r14
     ac6:	0e 94 54 11 	call	0x22a8	; 0x22a8 <printf>
     aca:	be 01       	movw	r22, r28
     acc:	6c 0d       	add	r22, r12
     ace:	7d 1d       	adc	r23, r13
			EEPROM_write(highscore_names[i][j], 3*i+j);
     ad0:	d8 01       	movw	r26, r16
     ad2:	ed 91       	ld	r30, X+
     ad4:	fc 91       	ld	r31, X
     ad6:	ec 0f       	add	r30, r28
     ad8:	fd 1f       	adc	r31, r29
     ada:	80 81       	ld	r24, Z
     adc:	0e 94 30 05 	call	0xa60	; 0xa60 <EEPROM_write>
}

void update_EEPROM(void){
	printf("Updater highscore: \n ");
	for (int i = 0; i < 5 ; i++){
		for(int j = 0 ; j < 3 ; j++){
     ae0:	21 96       	adiw	r28, 0x01	; 1
     ae2:	0f 90       	pop	r0
     ae4:	0f 90       	pop	r0
     ae6:	0f 90       	pop	r0
     ae8:	0f 90       	pop	r0
     aea:	c3 30       	cpi	r28, 0x03	; 3
     aec:	d1 05       	cpc	r29, r1
     aee:	09 f7       	brne	.-62     	; 0xab2 <update_EEPROM+0x3e>
			printf(" %c", highscore_names[i][j]);
			EEPROM_write(highscore_names[i][j], 3*i+j);
		}printf("\n");
     af0:	8a e0       	ldi	r24, 0x0A	; 10
     af2:	90 e0       	ldi	r25, 0x00	; 0
     af4:	0e 94 68 11 	call	0x22d0	; 0x22d0 <putchar>
     af8:	0e 5f       	subi	r16, 0xFE	; 254
     afa:	1f 4f       	sbci	r17, 0xFF	; 255
     afc:	b3 e0       	ldi	r27, 0x03	; 3
     afe:	cb 0e       	add	r12, r27
     b00:	d1 1c       	adc	r13, r1
	}
}

void update_EEPROM(void){
	printf("Updater highscore: \n ");
	for (int i = 0; i < 5 ; i++){
     b02:	ef e0       	ldi	r30, 0x0F	; 15
     b04:	ce 16       	cp	r12, r30
     b06:	d1 04       	cpc	r13, r1
     b08:	19 f0       	breq	.+6      	; 0xb10 <update_EEPROM+0x9c>
	for (int i = 0; i < 5 ; i++){
		highscore_scores[i] = EEPROM_read(i+15);
	}
}

void update_EEPROM(void){
     b0a:	ca 2d       	mov	r28, r10
     b0c:	db 2d       	mov	r29, r11
     b0e:	d1 cf       	rjmp	.-94     	; 0xab2 <update_EEPROM+0x3e>
     b10:	01 e6       	ldi	r16, 0x61	; 97
     b12:	13 e0       	ldi	r17, 0x03	; 3
	printf("Updater highscore: \n ");
	for (int i = 0; i < 5 ; i++){
     b14:	cf e0       	ldi	r28, 0x0F	; 15
     b16:	d0 e0       	ldi	r29, 0x00	; 0
			EEPROM_write(highscore_names[i][j], 3*i+j);
		}printf("\n");
	}
	for (int i = 0; i < 5 ; i++){
		EEPROM_write(highscore_scores[i], 15+i);
		printf(" %d", highscore_scores[i]);
     b18:	0f 2e       	mov	r0, r31
     b1a:	f3 ed       	ldi	r31, 0xD3	; 211
     b1c:	ef 2e       	mov	r14, r31
     b1e:	f1 e0       	ldi	r31, 0x01	; 1
     b20:	ff 2e       	mov	r15, r31
     b22:	f0 2d       	mov	r31, r0
			printf(" %c", highscore_names[i][j]);
			EEPROM_write(highscore_names[i][j], 3*i+j);
		}printf("\n");
	}
	for (int i = 0; i < 5 ; i++){
		EEPROM_write(highscore_scores[i], 15+i);
     b24:	d8 01       	movw	r26, r16
     b26:	dc 90       	ld	r13, X
     b28:	11 96       	adiw	r26, 0x01	; 1
     b2a:	cc 90       	ld	r12, X
     b2c:	0e 5f       	subi	r16, 0xFE	; 254
     b2e:	1f 4f       	sbci	r17, 0xFF	; 255
     b30:	be 01       	movw	r22, r28
     b32:	8d 2d       	mov	r24, r13
     b34:	0e 94 30 05 	call	0xa60	; 0xa60 <EEPROM_write>
		printf(" %d", highscore_scores[i]);
     b38:	cf 92       	push	r12
     b3a:	df 92       	push	r13
     b3c:	ff 92       	push	r15
     b3e:	ef 92       	push	r14
     b40:	0e 94 54 11 	call	0x22a8	; 0x22a8 <printf>
     b44:	21 96       	adiw	r28, 0x01	; 1
		for(int j = 0 ; j < 3 ; j++){
			printf(" %c", highscore_names[i][j]);
			EEPROM_write(highscore_names[i][j], 3*i+j);
		}printf("\n");
	}
	for (int i = 0; i < 5 ; i++){
     b46:	0f 90       	pop	r0
     b48:	0f 90       	pop	r0
     b4a:	0f 90       	pop	r0
     b4c:	0f 90       	pop	r0
     b4e:	c4 31       	cpi	r28, 0x14	; 20
     b50:	d1 05       	cpc	r29, r1
     b52:	41 f7       	brne	.-48     	; 0xb24 <update_EEPROM+0xb0>
		EEPROM_write(highscore_scores[i], 15+i);
		printf(" %d", highscore_scores[i]);
	}
}
     b54:	df 91       	pop	r29
     b56:	cf 91       	pop	r28
     b58:	1f 91       	pop	r17
     b5a:	0f 91       	pop	r16
     b5c:	ff 90       	pop	r15
     b5e:	ef 90       	pop	r14
     b60:	df 90       	pop	r13
     b62:	cf 90       	pop	r12
     b64:	bf 90       	pop	r11
     b66:	af 90       	pop	r10
     b68:	08 95       	ret

00000b6a <insert_highscore>:
		}
	}
	return -1;
}

void insert_highscore(int place, int score, char* new_name){
     b6a:	cf 93       	push	r28
     b6c:	df 93       	push	r29
	
	
	for(int j = 4 ; j > place ; j--){
     b6e:	84 30       	cpi	r24, 0x04	; 4
     b70:	91 05       	cpc	r25, r1
     b72:	ac f4       	brge	.+42     	; 0xb9e <insert_highscore+0x34>
     b74:	a9 e6       	ldi	r26, 0x69	; 105
     b76:	b3 e0       	ldi	r27, 0x03	; 3
     b78:	e0 e1       	ldi	r30, 0x10	; 16
     b7a:	f1 e0       	ldi	r31, 0x01	; 1
     b7c:	24 e0       	ldi	r18, 0x04	; 4
     b7e:	30 e0       	ldi	r19, 0x00	; 0
		highscore_scores[j] = highscore_scores[j-1];
     b80:	21 50       	subi	r18, 0x01	; 1
     b82:	31 09       	sbc	r19, r1
     b84:	de 91       	ld	r29, -X
     b86:	ce 91       	ld	r28, -X
     b88:	13 96       	adiw	r26, 0x03	; 3
     b8a:	dc 93       	st	X, r29
     b8c:	ce 93       	st	-X, r28
     b8e:	12 97       	sbiw	r26, 0x02	; 2
		highscore_names[j] =  highscore_names[j-1];
     b90:	d2 91       	ld	r29, -Z
     b92:	c2 91       	ld	r28, -Z
     b94:	d3 83       	std	Z+3, r29	; 0x03
     b96:	c2 83       	std	Z+2, r28	; 0x02
}

void insert_highscore(int place, int score, char* new_name){
	
	
	for(int j = 4 ; j > place ; j--){
     b98:	28 17       	cp	r18, r24
     b9a:	39 07       	cpc	r19, r25
     b9c:	89 f7       	brne	.-30     	; 0xb80 <insert_highscore+0x16>
		highscore_scores[j] = highscore_scores[j-1];
		highscore_names[j] =  highscore_names[j-1];
	}
	highscore_scores[place] = score;
     b9e:	88 0f       	add	r24, r24
     ba0:	99 1f       	adc	r25, r25
     ba2:	fc 01       	movw	r30, r24
     ba4:	ef 59       	subi	r30, 0x9F	; 159
     ba6:	fc 4f       	sbci	r31, 0xFC	; 252
     ba8:	71 83       	std	Z+1, r23	; 0x01
     baa:	60 83       	st	Z, r22
	highscore_names[place] =  new_name;
     bac:	fc 01       	movw	r30, r24
     bae:	e8 5f       	subi	r30, 0xF8	; 248
     bb0:	fe 4f       	sbci	r31, 0xFE	; 254
     bb2:	51 83       	std	Z+1, r21	; 0x01
     bb4:	40 83       	st	Z, r20
	update_EEPROM();
     bb6:	0e 94 3a 05 	call	0xa74	; 0xa74 <update_EEPROM>
}
     bba:	df 91       	pop	r29
     bbc:	cf 91       	pop	r28
     bbe:	08 95       	ret

00000bc0 <EEPROM_read>:

unsigned char EEPROM_read(unsigned int uiAddress)
{	
	
	/* Wait for completion of previous write */
	while(EECR & (1<<EEWE));
     bc0:	e1 99       	sbic	0x1c, 1	; 28
     bc2:	fe cf       	rjmp	.-4      	; 0xbc0 <EEPROM_read>
	
	/* Set up address register */
	EEAR = uiAddress;
     bc4:	9f bb       	out	0x1f, r25	; 31
     bc6:	8e bb       	out	0x1e, r24	; 30
	/* Start eeprom read by writing EERE */
	EECR |= (1<<EERE);
     bc8:	e0 9a       	sbi	0x1c, 0	; 28
	/* Return data from data register */
	return EEDR;
     bca:	8d b3       	in	r24, 0x1d	; 29
	 
}
     bcc:	08 95       	ret

00000bce <read_highscore_list>:
	highscore_names[place] =  new_name;
	update_EEPROM();
}
	
	
void read_highscore_list(void){
     bce:	af 92       	push	r10
     bd0:	bf 92       	push	r11
     bd2:	cf 92       	push	r12
     bd4:	df 92       	push	r13
     bd6:	ef 92       	push	r14
     bd8:	ff 92       	push	r15
     bda:	0f 93       	push	r16
     bdc:	1f 93       	push	r17
     bde:	cf 93       	push	r28
     be0:	df 93       	push	r29
     be2:	0f 2e       	mov	r0, r31
     be4:	f8 e0       	ldi	r31, 0x08	; 8
     be6:	cf 2e       	mov	r12, r31
     be8:	f1 e0       	ldi	r31, 0x01	; 1
     bea:	df 2e       	mov	r13, r31
     bec:	f0 2d       	mov	r31, r0
     bee:	00 e0       	ldi	r16, 0x00	; 0
     bf0:	10 e0       	ldi	r17, 0x00	; 0
     bf2:	a1 2c       	mov	r10, r1
     bf4:	b1 2c       	mov	r11, r1
     bf6:	18 c0       	rjmp	.+48     	; 0xc28 <read_highscore_list+0x5a>
	for (int i = 0; i < 5 ; i++){
		for(int j = 0 ; j < 3 ; j++){
			highscore_names[i][j] = EEPROM_read(3*i+j);
     bf8:	f6 01       	movw	r30, r12
     bfa:	e0 80       	ld	r14, Z
     bfc:	f1 80       	ldd	r15, Z+1	; 0x01
     bfe:	ec 0e       	add	r14, r28
     c00:	fd 1e       	adc	r15, r29
     c02:	ce 01       	movw	r24, r28
     c04:	80 0f       	add	r24, r16
     c06:	91 1f       	adc	r25, r17
     c08:	0e 94 e0 05 	call	0xbc0	; 0xbc0 <EEPROM_read>
     c0c:	f7 01       	movw	r30, r14
     c0e:	80 83       	st	Z, r24
}
	
	
void read_highscore_list(void){
	for (int i = 0; i < 5 ; i++){
		for(int j = 0 ; j < 3 ; j++){
     c10:	21 96       	adiw	r28, 0x01	; 1
     c12:	c3 30       	cpi	r28, 0x03	; 3
     c14:	d1 05       	cpc	r29, r1
     c16:	81 f7       	brne	.-32     	; 0xbf8 <read_highscore_list+0x2a>
     c18:	f2 e0       	ldi	r31, 0x02	; 2
     c1a:	cf 0e       	add	r12, r31
     c1c:	d1 1c       	adc	r13, r1
     c1e:	0d 5f       	subi	r16, 0xFD	; 253
     c20:	1f 4f       	sbci	r17, 0xFF	; 255
	update_EEPROM();
}
	
	
void read_highscore_list(void){
	for (int i = 0; i < 5 ; i++){
     c22:	0f 30       	cpi	r16, 0x0F	; 15
     c24:	11 05       	cpc	r17, r1
     c26:	19 f0       	breq	.+6      	; 0xc2e <read_highscore_list+0x60>
	highscore_names[place] =  new_name;
	update_EEPROM();
}
	
	
void read_highscore_list(void){
     c28:	ca 2d       	mov	r28, r10
     c2a:	db 2d       	mov	r29, r11
     c2c:	e5 cf       	rjmp	.-54     	; 0xbf8 <read_highscore_list+0x2a>
     c2e:	01 e6       	ldi	r16, 0x61	; 97
     c30:	13 e0       	ldi	r17, 0x03	; 3
	for (int i = 0; i < 5 ; i++){
     c32:	cf e0       	ldi	r28, 0x0F	; 15
     c34:	d0 e0       	ldi	r29, 0x00	; 0
		for(int j = 0 ; j < 3 ; j++){
			highscore_names[i][j] = EEPROM_read(3*i+j);
		}
	}
	for (int i = 0; i < 5 ; i++){
		highscore_scores[i] = EEPROM_read(i+15);
     c36:	ce 01       	movw	r24, r28
     c38:	0e 94 e0 05 	call	0xbc0	; 0xbc0 <EEPROM_read>
     c3c:	90 e0       	ldi	r25, 0x00	; 0
     c3e:	f8 01       	movw	r30, r16
     c40:	81 93       	st	Z+, r24
     c42:	91 93       	st	Z+, r25
     c44:	8f 01       	movw	r16, r30
     c46:	21 96       	adiw	r28, 0x01	; 1
	for (int i = 0; i < 5 ; i++){
		for(int j = 0 ; j < 3 ; j++){
			highscore_names[i][j] = EEPROM_read(3*i+j);
		}
	}
	for (int i = 0; i < 5 ; i++){
     c48:	c4 31       	cpi	r28, 0x14	; 20
     c4a:	d1 05       	cpc	r29, r1
     c4c:	a1 f7       	brne	.-24     	; 0xc36 <read_highscore_list+0x68>
		highscore_scores[i] = EEPROM_read(i+15);
	}
}
     c4e:	df 91       	pop	r29
     c50:	cf 91       	pop	r28
     c52:	1f 91       	pop	r17
     c54:	0f 91       	pop	r16
     c56:	ff 90       	pop	r15
     c58:	ef 90       	pop	r14
     c5a:	df 90       	pop	r13
     c5c:	cf 90       	pop	r12
     c5e:	bf 90       	pop	r11
     c60:	af 90       	pop	r10
     c62:	08 95       	ret

00000c64 <oled_print_highscore>:
#include <avr/io.h>
#include <avr/interrupt.h>
#include "highscore.h"
#include "OLED_driver.h"

void oled_print_highscore(void){
     c64:	cf 92       	push	r12
     c66:	df 92       	push	r13
     c68:	ef 92       	push	r14
     c6a:	ff 92       	push	r15
     c6c:	0f 93       	push	r16
     c6e:	1f 93       	push	r17
     c70:	cf 93       	push	r28
     c72:	df 93       	push	r29
	oled_sram_reset();
     c74:	0e 94 a3 0b 	call	0x1746	; 0x1746 <oled_sram_reset>
	oled_sram_string("HIGHSCORE", 0, 3);
     c78:	43 e0       	ldi	r20, 0x03	; 3
     c7a:	50 e0       	ldi	r21, 0x00	; 0
     c7c:	60 e0       	ldi	r22, 0x00	; 0
     c7e:	70 e0       	ldi	r23, 0x00	; 0
     c80:	85 e8       	ldi	r24, 0x85	; 133
     c82:	92 e0       	ldi	r25, 0x02	; 2
     c84:	0e 94 1f 0c 	call	0x183e	; 0x183e <oled_sram_string>
	read_highscore_list();
     c88:	0e 94 e7 05 	call	0xbce	; 0xbce <read_highscore_list>
     c8c:	0f 2e       	mov	r0, r31
     c8e:	f8 e0       	ldi	r31, 0x08	; 8
     c90:	cf 2e       	mov	r12, r31
     c92:	f1 e0       	ldi	r31, 0x01	; 1
     c94:	df 2e       	mov	r13, r31
     c96:	f0 2d       	mov	r31, r0
     c98:	0f 2e       	mov	r0, r31
     c9a:	f1 e6       	ldi	r31, 0x61	; 97
     c9c:	ef 2e       	mov	r14, r31
     c9e:	f3 e0       	ldi	r31, 0x03	; 3
     ca0:	ff 2e       	mov	r15, r31
     ca2:	f0 2d       	mov	r31, r0
	
	for(int i = 0; i < 5 ; i++){
     ca4:	c0 e0       	ldi	r28, 0x00	; 0
     ca6:	d0 e0       	ldi	r29, 0x00	; 0
     ca8:	8e 01       	movw	r16, r28
     caa:	0e 5f       	subi	r16, 0xFE	; 254
     cac:	1f 4f       	sbci	r17, 0xFF	; 255
		oled_sram_string(highscore_names[i], i+2, 3);
     cae:	43 e0       	ldi	r20, 0x03	; 3
     cb0:	50 e0       	ldi	r21, 0x00	; 0
     cb2:	b8 01       	movw	r22, r16
     cb4:	f6 01       	movw	r30, r12
     cb6:	81 91       	ld	r24, Z+
     cb8:	91 91       	ld	r25, Z+
     cba:	6f 01       	movw	r12, r30
     cbc:	0e 94 1f 0c 	call	0x183e	; 0x183e <oled_sram_string>
		oled_sram_string(int_to_str(i+1),i+2, 0);
     cc0:	21 96       	adiw	r28, 0x01	; 1
     cc2:	ce 01       	movw	r24, r28
     cc4:	0e 94 14 0e 	call	0x1c28	; 0x1c28 <int_to_str>
     cc8:	40 e0       	ldi	r20, 0x00	; 0
     cca:	50 e0       	ldi	r21, 0x00	; 0
     ccc:	b8 01       	movw	r22, r16
     cce:	0e 94 1f 0c 	call	0x183e	; 0x183e <oled_sram_string>
		oled_sram_string(".", i+2, 1);
     cd2:	41 e0       	ldi	r20, 0x01	; 1
     cd4:	50 e0       	ldi	r21, 0x00	; 0
     cd6:	b8 01       	movw	r22, r16
     cd8:	87 ed       	ldi	r24, 0xD7	; 215
     cda:	91 e0       	ldi	r25, 0x01	; 1
     cdc:	0e 94 1f 0c 	call	0x183e	; 0x183e <oled_sram_string>
		oled_sram_string(int_to_str(highscore_scores[i]), i+2, 10);
     ce0:	f7 01       	movw	r30, r14
     ce2:	81 91       	ld	r24, Z+
     ce4:	91 91       	ld	r25, Z+
     ce6:	7f 01       	movw	r14, r30
     ce8:	0e 94 14 0e 	call	0x1c28	; 0x1c28 <int_to_str>
     cec:	4a e0       	ldi	r20, 0x0A	; 10
     cee:	50 e0       	ldi	r21, 0x00	; 0
     cf0:	b8 01       	movw	r22, r16
     cf2:	0e 94 1f 0c 	call	0x183e	; 0x183e <oled_sram_string>
void oled_print_highscore(void){
	oled_sram_reset();
	oled_sram_string("HIGHSCORE", 0, 3);
	read_highscore_list();
	
	for(int i = 0; i < 5 ; i++){
     cf6:	c5 30       	cpi	r28, 0x05	; 5
     cf8:	d1 05       	cpc	r29, r1
     cfa:	b1 f6       	brne	.-84     	; 0xca8 <oled_print_highscore+0x44>
		oled_sram_string(int_to_str(i+1),i+2, 0);
		oled_sram_string(".", i+2, 1);
		oled_sram_string(int_to_str(highscore_scores[i]), i+2, 10);
		
	}
	oled_update();
     cfc:	0e 94 81 0c 	call	0x1902	; 0x1902 <oled_update>
}
     d00:	df 91       	pop	r29
     d02:	cf 91       	pop	r28
     d04:	1f 91       	pop	r17
     d06:	0f 91       	pop	r16
     d08:	ff 90       	pop	r15
     d0a:	ef 90       	pop	r14
     d0c:	df 90       	pop	r13
     d0e:	cf 90       	pop	r12
     d10:	08 95       	ret

00000d12 <reset_highscore_list>:
	/* Return data from data register */
	return EEDR;
	 
}

void reset_highscore_list(){
     d12:	af 92       	push	r10
     d14:	bf 92       	push	r11
     d16:	cf 92       	push	r12
     d18:	df 92       	push	r13
     d1a:	ef 92       	push	r14
     d1c:	ff 92       	push	r15
     d1e:	0f 93       	push	r16
     d20:	1f 93       	push	r17
     d22:	cf 93       	push	r28
     d24:	df 93       	push	r29
     d26:	0f 2e       	mov	r0, r31
     d28:	f8 e0       	ldi	r31, 0x08	; 8
     d2a:	ef 2e       	mov	r14, r31
     d2c:	f1 e0       	ldi	r31, 0x01	; 1
     d2e:	ff 2e       	mov	r15, r31
     d30:	f0 2d       	mov	r31, r0
     d32:	00 e0       	ldi	r16, 0x00	; 0
     d34:	10 e0       	ldi	r17, 0x00	; 0
	for (int i = 0; i < 5 ; i++){
		highscore_names[i] = "---";
     d36:	0f 2e       	mov	r0, r31
     d38:	f5 e5       	ldi	r31, 0x55	; 85
     d3a:	cf 2e       	mov	r12, r31
     d3c:	f3 e0       	ldi	r31, 0x03	; 3
     d3e:	df 2e       	mov	r13, r31
     d40:	f0 2d       	mov	r31, r0
		for(int j = 0 ; j < 3 ; j++){
     d42:	a1 2c       	mov	r10, r1
     d44:	b1 2c       	mov	r11, r1
	 
}

void reset_highscore_list(){
	for (int i = 0; i < 5 ; i++){
		highscore_names[i] = "---";
     d46:	f7 01       	movw	r30, r14
     d48:	c1 92       	st	Z+, r12
     d4a:	d1 92       	st	Z+, r13
     d4c:	7f 01       	movw	r14, r30
		for(int j = 0 ; j < 3 ; j++){
     d4e:	ca 2d       	mov	r28, r10
     d50:	db 2d       	mov	r29, r11
     d52:	b8 01       	movw	r22, r16
     d54:	6c 0f       	add	r22, r28
     d56:	7d 1f       	adc	r23, r29
			EEPROM_write('-', 3*i+j);
     d58:	8d e2       	ldi	r24, 0x2D	; 45
     d5a:	0e 94 30 05 	call	0xa60	; 0xa60 <EEPROM_write>
}

void reset_highscore_list(){
	for (int i = 0; i < 5 ; i++){
		highscore_names[i] = "---";
		for(int j = 0 ; j < 3 ; j++){
     d5e:	21 96       	adiw	r28, 0x01	; 1
     d60:	c3 30       	cpi	r28, 0x03	; 3
     d62:	d1 05       	cpc	r29, r1
     d64:	b1 f7       	brne	.-20     	; 0xd52 <reset_highscore_list+0x40>
     d66:	0d 5f       	subi	r16, 0xFD	; 253
     d68:	1f 4f       	sbci	r17, 0xFF	; 255
	return EEDR;
	 
}

void reset_highscore_list(){
	for (int i = 0; i < 5 ; i++){
     d6a:	0f 30       	cpi	r16, 0x0F	; 15
     d6c:	11 05       	cpc	r17, r1
     d6e:	59 f7       	brne	.-42     	; 0xd46 <reset_highscore_list+0x34>
     d70:	01 e6       	ldi	r16, 0x61	; 97
     d72:	13 e0       	ldi	r17, 0x03	; 3
     d74:	cf e0       	ldi	r28, 0x0F	; 15
     d76:	d0 e0       	ldi	r29, 0x00	; 0
		for(int j = 0 ; j < 3 ; j++){
			EEPROM_write('-', 3*i+j);
		}
	}
	for (int i = 0; i < 5 ; i++){
		EEPROM_write(0, 15+i);
     d78:	be 01       	movw	r22, r28
     d7a:	80 e0       	ldi	r24, 0x00	; 0
     d7c:	0e 94 30 05 	call	0xa60	; 0xa60 <EEPROM_write>
		highscore_scores[i] = 0; 
     d80:	f8 01       	movw	r30, r16
     d82:	11 92       	st	Z+, r1
     d84:	11 92       	st	Z+, r1
     d86:	8f 01       	movw	r16, r30
     d88:	21 96       	adiw	r28, 0x01	; 1
		highscore_names[i] = "---";
		for(int j = 0 ; j < 3 ; j++){
			EEPROM_write('-', 3*i+j);
		}
	}
	for (int i = 0; i < 5 ; i++){
     d8a:	c4 31       	cpi	r28, 0x14	; 20
     d8c:	d1 05       	cpc	r29, r1
     d8e:	a1 f7       	brne	.-24     	; 0xd78 <reset_highscore_list+0x66>
		EEPROM_write(0, 15+i);
		highscore_scores[i] = 0; 
	}
	update_EEPROM();
     d90:	0e 94 3a 05 	call	0xa74	; 0xa74 <update_EEPROM>
     d94:	df 91       	pop	r29
     d96:	cf 91       	pop	r28
     d98:	1f 91       	pop	r17
     d9a:	0f 91       	pop	r16
     d9c:	ff 90       	pop	r15
     d9e:	ef 90       	pop	r14
     da0:	df 90       	pop	r13
     da2:	cf 90       	pop	r12
     da4:	bf 90       	pop	r11
     da6:	af 90       	pop	r10
     da8:	08 95       	ret

00000daa <MCP2515_reset>:
	//set MCP2515 in configuration mode
	MCP2515_reset(); 
}

void MCP2515_reset(void){
	SPI_activate_SS();
     daa:	0e 94 00 0f 	call	0x1e00	; 0x1e00 <SPI_activate_SS>
	SPI_read_write(MCP_RESET);
     dae:	80 ec       	ldi	r24, 0xC0	; 192
     db0:	0e 94 f0 0e 	call	0x1de0	; 0x1de0 <SPI_read_write>
	SPI_deactivate_SS();
     db4:	0e 94 02 0f 	call	0x1e04	; 0x1e04 <SPI_deactivate_SS>
     db8:	08 95       	ret

00000dba <MCP2515_init>:
#include "MCP2515.h"
#include "MCP2515_driver.h"
#include <string.h>

void MCP2515_init(void){
	SPI_init_ps2();
     dba:	0e 94 0a 0f 	call	0x1e14	; 0x1e14 <SPI_init_ps2>
	//set MCP2515 in configuration mode
	MCP2515_reset(); 
     dbe:	0e 94 d5 06 	call	0xdaa	; 0xdaa <MCP2515_reset>
     dc2:	08 95       	ret

00000dc4 <MCP2515_read>:
	SPI_activate_SS();
	SPI_read_write(MCP_RESET);
	SPI_deactivate_SS();
}

uint8_t MCP2515_read(uint8_t address){
     dc4:	cf 93       	push	r28
     dc6:	c8 2f       	mov	r28, r24
	uint8_t data;
	SPI_activate_SS();
     dc8:	0e 94 00 0f 	call	0x1e00	; 0x1e00 <SPI_activate_SS>
	SPI_read_write(MCP_READ);
     dcc:	83 e0       	ldi	r24, 0x03	; 3
     dce:	0e 94 f0 0e 	call	0x1de0	; 0x1de0 <SPI_read_write>
	SPI_read_write(address);
     dd2:	8c 2f       	mov	r24, r28
     dd4:	0e 94 f0 0e 	call	0x1de0	; 0x1de0 <SPI_read_write>
	data = SPI_read_write(0x00);
     dd8:	80 e0       	ldi	r24, 0x00	; 0
     dda:	0e 94 f0 0e 	call	0x1de0	; 0x1de0 <SPI_read_write>
     dde:	c8 2f       	mov	r28, r24
	SPI_deactivate_SS();
     de0:	0e 94 02 0f 	call	0x1e04	; 0x1e04 <SPI_deactivate_SS>
	return data;
}
     de4:	8c 2f       	mov	r24, r28
     de6:	cf 91       	pop	r28
     de8:	08 95       	ret

00000dea <MCP2515_write>:

void MCP2515_write(uint8_t address, char data){
     dea:	cf 93       	push	r28
     dec:	df 93       	push	r29
     dee:	d8 2f       	mov	r29, r24
     df0:	c6 2f       	mov	r28, r22
	SPI_activate_SS();
     df2:	0e 94 00 0f 	call	0x1e00	; 0x1e00 <SPI_activate_SS>
	SPI_read_write(MCP_WRITE);
     df6:	82 e0       	ldi	r24, 0x02	; 2
     df8:	0e 94 f0 0e 	call	0x1de0	; 0x1de0 <SPI_read_write>
	SPI_read_write(address);
     dfc:	8d 2f       	mov	r24, r29
     dfe:	0e 94 f0 0e 	call	0x1de0	; 0x1de0 <SPI_read_write>
	SPI_read_write(data);
     e02:	8c 2f       	mov	r24, r28
     e04:	0e 94 f0 0e 	call	0x1de0	; 0x1de0 <SPI_read_write>
	SPI_deactivate_SS();
     e08:	0e 94 02 0f 	call	0x1e04	; 0x1e04 <SPI_deactivate_SS>
}
     e0c:	df 91       	pop	r29
     e0e:	cf 91       	pop	r28
     e10:	08 95       	ret

00000e12 <MCP2515_request_to_send>:

 void MCP2515_request_to_send(uint8_t command){
     e12:	cf 93       	push	r28
     e14:	c8 2f       	mov	r28, r24
	SPI_activate_SS();
     e16:	0e 94 00 0f 	call	0x1e00	; 0x1e00 <SPI_activate_SS>
	if (command <= 7){
     e1a:	c8 30       	cpi	r28, 0x08	; 8
     e1c:	28 f4       	brcc	.+10     	; 0xe28 <MCP2515_request_to_send+0x16>
		SPI_read_write(MCP_RTS | command);
     e1e:	8c 2f       	mov	r24, r28
     e20:	80 68       	ori	r24, 0x80	; 128
     e22:	0e 94 f0 0e 	call	0x1de0	; 0x1de0 <SPI_read_write>
     e26:	03 c0       	rjmp	.+6      	; 0xe2e <MCP2515_request_to_send+0x1c>
	}
	else{
		SPI_read_write(MCP_RTS);
     e28:	80 e8       	ldi	r24, 0x80	; 128
     e2a:	0e 94 f0 0e 	call	0x1de0	; 0x1de0 <SPI_read_write>
	}
	SPI_deactivate_SS();
     e2e:	0e 94 02 0f 	call	0x1e04	; 0x1e04 <SPI_deactivate_SS>
}
     e32:	cf 91       	pop	r28
     e34:	08 95       	ret

00000e36 <MCP2515_bit_modify>:
	SPI_deactivate_SS();	
	return status;
}


void MCP2515_bit_modify(uint8_t address, uint8_t mask_byte, uint8_t data_byte){
     e36:	1f 93       	push	r17
     e38:	cf 93       	push	r28
     e3a:	df 93       	push	r29
     e3c:	18 2f       	mov	r17, r24
     e3e:	d6 2f       	mov	r29, r22
     e40:	c4 2f       	mov	r28, r20
	SPI_activate_SS();
     e42:	0e 94 00 0f 	call	0x1e00	; 0x1e00 <SPI_activate_SS>
	SPI_read_write(MCP_BITMOD);
     e46:	85 e0       	ldi	r24, 0x05	; 5
     e48:	0e 94 f0 0e 	call	0x1de0	; 0x1de0 <SPI_read_write>
	SPI_read_write(address);
     e4c:	81 2f       	mov	r24, r17
     e4e:	0e 94 f0 0e 	call	0x1de0	; 0x1de0 <SPI_read_write>
	SPI_read_write(mask_byte);
     e52:	8d 2f       	mov	r24, r29
     e54:	0e 94 f0 0e 	call	0x1de0	; 0x1de0 <SPI_read_write>
	SPI_read_write(data_byte);
     e58:	8c 2f       	mov	r24, r28
     e5a:	0e 94 f0 0e 	call	0x1de0	; 0x1de0 <SPI_read_write>
	SPI_deactivate_SS();
     e5e:	0e 94 02 0f 	call	0x1e04	; 0x1e04 <SPI_deactivate_SS>
     e62:	df 91       	pop	r29
     e64:	cf 91       	pop	r28
     e66:	1f 91       	pop	r17
     e68:	08 95       	ret

00000e6a <UART_transmit>:

int UART_transmit(unsigned char data, FILE *stream){
	
	//Wait for empty transmit buffer
	
	while( !( UCSR0A & (1<<UDRE0)) );
     e6a:	5d 9b       	sbis	0x0b, 5	; 11
     e6c:	fe cf       	rjmp	.-4      	; 0xe6a <UART_transmit>
 
	//Put data into buffer, sends the data
 
	UDR0 = data;
     e6e:	8c b9       	out	0x0c, r24	; 12
	return 0; 
}
     e70:	80 e0       	ldi	r24, 0x00	; 0
     e72:	90 e0       	ldi	r25, 0x00	; 0
     e74:	08 95       	ret

00000e76 <UART_receive>:

unsigned char UART_receive(){

	//Wait for data to be received

	while( !(UCSR0A & (1<<RXC0)) );
     e76:	5f 9b       	sbis	0x0b, 7	; 11
     e78:	fe cf       	rjmp	.-4      	; 0xe76 <UART_receive>
 
	//Get and return received data from buffer
 
	return UDR0;
     e7a:	8c b1       	in	r24, 0x0c	; 12
}
     e7c:	08 95       	ret

00000e7e <UART_init>:

int UART_init(unsigned int ubrr ){
/* 
Set baud rate
 */
	UBRR0L = ubrr;
     e7e:	89 b9       	out	0x09, r24	; 9

/* 
Enable receiver and transmitter
 */
	UCSR0B =(1<<RXEN0)|(1<<TXEN0);
     e80:	88 e1       	ldi	r24, 0x18	; 24
     e82:	8a b9       	out	0x0a, r24	; 10
	
	uart = fdevopen(&UART_transmit, &UART_receive);
     e84:	6b e3       	ldi	r22, 0x3B	; 59
     e86:	77 e0       	ldi	r23, 0x07	; 7
     e88:	85 e3       	ldi	r24, 0x35	; 53
     e8a:	97 e0       	ldi	r25, 0x07	; 7
     e8c:	0e 94 09 11 	call	0x2212	; 0x2212 <fdevopen>
     e90:	90 93 9f 03 	sts	0x039F, r25
     e94:	80 93 9e 03 	sts	0x039E, r24
	
	return 0; 
}
     e98:	80 e0       	ldi	r24, 0x00	; 0
     e9a:	90 e0       	ldi	r25, 0x00	; 0
     e9c:	08 95       	ret

00000e9e <joystick_read>:



int joystick_read(int channel){
	//Return 0-255
	return ADC_read(channel);
     e9e:	0e 94 e7 01 	call	0x3ce	; 0x3ce <ADC_read>
}
     ea2:	90 e0       	ldi	r25, 0x00	; 0
     ea4:	08 95       	ret

00000ea6 <slider_read>:


int slider_read(int channel){
	//Return 0-255
	return ADC_read(channel);
     ea6:	0e 94 e7 01 	call	0x3ce	; 0x3ce <ADC_read>
}
     eaa:	90 e0       	ldi	r25, 0x00	; 0
     eac:	08 95       	ret

00000eae <button_read>:
	/*
	Left button = 1
	Right button = 2
	*/
	
	if (button == 1){
     eae:	81 30       	cpi	r24, 0x01	; 1
     eb0:	91 05       	cpc	r25, r1
     eb2:	29 f4       	brne	.+10     	; 0xebe <button_read+0x10>
		return (test_bit(PINB, PINB1)/2);		//returns 2??
     eb4:	86 b3       	in	r24, 0x16	; 22
     eb6:	86 95       	lsr	r24
     eb8:	81 70       	andi	r24, 0x01	; 1
     eba:	90 e0       	ldi	r25, 0x00	; 0
     ebc:	08 95       	ret
	}else if(button == 2){
     ebe:	02 97       	sbiw	r24, 0x02	; 2
     ec0:	21 f4       	brne	.+8      	; 0xeca <button_read+0x1c>
		return test_bit(PINB, PINB0);
     ec2:	86 b3       	in	r24, 0x16	; 22
     ec4:	81 70       	andi	r24, 0x01	; 1
     ec6:	90 e0       	ldi	r25, 0x00	; 0
     ec8:	08 95       	ret
	}
	return -1;
     eca:	8f ef       	ldi	r24, 0xFF	; 255
     ecc:	9f ef       	ldi	r25, 0xFF	; 255
}
     ece:	08 95       	ret

00000ed0 <find_joystick_dir>:

joystick_dir find_joystick_dir(void){
     ed0:	cf 93       	push	r28



int joystick_read(int channel){
	//Return 0-255
	return ADC_read(channel);
     ed2:	85 e0       	ldi	r24, 0x05	; 5
     ed4:	0e 94 e7 01 	call	0x3ce	; 0x3ce <ADC_read>
     ed8:	c8 2f       	mov	r28, r24
     eda:	84 e0       	ldi	r24, 0x04	; 4
     edc:	0e 94 e7 01 	call	0x3ce	; 0x3ce <ADC_read>
     ee0:	28 2f       	mov	r18, r24
     ee2:	30 e0       	ldi	r19, 0x00	; 0

joystick_dir find_joystick_dir(void){
	int joystick_x = joystick_read(CHANNEL_X);
	int joystick_y = joystick_read(CHANNEL_Y);
	
	if (joystick_y > 150){
     ee4:	27 39       	cpi	r18, 0x97	; 151
     ee6:	31 05       	cpc	r19, r1
     ee8:	6c f4       	brge	.+26     	; 0xf04 <find_joystick_dir+0x34>
		return UP;
	}
	else if (joystick_y < 110){
     eea:	2e 36       	cpi	r18, 0x6E	; 110
     eec:	31 05       	cpc	r19, r1
     eee:	64 f0       	brlt	.+24     	; 0xf08 <find_joystick_dir+0x38>



int joystick_read(int channel){
	//Return 0-255
	return ADC_read(channel);
     ef0:	8c 2f       	mov	r24, r28
     ef2:	90 e0       	ldi	r25, 0x00	; 0
		return UP;
	}
	else if (joystick_y < 110){
		return DOWN;
	}
	else if(joystick_x > 150){
     ef4:	87 39       	cpi	r24, 0x97	; 151
     ef6:	91 05       	cpc	r25, r1
     ef8:	4c f4       	brge	.+18     	; 0xf0c <find_joystick_dir+0x3c>
		return RIGHT;
	}
	else if(joystick_x < 110){
     efa:	8e 36       	cpi	r24, 0x6E	; 110
     efc:	91 05       	cpc	r25, r1
     efe:	44 f4       	brge	.+16     	; 0xf10 <find_joystick_dir+0x40>
		return LEFT;
     f00:	83 e0       	ldi	r24, 0x03	; 3
     f02:	07 c0       	rjmp	.+14     	; 0xf12 <find_joystick_dir+0x42>
joystick_dir find_joystick_dir(void){
	int joystick_x = joystick_read(CHANNEL_X);
	int joystick_y = joystick_read(CHANNEL_Y);
	
	if (joystick_y > 150){
		return UP;
     f04:	80 e0       	ldi	r24, 0x00	; 0
     f06:	05 c0       	rjmp	.+10     	; 0xf12 <find_joystick_dir+0x42>
	}
	else if (joystick_y < 110){
		return DOWN;
     f08:	81 e0       	ldi	r24, 0x01	; 1
     f0a:	03 c0       	rjmp	.+6      	; 0xf12 <find_joystick_dir+0x42>
	}
	else if(joystick_x > 150){
		return RIGHT;
     f0c:	82 e0       	ldi	r24, 0x02	; 2
     f0e:	01 c0       	rjmp	.+2      	; 0xf12 <find_joystick_dir+0x42>
	}
	else if(joystick_x < 110){
		return LEFT;
	}
	return CENTER;
     f10:	84 e0       	ldi	r24, 0x04	; 4
}
     f12:	cf 91       	pop	r28
     f14:	08 95       	ret

00000f16 <menu_sram_update>:
}




void menu_sram_update(menu* menu_node, int selector_pos){
     f16:	ef 92       	push	r14
     f18:	ff 92       	push	r15
     f1a:	0f 93       	push	r16
     f1c:	1f 93       	push	r17
     f1e:	cf 93       	push	r28
     f20:	df 93       	push	r29
     f22:	8c 01       	movw	r16, r24
     f24:	7b 01       	movw	r14, r22
	int col = 0; 
	int page = 0; 
	oled_sram_reset();
     f26:	0e 94 a3 0b 	call	0x1746	; 0x1746 <oled_sram_reset>
	
	menu* current = menu_node->child;
     f2a:	f8 01       	movw	r30, r16
     f2c:	c6 81       	ldd	r28, Z+6	; 0x06
     f2e:	d7 81       	ldd	r29, Z+7	; 0x07
	
	oled_sram_string(menu_node->name, page, col);
     f30:	40 e0       	ldi	r20, 0x00	; 0
     f32:	50 e0       	ldi	r21, 0x00	; 0
     f34:	60 e0       	ldi	r22, 0x00	; 0
     f36:	70 e0       	ldi	r23, 0x00	; 0
     f38:	80 81       	ld	r24, Z
     f3a:	91 81       	ldd	r25, Z+1	; 0x01
     f3c:	0e 94 1f 0c 	call	0x183e	; 0x183e <oled_sram_string>
	oled_sram_string("----------------", page+1, col);
     f40:	40 e0       	ldi	r20, 0x00	; 0
     f42:	50 e0       	ldi	r21, 0x00	; 0
     f44:	61 e0       	ldi	r22, 0x01	; 1
     f46:	70 e0       	ldi	r23, 0x00	; 0
     f48:	88 e4       	ldi	r24, 0x48	; 72
     f4a:	93 e0       	ldi	r25, 0x03	; 3
     f4c:	0e 94 1f 0c 	call	0x183e	; 0x183e <oled_sram_string>
	
	
	page = 2;
	col = 2;
	while(current != NULL){
     f50:	20 97       	sbiw	r28, 0x00	; 0
     f52:	81 f0       	breq	.+32     	; 0xf74 <menu_sram_update+0x5e>
	
	oled_sram_string(menu_node->name, page, col);
	oled_sram_string("----------------", page+1, col);
	
	
	page = 2;
     f54:	02 e0       	ldi	r16, 0x02	; 2
     f56:	10 e0       	ldi	r17, 0x00	; 0
	col = 2;
	while(current != NULL){
		oled_sram_string(current->name, page, col);
     f58:	42 e0       	ldi	r20, 0x02	; 2
     f5a:	50 e0       	ldi	r21, 0x00	; 0
     f5c:	b8 01       	movw	r22, r16
     f5e:	88 81       	ld	r24, Y
     f60:	99 81       	ldd	r25, Y+1	; 0x01
     f62:	0e 94 1f 0c 	call	0x183e	; 0x183e <oled_sram_string>
		current = current->next_sibling;
     f66:	0a 80       	ldd	r0, Y+2	; 0x02
     f68:	db 81       	ldd	r29, Y+3	; 0x03
     f6a:	c0 2d       	mov	r28, r0
		page++;
     f6c:	0f 5f       	subi	r16, 0xFF	; 255
     f6e:	1f 4f       	sbci	r17, 0xFF	; 255
	oled_sram_string("----------------", page+1, col);
	
	
	page = 2;
	col = 2;
	while(current != NULL){
     f70:	20 97       	sbiw	r28, 0x00	; 0
     f72:	91 f7       	brne	.-28     	; 0xf58 <menu_sram_update+0x42>
		oled_sram_string(current->name, page, col);
		current = current->next_sibling;
		page++;
	}
	oled_sram_char('*', selector_pos+1, 0);
     f74:	b7 01       	movw	r22, r14
     f76:	6f 5f       	subi	r22, 0xFF	; 255
     f78:	7f 4f       	sbci	r23, 0xFF	; 255
     f7a:	40 e0       	ldi	r20, 0x00	; 0
     f7c:	50 e0       	ldi	r21, 0x00	; 0
     f7e:	8a e2       	ldi	r24, 0x2A	; 42
     f80:	0e 94 63 0c 	call	0x18c6	; 0x18c6 <oled_sram_char>
	
}
     f84:	df 91       	pop	r29
     f86:	cf 91       	pop	r28
     f88:	1f 91       	pop	r17
     f8a:	0f 91       	pop	r16
     f8c:	ff 90       	pop	r15
     f8e:	ef 90       	pop	r14
     f90:	08 95       	ret

00000f92 <create_menu>:


menu* create_menu(char* new_name){
     f92:	cf 93       	push	r28
     f94:	df 93       	push	r29
     f96:	ec 01       	movw	r28, r24
	menu* new_menu = (menu*)malloc(sizeof(menu));
     f98:	8c e0       	ldi	r24, 0x0C	; 12
     f9a:	90 e0       	ldi	r25, 0x00	; 0
     f9c:	0e 94 b4 0f 	call	0x1f68	; 0x1f68 <malloc>
     fa0:	fc 01       	movw	r30, r24
	
	if(new_menu == NULL){
     fa2:	00 97       	sbiw	r24, 0x00	; 0
     fa4:	41 f4       	brne	.+16     	; 0xfb6 <create_menu+0x24>
		printf("Out of mem\n");
     fa6:	8d ed       	ldi	r24, 0xDD	; 221
     fa8:	91 e0       	ldi	r25, 0x01	; 1
     faa:	0e 94 6f 11 	call	0x22de	; 0x22de <puts>
		exit(1);
     fae:	81 e0       	ldi	r24, 0x01	; 1
     fb0:	90 e0       	ldi	r25, 0x00	; 0
     fb2:	0e 94 7e 14 	call	0x28fc	; 0x28fc <_exit>
	}
	
	new_menu->name = new_name;
     fb6:	d1 83       	std	Z+1, r29	; 0x01
     fb8:	c0 83       	st	Z, r28
	new_menu->next_sibling = NULL;
     fba:	13 82       	std	Z+3, r1	; 0x03
     fbc:	12 82       	std	Z+2, r1	; 0x02
	new_menu->prev_sibling = NULL;
     fbe:	15 82       	std	Z+5, r1	; 0x05
     fc0:	14 82       	std	Z+4, r1	; 0x04
	new_menu->parent = NULL;
     fc2:	11 86       	std	Z+9, r1	; 0x09
     fc4:	10 86       	std	Z+8, r1	; 0x08
	new_menu->child = NULL;
     fc6:	17 82       	std	Z+7, r1	; 0x07
     fc8:	16 82       	std	Z+6, r1	; 0x06
	new_menu->number_of_childs = 0;
     fca:	13 86       	std	Z+11, r1	; 0x0b
     fcc:	12 86       	std	Z+10, r1	; 0x0a
	
	return new_menu;
}
     fce:	df 91       	pop	r29
     fd0:	cf 91       	pop	r28
     fd2:	08 95       	ret

00000fd4 <create_submenu>:

menu* create_submenu(menu* parent_menu, menu* child_menu){ //tar inn liste av submenu struct
	if (parent_menu->child == NULL){
     fd4:	dc 01       	movw	r26, r24
     fd6:	16 96       	adiw	r26, 0x06	; 6
     fd8:	ed 91       	ld	r30, X+
     fda:	fc 91       	ld	r31, X
     fdc:	17 97       	sbiw	r26, 0x07	; 7
     fde:	30 97       	sbiw	r30, 0x00	; 0
     fe0:	29 f4       	brne	.+10     	; 0xfec <create_submenu+0x18>
		//make new child
		parent_menu->child = child_menu;
     fe2:	17 96       	adiw	r26, 0x07	; 7
     fe4:	7c 93       	st	X, r23
     fe6:	6e 93       	st	-X, r22
     fe8:	16 97       	sbiw	r26, 0x06	; 6
     fea:	0e c0       	rjmp	.+28     	; 0x1008 <create_submenu+0x34>
	}
	
	else{
		//make new sibling
		menu* current = parent_menu->child;
		while (current->next_sibling != NULL){
     fec:	22 81       	ldd	r18, Z+2	; 0x02
     fee:	33 81       	ldd	r19, Z+3	; 0x03
     ff0:	21 15       	cp	r18, r1
     ff2:	31 05       	cpc	r19, r1
     ff4:	11 f0       	breq	.+4      	; 0xffa <create_submenu+0x26>
			current = current->next_sibling;
     ff6:	f9 01       	movw	r30, r18
     ff8:	f9 cf       	rjmp	.-14     	; 0xfec <create_submenu+0x18>
		}
		
		current->next_sibling =child_menu;
     ffa:	73 83       	std	Z+3, r23	; 0x03
     ffc:	62 83       	std	Z+2, r22	; 0x02
		child_menu->prev_sibling =current;
     ffe:	db 01       	movw	r26, r22
    1000:	15 96       	adiw	r26, 0x05	; 5
    1002:	fc 93       	st	X, r31
    1004:	ee 93       	st	-X, r30
    1006:	14 97       	sbiw	r26, 0x04	; 4
		
	}
	parent_menu->number_of_childs++;
    1008:	fc 01       	movw	r30, r24
    100a:	22 85       	ldd	r18, Z+10	; 0x0a
    100c:	33 85       	ldd	r19, Z+11	; 0x0b
    100e:	2f 5f       	subi	r18, 0xFF	; 255
    1010:	3f 4f       	sbci	r19, 0xFF	; 255
    1012:	33 87       	std	Z+11, r19	; 0x0b
    1014:	22 87       	std	Z+10, r18	; 0x0a
	child_menu->parent = parent_menu;
    1016:	db 01       	movw	r26, r22
    1018:	19 96       	adiw	r26, 0x09	; 9
    101a:	9c 93       	st	X, r25
    101c:	8e 93       	st	-X, r24
    101e:	18 97       	sbiw	r26, 0x08	; 8
	
	return parent_menu;
}
    1020:	08 95       	ret

00001022 <menu_setup>:


extern states current_state; 


void menu_setup(void){
    1022:	2f 92       	push	r2
    1024:	3f 92       	push	r3
    1026:	4f 92       	push	r4
    1028:	5f 92       	push	r5
    102a:	6f 92       	push	r6
    102c:	7f 92       	push	r7
    102e:	8f 92       	push	r8
    1030:	9f 92       	push	r9
    1032:	af 92       	push	r10
    1034:	bf 92       	push	r11
    1036:	cf 92       	push	r12
    1038:	df 92       	push	r13
    103a:	ef 92       	push	r14
    103c:	ff 92       	push	r15
    103e:	0f 93       	push	r16
    1040:	1f 93       	push	r17
    1042:	cf 93       	push	r28
    1044:	df 93       	push	r29
    1046:	cd b7       	in	r28, 0x3d	; 61
    1048:	de b7       	in	r29, 0x3e	; 62
    104a:	2e 97       	sbiw	r28, 0x0e	; 14
    104c:	0f b6       	in	r0, 0x3f	; 63
    104e:	f8 94       	cli
    1050:	de bf       	out	0x3e, r29	; 62
    1052:	0f be       	out	0x3f, r0	; 63
    1054:	cd bf       	out	0x3d, r28	; 61
	menu* menu_front_page = create_menu("PingPongShow");
    1056:	88 ee       	ldi	r24, 0xE8	; 232
    1058:	91 e0       	ldi	r25, 0x01	; 1
    105a:	0e 94 c9 07 	call	0xf92	; 0xf92 <create_menu>
    105e:	5c 01       	movw	r10, r24
	display_menu = menu_front_page;
    1060:	90 93 a1 03 	sts	0x03A1, r25
    1064:	80 93 a0 03 	sts	0x03A0, r24

	menu* play = create_menu("Start new game");
    1068:	85 ef       	ldi	r24, 0xF5	; 245
    106a:	91 e0       	ldi	r25, 0x01	; 1
    106c:	0e 94 c9 07 	call	0xf92	; 0xf92 <create_menu>
    1070:	6c 01       	movw	r12, r24
	menu* highscore_menu = create_menu("Highscore");
    1072:	84 e0       	ldi	r24, 0x04	; 4
    1074:	92 e0       	ldi	r25, 0x02	; 2
    1076:	0e 94 c9 07 	call	0xf92	; 0xf92 <create_menu>
    107a:	7c 01       	movw	r14, r24
	menu* play_usb = create_menu("Control: USB");
    107c:	8e e0       	ldi	r24, 0x0E	; 14
    107e:	92 e0       	ldi	r25, 0x02	; 2
    1080:	0e 94 c9 07 	call	0xf92	; 0xf92 <create_menu>
    1084:	8c 01       	movw	r16, r24
	menu* play_ps2 = create_menu("Control: PS2");
    1086:	8b e1       	ldi	r24, 0x1B	; 27
    1088:	92 e0       	ldi	r25, 0x02	; 2
    108a:	0e 94 c9 07 	call	0xf92	; 0xf92 <create_menu>
    108e:	9e 87       	std	Y+14, r25	; 0x0e
    1090:	8d 87       	std	Y+13, r24	; 0x0d
	menu* usb_easy = create_menu("Easy");
    1092:	88 e2       	ldi	r24, 0x28	; 40
    1094:	92 e0       	ldi	r25, 0x02	; 2
    1096:	0e 94 c9 07 	call	0xf92	; 0xf92 <create_menu>
    109a:	3c 01       	movw	r6, r24
	menu* usb_medium = create_menu("Medium");
    109c:	8d e2       	ldi	r24, 0x2D	; 45
    109e:	92 e0       	ldi	r25, 0x02	; 2
    10a0:	0e 94 c9 07 	call	0xf92	; 0xf92 <create_menu>
    10a4:	2c 01       	movw	r4, r24
	menu* usb_hard = create_menu("Hard");
    10a6:	84 e3       	ldi	r24, 0x34	; 52
    10a8:	92 e0       	ldi	r25, 0x02	; 2
    10aa:	0e 94 c9 07 	call	0xf92	; 0xf92 <create_menu>
    10ae:	1c 01       	movw	r2, r24
	menu* ps2_easy = create_menu("Easy");
    10b0:	88 e2       	ldi	r24, 0x28	; 40
    10b2:	92 e0       	ldi	r25, 0x02	; 2
    10b4:	0e 94 c9 07 	call	0xf92	; 0xf92 <create_menu>
    10b8:	9a 83       	std	Y+2, r25	; 0x02
    10ba:	89 83       	std	Y+1, r24	; 0x01
	menu* ps2_medium = create_menu("Medium");
    10bc:	8d e2       	ldi	r24, 0x2D	; 45
    10be:	92 e0       	ldi	r25, 0x02	; 2
    10c0:	0e 94 c9 07 	call	0xf92	; 0xf92 <create_menu>
    10c4:	9c 83       	std	Y+4, r25	; 0x04
    10c6:	8b 83       	std	Y+3, r24	; 0x03
	menu* ps2_hard = create_menu("Hard");
    10c8:	84 e3       	ldi	r24, 0x34	; 52
    10ca:	92 e0       	ldi	r25, 0x02	; 2
    10cc:	0e 94 c9 07 	call	0xf92	; 0xf92 <create_menu>
    10d0:	9e 83       	std	Y+6, r25	; 0x06
    10d2:	8d 83       	std	Y+5, r24	; 0x05
	menu* highscore_view = create_menu("View");
    10d4:	89 e3       	ldi	r24, 0x39	; 57
    10d6:	92 e0       	ldi	r25, 0x02	; 2
    10d8:	0e 94 c9 07 	call	0xf92	; 0xf92 <create_menu>
    10dc:	98 87       	std	Y+8, r25	; 0x08
    10de:	8f 83       	std	Y+7, r24	; 0x07
	menu* highscore_reset = create_menu("Reset");
    10e0:	8e e3       	ldi	r24, 0x3E	; 62
    10e2:	92 e0       	ldi	r25, 0x02	; 2
    10e4:	0e 94 c9 07 	call	0xf92	; 0xf92 <create_menu>
    10e8:	4c 01       	movw	r8, r24
	menu* reset_yes = create_menu("YES");
    10ea:	84 e4       	ldi	r24, 0x44	; 68
    10ec:	92 e0       	ldi	r25, 0x02	; 2
    10ee:	0e 94 c9 07 	call	0xf92	; 0xf92 <create_menu>
    10f2:	9a 87       	std	Y+10, r25	; 0x0a
    10f4:	89 87       	std	Y+9, r24	; 0x09
	menu* reset_no = create_menu("NO");
    10f6:	88 e4       	ldi	r24, 0x48	; 72
    10f8:	92 e0       	ldi	r25, 0x02	; 2
    10fa:	0e 94 c9 07 	call	0xf92	; 0xf92 <create_menu>
    10fe:	9c 87       	std	Y+12, r25	; 0x0c
    1100:	8b 87       	std	Y+11, r24	; 0x0b
	
	create_submenu(menu_front_page, play);
    1102:	b6 01       	movw	r22, r12
    1104:	c5 01       	movw	r24, r10
    1106:	0e 94 ea 07 	call	0xfd4	; 0xfd4 <create_submenu>
	create_submenu(menu_front_page, highscore_menu);
    110a:	b7 01       	movw	r22, r14
    110c:	c5 01       	movw	r24, r10
    110e:	0e 94 ea 07 	call	0xfd4	; 0xfd4 <create_submenu>
	create_submenu(play, play_usb);
    1112:	b8 01       	movw	r22, r16
    1114:	c6 01       	movw	r24, r12
    1116:	0e 94 ea 07 	call	0xfd4	; 0xfd4 <create_submenu>
	create_submenu(play, play_ps2);
    111a:	6d 85       	ldd	r22, Y+13	; 0x0d
    111c:	7e 85       	ldd	r23, Y+14	; 0x0e
    111e:	c6 01       	movw	r24, r12
    1120:	0e 94 ea 07 	call	0xfd4	; 0xfd4 <create_submenu>
	create_submenu(play_usb, usb_easy);
    1124:	b3 01       	movw	r22, r6
    1126:	c8 01       	movw	r24, r16
    1128:	0e 94 ea 07 	call	0xfd4	; 0xfd4 <create_submenu>
	create_submenu(play_usb, usb_medium);
    112c:	b2 01       	movw	r22, r4
    112e:	c8 01       	movw	r24, r16
    1130:	0e 94 ea 07 	call	0xfd4	; 0xfd4 <create_submenu>
	create_submenu(play_usb, usb_hard);
    1134:	b1 01       	movw	r22, r2
    1136:	c8 01       	movw	r24, r16
    1138:	0e 94 ea 07 	call	0xfd4	; 0xfd4 <create_submenu>
	create_submenu(play_ps2, ps2_easy);
    113c:	69 81       	ldd	r22, Y+1	; 0x01
    113e:	7a 81       	ldd	r23, Y+2	; 0x02
    1140:	8d 85       	ldd	r24, Y+13	; 0x0d
    1142:	9e 85       	ldd	r25, Y+14	; 0x0e
    1144:	0e 94 ea 07 	call	0xfd4	; 0xfd4 <create_submenu>
	create_submenu(play_ps2, ps2_medium);
    1148:	6b 81       	ldd	r22, Y+3	; 0x03
    114a:	7c 81       	ldd	r23, Y+4	; 0x04
    114c:	8d 85       	ldd	r24, Y+13	; 0x0d
    114e:	9e 85       	ldd	r25, Y+14	; 0x0e
    1150:	0e 94 ea 07 	call	0xfd4	; 0xfd4 <create_submenu>
	create_submenu(play_ps2, ps2_hard);
    1154:	6d 81       	ldd	r22, Y+5	; 0x05
    1156:	7e 81       	ldd	r23, Y+6	; 0x06
    1158:	8d 85       	ldd	r24, Y+13	; 0x0d
    115a:	9e 85       	ldd	r25, Y+14	; 0x0e
    115c:	0e 94 ea 07 	call	0xfd4	; 0xfd4 <create_submenu>
	create_submenu(highscore_menu, highscore_view);
    1160:	6f 81       	ldd	r22, Y+7	; 0x07
    1162:	78 85       	ldd	r23, Y+8	; 0x08
    1164:	c7 01       	movw	r24, r14
    1166:	0e 94 ea 07 	call	0xfd4	; 0xfd4 <create_submenu>
	create_submenu(highscore_menu, highscore_reset);
    116a:	b4 01       	movw	r22, r8
    116c:	c7 01       	movw	r24, r14
    116e:	0e 94 ea 07 	call	0xfd4	; 0xfd4 <create_submenu>
	create_submenu(highscore_reset, reset_yes);
    1172:	69 85       	ldd	r22, Y+9	; 0x09
    1174:	7a 85       	ldd	r23, Y+10	; 0x0a
    1176:	c4 01       	movw	r24, r8
    1178:	0e 94 ea 07 	call	0xfd4	; 0xfd4 <create_submenu>
	create_submenu(highscore_reset, reset_no);
    117c:	6b 85       	ldd	r22, Y+11	; 0x0b
    117e:	7c 85       	ldd	r23, Y+12	; 0x0c
    1180:	c4 01       	movw	r24, r8
    1182:	0e 94 ea 07 	call	0xfd4	; 0xfd4 <create_submenu>
	
	oled_reset();
    1186:	0e 94 e3 0b 	call	0x17c6	; 0x17c6 <oled_reset>
	menu_sram_update(display_menu, current_page);
    118a:	60 91 13 01 	lds	r22, 0x0113
    118e:	70 91 14 01 	lds	r23, 0x0114
    1192:	80 91 a0 03 	lds	r24, 0x03A0
    1196:	90 91 a1 03 	lds	r25, 0x03A1
    119a:	0e 94 8b 07 	call	0xf16	; 0xf16 <menu_sram_update>
	oled_update();
    119e:	0e 94 81 0c 	call	0x1902	; 0x1902 <oled_update>
	current_menu = display_menu->child;
    11a2:	e0 91 a0 03 	lds	r30, 0x03A0
    11a6:	f0 91 a1 03 	lds	r31, 0x03A1
    11aa:	86 81       	ldd	r24, Z+6	; 0x06
    11ac:	97 81       	ldd	r25, Z+7	; 0x07
    11ae:	90 93 6e 03 	sts	0x036E, r25
    11b2:	80 93 6d 03 	sts	0x036D, r24
}
    11b6:	2e 96       	adiw	r28, 0x0e	; 14
    11b8:	0f b6       	in	r0, 0x3f	; 63
    11ba:	f8 94       	cli
    11bc:	de bf       	out	0x3e, r29	; 62
    11be:	0f be       	out	0x3f, r0	; 63
    11c0:	cd bf       	out	0x3d, r28	; 61
    11c2:	df 91       	pop	r29
    11c4:	cf 91       	pop	r28
    11c6:	1f 91       	pop	r17
    11c8:	0f 91       	pop	r16
    11ca:	ff 90       	pop	r15
    11cc:	ef 90       	pop	r14
    11ce:	df 90       	pop	r13
    11d0:	cf 90       	pop	r12
    11d2:	bf 90       	pop	r11
    11d4:	af 90       	pop	r10
    11d6:	9f 90       	pop	r9
    11d8:	8f 90       	pop	r8
    11da:	7f 90       	pop	r7
    11dc:	6f 90       	pop	r6
    11de:	5f 90       	pop	r5
    11e0:	4f 90       	pop	r4
    11e2:	3f 90       	pop	r3
    11e4:	2f 90       	pop	r2
    11e6:	08 95       	ret

000011e8 <main_menu>:
	oled_goto_page(page);
	oled_print_string("*");
}


void main_menu(void){
    11e8:	af 92       	push	r10
    11ea:	bf 92       	push	r11
    11ec:	cf 92       	push	r12
    11ee:	df 92       	push	r13
    11f0:	ef 92       	push	r14
    11f2:	ff 92       	push	r15
    11f4:	0f 93       	push	r16
    11f6:	1f 93       	push	r17
    11f8:	cf 93       	push	r28
    11fa:	df 93       	push	r29
	
	int end_menu = 0; 
	joystick_dir joy_dir = find_joystick_dir();
    11fc:	0e 94 68 07 	call	0xed0	; 0xed0 <find_joystick_dir>
    1200:	c8 2f       	mov	r28, r24
	printf("%d\n", joy_dir);
    1202:	1f 92       	push	r1
    1204:	8f 93       	push	r24
    1206:	25 eb       	ldi	r18, 0xB5	; 181
    1208:	31 e0       	ldi	r19, 0x01	; 1
    120a:	3f 93       	push	r19
    120c:	2f 93       	push	r18
    120e:	0e 94 54 11 	call	0x22a8	; 0x22a8 <printf>
	if(joy_dir != last_joy_dir){
    1212:	0f 90       	pop	r0
    1214:	0f 90       	pop	r0
    1216:	0f 90       	pop	r0
    1218:	0f 90       	pop	r0
    121a:	80 91 12 01 	lds	r24, 0x0112
    121e:	c8 17       	cp	r28, r24
    1220:	09 f4       	brne	.+2      	; 0x1224 <main_menu+0x3c>
    1222:	00 c2       	rjmp	.+1024   	; 0x1624 <main_menu+0x43c>
		switch(joy_dir){
    1224:	c1 30       	cpi	r28, 0x01	; 1
    1226:	61 f1       	breq	.+88     	; 0x1280 <main_menu+0x98>
    1228:	38 f0       	brcs	.+14     	; 0x1238 <main_menu+0x50>
    122a:	c2 30       	cpi	r28, 0x02	; 2
    122c:	09 f4       	brne	.+2      	; 0x1230 <main_menu+0x48>
    122e:	50 c0       	rjmp	.+160    	; 0x12d0 <main_menu+0xe8>
    1230:	c3 30       	cpi	r28, 0x03	; 3
    1232:	09 f4       	brne	.+2      	; 0x1236 <main_menu+0x4e>
    1234:	9d c0       	rjmp	.+314    	; 0x1370 <main_menu+0x188>
    1236:	d7 c0       	rjmp	.+430    	; 0x13e6 <main_menu+0x1fe>
			case UP:
				if(current_page > 1){
    1238:	20 91 13 01 	lds	r18, 0x0113
    123c:	30 91 14 01 	lds	r19, 0x0114
    1240:	22 30       	cpi	r18, 0x02	; 2
    1242:	31 05       	cpc	r19, r1
    1244:	84 f0       	brlt	.+32     	; 0x1266 <main_menu+0x7e>
					current_menu = current_menu->prev_sibling;
    1246:	e0 91 6d 03 	lds	r30, 0x036D
    124a:	f0 91 6e 03 	lds	r31, 0x036E
    124e:	84 81       	ldd	r24, Z+4	; 0x04
    1250:	95 81       	ldd	r25, Z+5	; 0x05
    1252:	90 93 6e 03 	sts	0x036E, r25
    1256:	80 93 6d 03 	sts	0x036D, r24
					current_page--;
    125a:	21 50       	subi	r18, 0x01	; 1
    125c:	31 09       	sbc	r19, r1
    125e:	30 93 14 01 	sts	0x0114, r19
    1262:	20 93 13 01 	sts	0x0113, r18
				}
				menu_sram_update(display_menu, current_page);
    1266:	60 91 13 01 	lds	r22, 0x0113
    126a:	70 91 14 01 	lds	r23, 0x0114
    126e:	80 91 a0 03 	lds	r24, 0x03A0
    1272:	90 91 a1 03 	lds	r25, 0x03A1
    1276:	0e 94 8b 07 	call	0xf16	; 0xf16 <menu_sram_update>
				oled_update();
    127a:	0e 94 81 0c 	call	0x1902	; 0x1902 <oled_update>
				break;
    127e:	d2 c1       	rjmp	.+932    	; 0x1624 <main_menu+0x43c>
			case DOWN:
				if(current_page < display_menu->number_of_childs){
    1280:	e0 91 a0 03 	lds	r30, 0x03A0
    1284:	f0 91 a1 03 	lds	r31, 0x03A1
    1288:	80 91 13 01 	lds	r24, 0x0113
    128c:	90 91 14 01 	lds	r25, 0x0114
    1290:	22 85       	ldd	r18, Z+10	; 0x0a
    1292:	33 85       	ldd	r19, Z+11	; 0x0b
    1294:	82 17       	cp	r24, r18
    1296:	93 07       	cpc	r25, r19
    1298:	8c f4       	brge	.+34     	; 0x12bc <main_menu+0xd4>
					current_menu = current_menu ->next_sibling;
    129a:	a0 91 6d 03 	lds	r26, 0x036D
    129e:	b0 91 6e 03 	lds	r27, 0x036E
    12a2:	12 96       	adiw	r26, 0x02	; 2
    12a4:	2d 91       	ld	r18, X+
    12a6:	3c 91       	ld	r19, X
    12a8:	13 97       	sbiw	r26, 0x03	; 3
    12aa:	30 93 6e 03 	sts	0x036E, r19
    12ae:	20 93 6d 03 	sts	0x036D, r18
					current_page++;
    12b2:	01 96       	adiw	r24, 0x01	; 1
    12b4:	90 93 14 01 	sts	0x0114, r25
    12b8:	80 93 13 01 	sts	0x0113, r24
				}
				menu_sram_update(display_menu, current_page);
    12bc:	60 91 13 01 	lds	r22, 0x0113
    12c0:	70 91 14 01 	lds	r23, 0x0114
    12c4:	cf 01       	movw	r24, r30
    12c6:	0e 94 8b 07 	call	0xf16	; 0xf16 <menu_sram_update>
				oled_update();
    12ca:	0e 94 81 0c 	call	0x1902	; 0x1902 <oled_update>
				break;
    12ce:	aa c1       	rjmp	.+852    	; 0x1624 <main_menu+0x43c>
			case RIGHT:
				if(current_menu->child != NULL){
    12d0:	e0 91 6d 03 	lds	r30, 0x036D
    12d4:	f0 91 6e 03 	lds	r31, 0x036E
    12d8:	86 81       	ldd	r24, Z+6	; 0x06
    12da:	97 81       	ldd	r25, Z+7	; 0x07
    12dc:	89 2b       	or	r24, r25
    12de:	d9 f1       	breq	.+118    	; 0x1356 <main_menu+0x16e>
					display_menu = update_display_menu(display_menu, current_page, RIGHT);
    12e0:	40 91 13 01 	lds	r20, 0x0113
    12e4:	50 91 14 01 	lds	r21, 0x0114
    12e8:	a0 91 a0 03 	lds	r26, 0x03A0
    12ec:	b0 91 a1 03 	lds	r27, 0x03A1
	return parent_menu;
}


menu* update_display_menu(menu* current_menu, int page, joystick_dir dir){
	menu* current = current_menu->child;
    12f0:	16 96       	adiw	r26, 0x06	; 6
    12f2:	ed 91       	ld	r30, X+
    12f4:	fc 91       	ld	r31, X
    12f6:	17 97       	sbiw	r26, 0x07	; 7
	if(dir == RIGHT){
		for(int i = 1; i < page; i++){
    12f8:	42 30       	cpi	r20, 0x02	; 2
    12fa:	51 05       	cpc	r21, r1
    12fc:	54 f0       	brlt	.+20     	; 0x1312 <main_menu+0x12a>
    12fe:	21 e0       	ldi	r18, 0x01	; 1
    1300:	30 e0       	ldi	r19, 0x00	; 0
				current = current->next_sibling;
    1302:	02 80       	ldd	r0, Z+2	; 0x02
    1304:	f3 81       	ldd	r31, Z+3	; 0x03
    1306:	e0 2d       	mov	r30, r0


menu* update_display_menu(menu* current_menu, int page, joystick_dir dir){
	menu* current = current_menu->child;
	if(dir == RIGHT){
		for(int i = 1; i < page; i++){
    1308:	2f 5f       	subi	r18, 0xFF	; 255
    130a:	3f 4f       	sbci	r19, 0xFF	; 255
    130c:	24 17       	cp	r18, r20
    130e:	35 07       	cpc	r19, r21
    1310:	c1 f7       	brne	.-16     	; 0x1302 <main_menu+0x11a>
		}
	}else{
		current = current_menu->parent;
	}
	
	if(current != NULL){
    1312:	30 97       	sbiw	r30, 0x00	; 0
    1314:	19 f0       	breq	.+6      	; 0x131c <main_menu+0x134>
    1316:	8e 2f       	mov	r24, r30
    1318:	9f 2f       	mov	r25, r31
    131a:	02 c0       	rjmp	.+4      	; 0x1320 <main_menu+0x138>
		return current;
	}
	return current_menu;
    131c:	8a 2f       	mov	r24, r26
    131e:	9b 2f       	mov	r25, r27
				menu_sram_update(display_menu, current_page);
				oled_update();
				break;
			case RIGHT:
				if(current_menu->child != NULL){
					display_menu = update_display_menu(display_menu, current_page, RIGHT);
    1320:	80 93 a0 03 	sts	0x03A0, r24
    1324:	90 93 a1 03 	sts	0x03A1, r25
					current_page = 1;
    1328:	21 e0       	ldi	r18, 0x01	; 1
    132a:	30 e0       	ldi	r19, 0x00	; 0
    132c:	30 93 14 01 	sts	0x0114, r19
    1330:	20 93 13 01 	sts	0x0113, r18
					menu_sram_update(display_menu, current_page);
    1334:	61 e0       	ldi	r22, 0x01	; 1
    1336:	70 e0       	ldi	r23, 0x00	; 0
    1338:	0e 94 8b 07 	call	0xf16	; 0xf16 <menu_sram_update>
					oled_update();
    133c:	0e 94 81 0c 	call	0x1902	; 0x1902 <oled_update>
					current_menu = current_menu->child;
    1340:	e0 91 6d 03 	lds	r30, 0x036D
    1344:	f0 91 6e 03 	lds	r31, 0x036E
    1348:	86 81       	ldd	r24, Z+6	; 0x06
    134a:	97 81       	ldd	r25, Z+7	; 0x07
    134c:	90 93 6e 03 	sts	0x036E, r25
    1350:	80 93 6d 03 	sts	0x036D, r24
    1354:	67 c1       	rjmp	.+718    	; 0x1624 <main_menu+0x43c>
				}
				else if(current_menu->parent->parent != NULL){
    1356:	00 84       	ldd	r0, Z+8	; 0x08
    1358:	f1 85       	ldd	r31, Z+9	; 0x09
    135a:	e0 2d       	mov	r30, r0
    135c:	51 e0       	ldi	r21, 0x01	; 1
    135e:	40 e0       	ldi	r20, 0x00	; 0
    1360:	80 85       	ldd	r24, Z+8	; 0x08
    1362:	91 85       	ldd	r25, Z+9	; 0x09
    1364:	89 2b       	or	r24, r25
    1366:	09 f4       	brne	.+2      	; 0x136a <main_menu+0x182>
    1368:	50 e0       	ldi	r21, 0x00	; 0
}


void main_menu(void){
	
	int end_menu = 0; 
    136a:	25 2f       	mov	r18, r21
    136c:	34 2f       	mov	r19, r20
    136e:	3d c0       	rjmp	.+122    	; 0x13ea <main_menu+0x202>
				}

				break;
		
			case LEFT:
				if(current_menu->parent->parent != NULL){
    1370:	e0 91 6d 03 	lds	r30, 0x036D
    1374:	f0 91 6e 03 	lds	r31, 0x036E
    1378:	00 84       	ldd	r0, Z+8	; 0x08
    137a:	f1 85       	ldd	r31, Z+9	; 0x09
    137c:	e0 2d       	mov	r30, r0
    137e:	80 85       	ldd	r24, Z+8	; 0x08
    1380:	91 85       	ldd	r25, Z+9	; 0x09
    1382:	89 2b       	or	r24, r25
    1384:	09 f4       	brne	.+2      	; 0x1388 <main_menu+0x1a0>
    1386:	4e c1       	rjmp	.+668    	; 0x1624 <main_menu+0x43c>
					display_menu = update_display_menu(display_menu, current_page, LEFT);
    1388:	e0 91 a0 03 	lds	r30, 0x03A0
    138c:	f0 91 a1 03 	lds	r31, 0x03A1
	if(dir == RIGHT){
		for(int i = 1; i < page; i++){
				current = current->next_sibling;
		}
	}else{
		current = current_menu->parent;
    1390:	20 85       	ldd	r18, Z+8	; 0x08
    1392:	31 85       	ldd	r19, Z+9	; 0x09
	}
	
	if(current != NULL){
    1394:	21 15       	cp	r18, r1
    1396:	31 05       	cpc	r19, r1
    1398:	19 f0       	breq	.+6      	; 0x13a0 <main_menu+0x1b8>
		return current;
    139a:	82 2f       	mov	r24, r18
    139c:	93 2f       	mov	r25, r19
    139e:	02 c0       	rjmp	.+4      	; 0x13a4 <main_menu+0x1bc>
	}
	return current_menu;
    13a0:	8e 2f       	mov	r24, r30
    13a2:	9f 2f       	mov	r25, r31

				break;
		
			case LEFT:
				if(current_menu->parent->parent != NULL){
					display_menu = update_display_menu(display_menu, current_page, LEFT);
    13a4:	80 93 a0 03 	sts	0x03A0, r24
    13a8:	90 93 a1 03 	sts	0x03A1, r25
					current_page = 1;
    13ac:	21 e0       	ldi	r18, 0x01	; 1
    13ae:	30 e0       	ldi	r19, 0x00	; 0
    13b0:	30 93 14 01 	sts	0x0114, r19
    13b4:	20 93 13 01 	sts	0x0113, r18
					menu_sram_update(display_menu, current_page);
    13b8:	61 e0       	ldi	r22, 0x01	; 1
    13ba:	70 e0       	ldi	r23, 0x00	; 0
    13bc:	0e 94 8b 07 	call	0xf16	; 0xf16 <menu_sram_update>
					oled_update();
    13c0:	0e 94 81 0c 	call	0x1902	; 0x1902 <oled_update>
					current_menu = current_menu->parent->parent->child;
    13c4:	e0 91 6d 03 	lds	r30, 0x036D
    13c8:	f0 91 6e 03 	lds	r31, 0x036E
    13cc:	00 84       	ldd	r0, Z+8	; 0x08
    13ce:	f1 85       	ldd	r31, Z+9	; 0x09
    13d0:	e0 2d       	mov	r30, r0
    13d2:	00 84       	ldd	r0, Z+8	; 0x08
    13d4:	f1 85       	ldd	r31, Z+9	; 0x09
    13d6:	e0 2d       	mov	r30, r0
    13d8:	86 81       	ldd	r24, Z+6	; 0x06
    13da:	97 81       	ldd	r25, Z+7	; 0x07
    13dc:	90 93 6e 03 	sts	0x036E, r25
    13e0:	80 93 6d 03 	sts	0x036D, r24
    13e4:	1f c1       	rjmp	.+574    	; 0x1624 <main_menu+0x43c>
}


void main_menu(void){
	
	int end_menu = 0; 
    13e6:	20 e0       	ldi	r18, 0x00	; 0
    13e8:	30 e0       	ldi	r19, 0x00	; 0
				break;
		}
		
	}
	
	last_joy_dir = joy_dir;
    13ea:	c0 93 12 01 	sts	0x0112, r28

	
	if(end_menu){
    13ee:	23 2b       	or	r18, r19
    13f0:	09 f4       	brne	.+2      	; 0x13f4 <main_menu+0x20c>
    13f2:	1a c1       	rjmp	.+564    	; 0x1628 <main_menu+0x440>
		const char* menu_title = current_menu->name;
    13f4:	00 91 6d 03 	lds	r16, 0x036D
    13f8:	10 91 6e 03 	lds	r17, 0x036E
    13fc:	d8 01       	movw	r26, r16
    13fe:	cd 91       	ld	r28, X+
    1400:	dc 91       	ld	r29, X
		if (!strcmp(menu_title,"Easy") && !strcmp(current_menu->parent->name, "Control: PS2")){
    1402:	68 e2       	ldi	r22, 0x28	; 40
    1404:	72 e0       	ldi	r23, 0x02	; 2
    1406:	ce 01       	movw	r24, r28
    1408:	0e 94 db 10 	call	0x21b6	; 0x21b6 <strcmp>
    140c:	7c 01       	movw	r14, r24
    140e:	00 97       	sbiw	r24, 0x00	; 0
    1410:	d9 f4       	brne	.+54     	; 0x1448 <main_menu+0x260>
    1412:	d8 01       	movw	r26, r16
    1414:	18 96       	adiw	r26, 0x08	; 8
    1416:	ed 91       	ld	r30, X+
    1418:	fc 91       	ld	r31, X
    141a:	19 97       	sbiw	r26, 0x09	; 9
    141c:	6b e1       	ldi	r22, 0x1B	; 27
    141e:	72 e0       	ldi	r23, 0x02	; 2
    1420:	80 81       	ld	r24, Z
    1422:	91 81       	ldd	r25, Z+1	; 0x01
    1424:	0e 94 db 10 	call	0x21b6	; 0x21b6 <strcmp>
    1428:	89 2b       	or	r24, r25
    142a:	71 f4       	brne	.+28     	; 0x1448 <main_menu+0x260>
			current_state = PLAY;
    142c:	81 e0       	ldi	r24, 0x01	; 1
    142e:	80 93 75 03 	sts	0x0375, r24
			controller = PS2;
    1432:	82 e0       	ldi	r24, 0x02	; 2
    1434:	90 e0       	ldi	r25, 0x00	; 0
    1436:	90 93 07 01 	sts	0x0107, r25
    143a:	80 93 06 01 	sts	0x0106, r24
			difficulty = EASY;
    143e:	10 92 6c 03 	sts	0x036C, r1
    1442:	10 92 6b 03 	sts	0x036B, r1
    1446:	f0 c0       	rjmp	.+480    	; 0x1628 <main_menu+0x440>
		}else if (!strcmp(current_menu->name, "Medium")&& !strcmp(current_menu->parent->name, "Control: PS2")){
    1448:	6d e2       	ldi	r22, 0x2D	; 45
    144a:	72 e0       	ldi	r23, 0x02	; 2
    144c:	ce 01       	movw	r24, r28
    144e:	0e 94 db 10 	call	0x21b6	; 0x21b6 <strcmp>
    1452:	6c 01       	movw	r12, r24
    1454:	00 97       	sbiw	r24, 0x00	; 0
    1456:	e9 f4       	brne	.+58     	; 0x1492 <main_menu+0x2aa>
    1458:	d8 01       	movw	r26, r16
    145a:	18 96       	adiw	r26, 0x08	; 8
    145c:	ed 91       	ld	r30, X+
    145e:	fc 91       	ld	r31, X
    1460:	19 97       	sbiw	r26, 0x09	; 9
    1462:	6b e1       	ldi	r22, 0x1B	; 27
    1464:	72 e0       	ldi	r23, 0x02	; 2
    1466:	80 81       	ld	r24, Z
    1468:	91 81       	ldd	r25, Z+1	; 0x01
    146a:	0e 94 db 10 	call	0x21b6	; 0x21b6 <strcmp>
    146e:	89 2b       	or	r24, r25
    1470:	81 f4       	brne	.+32     	; 0x1492 <main_menu+0x2aa>
			current_state = PLAY;
    1472:	81 e0       	ldi	r24, 0x01	; 1
    1474:	80 93 75 03 	sts	0x0375, r24
			controller = PS2;
    1478:	82 e0       	ldi	r24, 0x02	; 2
    147a:	90 e0       	ldi	r25, 0x00	; 0
    147c:	90 93 07 01 	sts	0x0107, r25
    1480:	80 93 06 01 	sts	0x0106, r24
			difficulty = MEDIUM;
    1484:	81 e0       	ldi	r24, 0x01	; 1
    1486:	90 e0       	ldi	r25, 0x00	; 0
    1488:	90 93 6c 03 	sts	0x036C, r25
    148c:	80 93 6b 03 	sts	0x036B, r24
    1490:	cb c0       	rjmp	.+406    	; 0x1628 <main_menu+0x440>
		}else if (!strcmp(current_menu->name, "Hard")&& !strcmp(current_menu->parent->name, "Control: PS2")){
    1492:	64 e3       	ldi	r22, 0x34	; 52
    1494:	72 e0       	ldi	r23, 0x02	; 2
    1496:	ce 01       	movw	r24, r28
    1498:	0e 94 db 10 	call	0x21b6	; 0x21b6 <strcmp>
    149c:	5c 01       	movw	r10, r24
    149e:	00 97       	sbiw	r24, 0x00	; 0
    14a0:	d9 f4       	brne	.+54     	; 0x14d8 <main_menu+0x2f0>
    14a2:	d8 01       	movw	r26, r16
    14a4:	18 96       	adiw	r26, 0x08	; 8
    14a6:	ed 91       	ld	r30, X+
    14a8:	fc 91       	ld	r31, X
    14aa:	19 97       	sbiw	r26, 0x09	; 9
    14ac:	6b e1       	ldi	r22, 0x1B	; 27
    14ae:	72 e0       	ldi	r23, 0x02	; 2
    14b0:	80 81       	ld	r24, Z
    14b2:	91 81       	ldd	r25, Z+1	; 0x01
    14b4:	0e 94 db 10 	call	0x21b6	; 0x21b6 <strcmp>
    14b8:	89 2b       	or	r24, r25
    14ba:	71 f4       	brne	.+28     	; 0x14d8 <main_menu+0x2f0>
			current_state = PLAY;
    14bc:	81 e0       	ldi	r24, 0x01	; 1
    14be:	80 93 75 03 	sts	0x0375, r24
			controller = PS2;
    14c2:	82 e0       	ldi	r24, 0x02	; 2
    14c4:	90 e0       	ldi	r25, 0x00	; 0
    14c6:	90 93 07 01 	sts	0x0107, r25
    14ca:	80 93 06 01 	sts	0x0106, r24
			difficulty = HARD;
    14ce:	90 93 6c 03 	sts	0x036C, r25
    14d2:	80 93 6b 03 	sts	0x036B, r24
    14d6:	a8 c0       	rjmp	.+336    	; 0x1628 <main_menu+0x440>
		}

		else if (!strcmp(current_menu->name,"Easy") && !strcmp(current_menu->parent->name, "Control: USB")){
    14d8:	ef 28       	or	r14, r15
    14da:	d9 f4       	brne	.+54     	; 0x1512 <main_menu+0x32a>
    14dc:	d8 01       	movw	r26, r16
    14de:	18 96       	adiw	r26, 0x08	; 8
    14e0:	ed 91       	ld	r30, X+
    14e2:	fc 91       	ld	r31, X
    14e4:	19 97       	sbiw	r26, 0x09	; 9
    14e6:	6e e0       	ldi	r22, 0x0E	; 14
    14e8:	72 e0       	ldi	r23, 0x02	; 2
    14ea:	80 81       	ld	r24, Z
    14ec:	91 81       	ldd	r25, Z+1	; 0x01
    14ee:	0e 94 db 10 	call	0x21b6	; 0x21b6 <strcmp>
    14f2:	89 2b       	or	r24, r25
    14f4:	71 f4       	brne	.+28     	; 0x1512 <main_menu+0x32a>
			current_state = PLAY;
    14f6:	81 e0       	ldi	r24, 0x01	; 1
    14f8:	80 93 75 03 	sts	0x0375, r24
			controller = USB;
    14fc:	81 e0       	ldi	r24, 0x01	; 1
    14fe:	90 e0       	ldi	r25, 0x00	; 0
    1500:	90 93 07 01 	sts	0x0107, r25
    1504:	80 93 06 01 	sts	0x0106, r24
			difficulty = EASY;
    1508:	10 92 6c 03 	sts	0x036C, r1
    150c:	10 92 6b 03 	sts	0x036B, r1
    1510:	8b c0       	rjmp	.+278    	; 0x1628 <main_menu+0x440>
			
		}else if (!strcmp(current_menu->name, "Medium")&& !strcmp(current_menu->parent->name, "Control: USB")){
    1512:	cd 28       	or	r12, r13
    1514:	d9 f4       	brne	.+54     	; 0x154c <main_menu+0x364>
    1516:	d8 01       	movw	r26, r16
    1518:	18 96       	adiw	r26, 0x08	; 8
    151a:	ed 91       	ld	r30, X+
    151c:	fc 91       	ld	r31, X
    151e:	19 97       	sbiw	r26, 0x09	; 9
    1520:	6e e0       	ldi	r22, 0x0E	; 14
    1522:	72 e0       	ldi	r23, 0x02	; 2
    1524:	80 81       	ld	r24, Z
    1526:	91 81       	ldd	r25, Z+1	; 0x01
    1528:	0e 94 db 10 	call	0x21b6	; 0x21b6 <strcmp>
    152c:	89 2b       	or	r24, r25
    152e:	71 f4       	brne	.+28     	; 0x154c <main_menu+0x364>
			current_state = PLAY;
    1530:	81 e0       	ldi	r24, 0x01	; 1
    1532:	80 93 75 03 	sts	0x0375, r24
			controller = USB;
    1536:	81 e0       	ldi	r24, 0x01	; 1
    1538:	90 e0       	ldi	r25, 0x00	; 0
    153a:	90 93 07 01 	sts	0x0107, r25
    153e:	80 93 06 01 	sts	0x0106, r24
			difficulty = MEDIUM;
    1542:	90 93 6c 03 	sts	0x036C, r25
    1546:	80 93 6b 03 	sts	0x036B, r24
    154a:	6e c0       	rjmp	.+220    	; 0x1628 <main_menu+0x440>
		}else if (!strcmp(current_menu->name, "Hard")&& !strcmp(current_menu->parent->name, "Control: USB")){
    154c:	ab 28       	or	r10, r11
    154e:	e9 f4       	brne	.+58     	; 0x158a <main_menu+0x3a2>
    1550:	d8 01       	movw	r26, r16
    1552:	18 96       	adiw	r26, 0x08	; 8
    1554:	ed 91       	ld	r30, X+
    1556:	fc 91       	ld	r31, X
    1558:	19 97       	sbiw	r26, 0x09	; 9
    155a:	6e e0       	ldi	r22, 0x0E	; 14
    155c:	72 e0       	ldi	r23, 0x02	; 2
    155e:	80 81       	ld	r24, Z
    1560:	91 81       	ldd	r25, Z+1	; 0x01
    1562:	0e 94 db 10 	call	0x21b6	; 0x21b6 <strcmp>
    1566:	89 2b       	or	r24, r25
    1568:	81 f4       	brne	.+32     	; 0x158a <main_menu+0x3a2>
			current_state = PLAY;
    156a:	81 e0       	ldi	r24, 0x01	; 1
    156c:	80 93 75 03 	sts	0x0375, r24
			controller = USB;
    1570:	81 e0       	ldi	r24, 0x01	; 1
    1572:	90 e0       	ldi	r25, 0x00	; 0
    1574:	90 93 07 01 	sts	0x0107, r25
    1578:	80 93 06 01 	sts	0x0106, r24
			difficulty = HARD;
    157c:	82 e0       	ldi	r24, 0x02	; 2
    157e:	90 e0       	ldi	r25, 0x00	; 0
    1580:	90 93 6c 03 	sts	0x036C, r25
    1584:	80 93 6b 03 	sts	0x036B, r24
    1588:	4f c0       	rjmp	.+158    	; 0x1628 <main_menu+0x440>
		}
		else if (!strcmp(current_menu->name,"View")){
    158a:	69 e3       	ldi	r22, 0x39	; 57
    158c:	72 e0       	ldi	r23, 0x02	; 2
    158e:	ce 01       	movw	r24, r28
    1590:	0e 94 db 10 	call	0x21b6	; 0x21b6 <strcmp>
    1594:	89 2b       	or	r24, r25
    1596:	21 f4       	brne	.+8      	; 0x15a0 <main_menu+0x3b8>
			current_state = HIGHSCORE;
    1598:	82 e0       	ldi	r24, 0x02	; 2
    159a:	80 93 75 03 	sts	0x0375, r24
    159e:	44 c0       	rjmp	.+136    	; 0x1628 <main_menu+0x440>
		}
		else if (!strcmp(current_menu->name, "YES")){
    15a0:	64 e4       	ldi	r22, 0x44	; 68
    15a2:	72 e0       	ldi	r23, 0x02	; 2
    15a4:	ce 01       	movw	r24, r28
    15a6:	0e 94 db 10 	call	0x21b6	; 0x21b6 <strcmp>
    15aa:	89 2b       	or	r24, r25
    15ac:	89 f5       	brne	.+98     	; 0x1610 <main_menu+0x428>
			current_state = RESET_HIGHSCORE;
    15ae:	83 e0       	ldi	r24, 0x03	; 3
    15b0:	80 93 75 03 	sts	0x0375, r24
			oled_sram_reset();
    15b4:	0e 94 a3 0b 	call	0x1746	; 0x1746 <oled_sram_reset>
			oled_sram_string("****************",0,0);
    15b8:	40 e0       	ldi	r20, 0x00	; 0
    15ba:	50 e0       	ldi	r21, 0x00	; 0
    15bc:	60 e0       	ldi	r22, 0x00	; 0
    15be:	70 e0       	ldi	r23, 0x00	; 0
    15c0:	8b e4       	ldi	r24, 0x4B	; 75
    15c2:	92 e0       	ldi	r25, 0x02	; 2
    15c4:	0e 94 1f 0c 	call	0x183e	; 0x183e <oled_sram_string>
			oled_sram_string("Highscore list",3,1);
    15c8:	41 e0       	ldi	r20, 0x01	; 1
    15ca:	50 e0       	ldi	r21, 0x00	; 0
    15cc:	63 e0       	ldi	r22, 0x03	; 3
    15ce:	70 e0       	ldi	r23, 0x00	; 0
    15d0:	8c e5       	ldi	r24, 0x5C	; 92
    15d2:	92 e0       	ldi	r25, 0x02	; 2
    15d4:	0e 94 1f 0c 	call	0x183e	; 0x183e <oled_sram_string>
			oled_sram_string("reset", 4, 5);
    15d8:	45 e0       	ldi	r20, 0x05	; 5
    15da:	50 e0       	ldi	r21, 0x00	; 0
    15dc:	64 e0       	ldi	r22, 0x04	; 4
    15de:	70 e0       	ldi	r23, 0x00	; 0
    15e0:	8b e6       	ldi	r24, 0x6B	; 107
    15e2:	92 e0       	ldi	r25, 0x02	; 2
    15e4:	0e 94 1f 0c 	call	0x183e	; 0x183e <oled_sram_string>
			oled_sram_string("****************",7,0);
    15e8:	40 e0       	ldi	r20, 0x00	; 0
    15ea:	50 e0       	ldi	r21, 0x00	; 0
    15ec:	67 e0       	ldi	r22, 0x07	; 7
    15ee:	70 e0       	ldi	r23, 0x00	; 0
    15f0:	8b e4       	ldi	r24, 0x4B	; 75
    15f2:	92 e0       	ldi	r25, 0x02	; 2
    15f4:	0e 94 1f 0c 	call	0x183e	; 0x183e <oled_sram_string>
			oled_update();
    15f8:	0e 94 81 0c 	call	0x1902	; 0x1902 <oled_update>
    15fc:	bf ef       	ldi	r27, 0xFF	; 255
    15fe:	ef ef       	ldi	r30, 0xFF	; 255
    1600:	fd e1       	ldi	r31, 0x1D	; 29
    1602:	b1 50       	subi	r27, 0x01	; 1
    1604:	e0 40       	sbci	r30, 0x00	; 0
    1606:	f0 40       	sbci	r31, 0x00	; 0
    1608:	e1 f7       	brne	.-8      	; 0x1602 <main_menu+0x41a>
    160a:	00 c0       	rjmp	.+0      	; 0x160c <main_menu+0x424>
    160c:	00 00       	nop
    160e:	0c c0       	rjmp	.+24     	; 0x1628 <main_menu+0x440>
			_delay_ms(2000);
			
		}
		else if (!strcmp(current_menu->name, "NO")){
    1610:	68 e4       	ldi	r22, 0x48	; 72
    1612:	72 e0       	ldi	r23, 0x02	; 2
    1614:	ce 01       	movw	r24, r28
    1616:	0e 94 db 10 	call	0x21b6	; 0x21b6 <strcmp>
    161a:	89 2b       	or	r24, r25
    161c:	29 f4       	brne	.+10     	; 0x1628 <main_menu+0x440>
			current_state = IDLE;
    161e:	10 92 75 03 	sts	0x0375, r1
    1622:	02 c0       	rjmp	.+4      	; 0x1628 <main_menu+0x440>
				break;
		}
		
	}
	
	last_joy_dir = joy_dir;
    1624:	c0 93 12 01 	sts	0x0112, r28
		}
		else if (!strcmp(current_menu->name, "NO")){
			current_state = IDLE;
		}
	}
}
    1628:	df 91       	pop	r29
    162a:	cf 91       	pop	r28
    162c:	1f 91       	pop	r17
    162e:	0f 91       	pop	r16
    1630:	ff 90       	pop	r15
    1632:	ef 90       	pop	r14
    1634:	df 90       	pop	r13
    1636:	cf 90       	pop	r12
    1638:	bf 90       	pop	r11
    163a:	af 90       	pop	r10
    163c:	08 95       	ret

0000163e <oled_init>:
static uint8_t current_page, current_col;


void oled_init(){
	//  display  off
	*OLED_c = 0xae;
    163e:	e0 91 1a 01 	lds	r30, 0x011A
    1642:	f0 91 1b 01 	lds	r31, 0x011B
    1646:	8e ea       	ldi	r24, 0xAE	; 174
    1648:	80 83       	st	Z, r24

	//segment  remap
	*OLED_c = 0xa1;	
    164a:	e0 91 1a 01 	lds	r30, 0x011A
    164e:	f0 91 1b 01 	lds	r31, 0x011B
    1652:	81 ea       	ldi	r24, 0xA1	; 161
    1654:	80 83       	st	Z, r24

	//common  pads  hardware:  alternative		
	*OLED_c = 0xda;			
    1656:	e0 91 1a 01 	lds	r30, 0x011A
    165a:	f0 91 1b 01 	lds	r31, 0x011B
    165e:	8a ed       	ldi	r24, 0xDA	; 218
    1660:	80 83       	st	Z, r24
	*OLED_c = 0x12;
    1662:	e0 91 1a 01 	lds	r30, 0x011A
    1666:	f0 91 1b 01 	lds	r31, 0x011B
    166a:	82 e1       	ldi	r24, 0x12	; 18
    166c:	80 83       	st	Z, r24

	//common output scan direction:com63~com0
	*OLED_c = 0xc8;
    166e:	e0 91 1a 01 	lds	r30, 0x011A
    1672:	f0 91 1b 01 	lds	r31, 0x011B
    1676:	88 ec       	ldi	r24, 0xC8	; 200
    1678:	80 83       	st	Z, r24

	//multiplex  ration  mode:63
	*OLED_c = 0xa8;
    167a:	e0 91 1a 01 	lds	r30, 0x011A
    167e:	f0 91 1b 01 	lds	r31, 0x011B
    1682:	88 ea       	ldi	r24, 0xA8	; 168
    1684:	80 83       	st	Z, r24
	*OLED_c = 0x3f;
    1686:	e0 91 1a 01 	lds	r30, 0x011A
    168a:	f0 91 1b 01 	lds	r31, 0x011B
    168e:	8f e3       	ldi	r24, 0x3F	; 63
    1690:	80 83       	st	Z, r24

	//display divide ratio/osc. freq. mode
	*OLED_c = 0xd5;
    1692:	e0 91 1a 01 	lds	r30, 0x011A
    1696:	f0 91 1b 01 	lds	r31, 0x011B
    169a:	85 ed       	ldi	r24, 0xD5	; 213
    169c:	80 83       	st	Z, r24
	*OLED_c = 0x80;
    169e:	e0 91 1a 01 	lds	r30, 0x011A
    16a2:	f0 91 1b 01 	lds	r31, 0x011B
    16a6:	80 e8       	ldi	r24, 0x80	; 128
    16a8:	80 83       	st	Z, r24

	//contrast  control
	*OLED_c = 0x81;
    16aa:	e0 91 1a 01 	lds	r30, 0x011A
    16ae:	f0 91 1b 01 	lds	r31, 0x011B
    16b2:	81 e8       	ldi	r24, 0x81	; 129
    16b4:	80 83       	st	Z, r24
	*OLED_c = 0x50;
    16b6:	e0 91 1a 01 	lds	r30, 0x011A
    16ba:	f0 91 1b 01 	lds	r31, 0x011B
    16be:	80 e5       	ldi	r24, 0x50	; 80
    16c0:	80 83       	st	Z, r24

	//set  pre-charge  period
	*OLED_c = 0xd9;
    16c2:	e0 91 1a 01 	lds	r30, 0x011A
    16c6:	f0 91 1b 01 	lds	r31, 0x011B
    16ca:	89 ed       	ldi	r24, 0xD9	; 217
    16cc:	80 83       	st	Z, r24
	*OLED_c = 0x21;
    16ce:	e0 91 1a 01 	lds	r30, 0x011A
    16d2:	f0 91 1b 01 	lds	r31, 0x011B
    16d6:	81 e2       	ldi	r24, 0x21	; 33
    16d8:	80 83       	st	Z, r24

	 //Set  Memory  Addressing  Mode
	*OLED_c = 0x20;
    16da:	e0 91 1a 01 	lds	r30, 0x011A
    16de:	f0 91 1b 01 	lds	r31, 0x011B
    16e2:	80 e2       	ldi	r24, 0x20	; 32
    16e4:	80 83       	st	Z, r24
	*OLED_c = 0x02;
    16e6:	e0 91 1a 01 	lds	r30, 0x011A
    16ea:	f0 91 1b 01 	lds	r31, 0x011B
    16ee:	82 e0       	ldi	r24, 0x02	; 2
    16f0:	80 83       	st	Z, r24

	//VCOM  deselect  level  mode
	*OLED_c = 0xdb;
    16f2:	e0 91 1a 01 	lds	r30, 0x011A
    16f6:	f0 91 1b 01 	lds	r31, 0x011B
    16fa:	8b ed       	ldi	r24, 0xDB	; 219
    16fc:	80 83       	st	Z, r24
	*OLED_c = 0x30;
    16fe:	e0 91 1a 01 	lds	r30, 0x011A
    1702:	f0 91 1b 01 	lds	r31, 0x011B
    1706:	80 e3       	ldi	r24, 0x30	; 48
    1708:	80 83       	st	Z, r24

	//master  configuration
	*OLED_c = 0xad;
    170a:	e0 91 1a 01 	lds	r30, 0x011A
    170e:	f0 91 1b 01 	lds	r31, 0x011B
    1712:	8d ea       	ldi	r24, 0xAD	; 173
    1714:	80 83       	st	Z, r24

	//out follows RAM content 
	*OLED_c = 0x00;
    1716:	e0 91 1a 01 	lds	r30, 0x011A
    171a:	f0 91 1b 01 	lds	r31, 0x011B
    171e:	10 82       	st	Z, r1
	
	//set  normal  display
	*OLED_c = 0xa4;
    1720:	e0 91 1a 01 	lds	r30, 0x011A
    1724:	f0 91 1b 01 	lds	r31, 0x011B
    1728:	84 ea       	ldi	r24, 0xA4	; 164
    172a:	80 83       	st	Z, r24
	*OLED_c = 0xa6;
    172c:	e0 91 1a 01 	lds	r30, 0x011A
    1730:	f0 91 1b 01 	lds	r31, 0x011B
    1734:	86 ea       	ldi	r24, 0xA6	; 166
    1736:	80 83       	st	Z, r24
	
	//  display  on
	*OLED_c = 0xaf;
    1738:	e0 91 1a 01 	lds	r30, 0x011A
    173c:	f0 91 1b 01 	lds	r31, 0x011B
    1740:	8f ea       	ldi	r24, 0xAF	; 175
    1742:	80 83       	st	Z, r24
    1744:	08 95       	ret

00001746 <oled_sram_reset>:
	

	
}
void oled_sram_reset(){
	for(int i = 0; i < 128*8; i++){
    1746:	80 e0       	ldi	r24, 0x00	; 0
    1748:	90 e0       	ldi	r25, 0x00	; 0
		SRAM[i] = ' ';
    174a:	20 e2       	ldi	r18, 0x20	; 32
    174c:	e0 91 16 01 	lds	r30, 0x0116
    1750:	f0 91 17 01 	lds	r31, 0x0117
    1754:	e8 0f       	add	r30, r24
    1756:	f9 1f       	adc	r31, r25
    1758:	20 83       	st	Z, r18
	

	
}
void oled_sram_reset(){
	for(int i = 0; i < 128*8; i++){
    175a:	01 96       	adiw	r24, 0x01	; 1
    175c:	81 15       	cp	r24, r1
    175e:	34 e0       	ldi	r19, 0x04	; 4
    1760:	93 07       	cpc	r25, r19
    1762:	a1 f7       	brne	.-24     	; 0x174c <oled_sram_reset+0x6>
		SRAM[i] = ' ';
	}
}
    1764:	08 95       	ret

00001766 <oled_goto_page>:
		}
	}
}

void oled_goto_page(int page){
	*OLED_c = (page | 0xb0);
    1766:	e0 91 1a 01 	lds	r30, 0x011A
    176a:	f0 91 1b 01 	lds	r31, 0x011B
    176e:	98 2f       	mov	r25, r24
    1770:	90 6b       	ori	r25, 0xB0	; 176
    1772:	90 83       	st	Z, r25
	current_page = page;
    1774:	80 93 70 03 	sts	0x0370, r24
    1778:	08 95       	ret

0000177a <oled_goto_column>:
}


void oled_goto_column(int column){
	*OLED_c = (column & 0x0f); //clearer de 4 frste bitsene
    177a:	e0 91 1a 01 	lds	r30, 0x011A
    177e:	f0 91 1b 01 	lds	r31, 0x011B
    1782:	28 2f       	mov	r18, r24
    1784:	2f 70       	andi	r18, 0x0F	; 15
    1786:	20 83       	st	Z, r18
	*OLED_c = ((column & 0xf0) >> 4) | (0x10);
    1788:	e0 91 1a 01 	lds	r30, 0x011A
    178c:	f0 91 1b 01 	lds	r31, 0x011B
    1790:	9c 01       	movw	r18, r24
    1792:	20 7f       	andi	r18, 0xF0	; 240
    1794:	33 27       	eor	r19, r19
    1796:	35 95       	asr	r19
    1798:	27 95       	ror	r18
    179a:	35 95       	asr	r19
    179c:	27 95       	ror	r18
    179e:	35 95       	asr	r19
    17a0:	27 95       	ror	r18
    17a2:	35 95       	asr	r19
    17a4:	27 95       	ror	r18
    17a6:	20 61       	ori	r18, 0x10	; 16
    17a8:	20 83       	st	Z, r18
	current_col = column;
    17aa:	80 93 6f 03 	sts	0x036F, r24
    17ae:	08 95       	ret

000017b0 <oled_pos>:

int oled_return_page(void){
	return current_page;
}

void oled_pos(int row,int column){
    17b0:	cf 93       	push	r28
    17b2:	df 93       	push	r29
    17b4:	eb 01       	movw	r28, r22
	oled_goto_page(row);
    17b6:	0e 94 b3 0b 	call	0x1766	; 0x1766 <oled_goto_page>
	oled_goto_column(column);
    17ba:	ce 01       	movw	r24, r28
    17bc:	0e 94 bd 0b 	call	0x177a	; 0x177a <oled_goto_column>
}
    17c0:	df 91       	pop	r29
    17c2:	cf 91       	pop	r28
    17c4:	08 95       	ret

000017c6 <oled_reset>:
void oled_sram_reset(){
	for(int i = 0; i < 128*8; i++){
		SRAM[i] = ' ';
	}
}
void oled_reset(){
    17c6:	0f 93       	push	r16
    17c8:	1f 93       	push	r17
    17ca:	cf 93       	push	r28
    17cc:	df 93       	push	r29
    17ce:	c0 e0       	ldi	r28, 0x00	; 0
    17d0:	d0 e0       	ldi	r29, 0x00	; 0
	
	for (uint8_t i = 0 ; i < 8; i++){
		oled_pos(i, 0);
    17d2:	00 e8       	ldi	r16, 0x80	; 128
    17d4:	10 e0       	ldi	r17, 0x00	; 0
    17d6:	60 e0       	ldi	r22, 0x00	; 0
    17d8:	70 e0       	ldi	r23, 0x00	; 0
    17da:	ce 01       	movw	r24, r28
    17dc:	0e 94 d8 0b 	call	0x17b0	; 0x17b0 <oled_pos>
    17e0:	20 2f       	mov	r18, r16
    17e2:	31 2f       	mov	r19, r17
		for (uint16_t i = 0 ; i < 128; i++){
			*OLED_d = 0x00;
    17e4:	e0 91 18 01 	lds	r30, 0x0118
    17e8:	f0 91 19 01 	lds	r31, 0x0119
    17ec:	10 82       	st	Z, r1
    17ee:	21 50       	subi	r18, 0x01	; 1
    17f0:	31 09       	sbc	r19, r1
}
void oled_reset(){
	
	for (uint8_t i = 0 ; i < 8; i++){
		oled_pos(i, 0);
		for (uint16_t i = 0 ; i < 128; i++){
    17f2:	21 15       	cp	r18, r1
    17f4:	31 05       	cpc	r19, r1
    17f6:	b1 f7       	brne	.-20     	; 0x17e4 <oled_reset+0x1e>
    17f8:	21 96       	adiw	r28, 0x01	; 1
		SRAM[i] = ' ';
	}
}
void oled_reset(){
	
	for (uint8_t i = 0 ; i < 8; i++){
    17fa:	c8 30       	cpi	r28, 0x08	; 8
    17fc:	d1 05       	cpc	r29, r1
    17fe:	59 f7       	brne	.-42     	; 0x17d6 <oled_reset+0x10>
		oled_pos(i, 0);
		for (uint16_t i = 0 ; i < 128; i++){
			*OLED_d = 0x00;
		}
	}
}
    1800:	df 91       	pop	r29
    1802:	cf 91       	pop	r28
    1804:	1f 91       	pop	r17
    1806:	0f 91       	pop	r16
    1808:	08 95       	ret

0000180a <oled_home>:
	oled_goto_column(column);
}


void oled_home(){
	oled_pos(0,0);
    180a:	60 e0       	ldi	r22, 0x00	; 0
    180c:	70 e0       	ldi	r23, 0x00	; 0
    180e:	80 e0       	ldi	r24, 0x00	; 0
    1810:	90 e0       	ldi	r25, 0x00	; 0
    1812:	0e 94 d8 0b 	call	0x17b0	; 0x17b0 <oled_pos>
    1816:	08 95       	ret

00001818 <oled_print_char>:
	for (uint16_t i = 0 ; i < 128; i++){
		*OLED_d = 0xff;
	}
}

void oled_print_char(char c){
    1818:	28 e0       	ldi	r18, 0x08	; 8
    181a:	82 9f       	mul	r24, r18
    181c:	c0 01       	movw	r24, r0
    181e:	11 24       	eor	r1, r1
    1820:	fc 01       	movw	r30, r24
    1822:	e0 59       	subi	r30, 0x90	; 144
    1824:	f0 40       	sbci	r31, 0x00	; 0
	for (uint8_t i = 0 ; i < 8 ; i++){  //i < 8 fordi vi bruker font8
    1826:	80 e0       	ldi	r24, 0x00	; 0
		*OLED_d = pgm_read_byte(&(font8[c - ASCII_OFFSET][i]));
    1828:	a0 91 18 01 	lds	r26, 0x0118
    182c:	b0 91 19 01 	lds	r27, 0x0119
    1830:	94 91       	lpm	r25, Z
    1832:	9c 93       	st	X, r25
		*OLED_d = 0xff;
	}
}

void oled_print_char(char c){
	for (uint8_t i = 0 ; i < 8 ; i++){  //i < 8 fordi vi bruker font8
    1834:	8f 5f       	subi	r24, 0xFF	; 255
    1836:	31 96       	adiw	r30, 0x01	; 1
    1838:	88 30       	cpi	r24, 0x08	; 8
    183a:	b1 f7       	brne	.-20     	; 0x1828 <oled_print_char+0x10>
		*OLED_d = pgm_read_byte(&(font8[c - ASCII_OFFSET][i]));
	}
}
    183c:	08 95       	ret

0000183e <oled_sram_string>:
			oled_print_char(oled_read_SRAM(i, j)); 
		}
	}
}

void oled_sram_string(char* string, int page, int start_col){
    183e:	0f 93       	push	r16
    1840:	1f 93       	push	r17
    1842:	cf 93       	push	r28
    1844:	df 93       	push	r29
    1846:	dc 01       	movw	r26, r24
	int col = start_col;
    1848:	9a 01       	movw	r18, r20
	
	for(uint8_t i = 0 ; i < strlen(string) ; i++){
    184a:	c0 e0       	ldi	r28, 0x00	; 0
		if (i+start_col == 16){
			//16 char per column, linjeskift
			page = (page+1)%8;
			col = start_col;
    184c:	14 2f       	mov	r17, r20
    184e:	d5 2f       	mov	r29, r21
}

void oled_sram_string(char* string, int page, int start_col){
	int col = start_col;
	
	for(uint8_t i = 0 ; i < strlen(string) ; i++){
    1850:	29 c0       	rjmp	.+82     	; 0x18a4 <oled_sram_string+0x66>
		if (i+start_col == 16){
    1852:	fa 01       	movw	r30, r20
    1854:	ec 0f       	add	r30, r28
    1856:	f1 1d       	adc	r31, r1
    1858:	70 97       	sbiw	r30, 0x10	; 16
    185a:	71 f4       	brne	.+28     	; 0x1878 <oled_sram_string+0x3a>
			//16 char per column, linjeskift
			page = (page+1)%8;
    185c:	6f 5f       	subi	r22, 0xFF	; 255
    185e:	7f 4f       	sbci	r23, 0xFF	; 255
    1860:	67 70       	andi	r22, 0x07	; 7
    1862:	70 78       	andi	r23, 0x80	; 128
    1864:	77 23       	and	r23, r23
    1866:	34 f4       	brge	.+12     	; 0x1874 <oled_sram_string+0x36>
    1868:	61 50       	subi	r22, 0x01	; 1
    186a:	71 09       	sbc	r23, r1
    186c:	68 6f       	ori	r22, 0xF8	; 248
    186e:	7f 6f       	ori	r23, 0xFF	; 255
    1870:	6f 5f       	subi	r22, 0xFF	; 255
    1872:	7f 4f       	sbci	r23, 0xFF	; 255
			col = start_col;
    1874:	21 2f       	mov	r18, r17
    1876:	3d 2f       	mov	r19, r29
		}
		oled_sram_char(string[i], page, col);
    1878:	fd 01       	movw	r30, r26
    187a:	e8 0f       	add	r30, r24
    187c:	f9 1f       	adc	r31, r25
    187e:	00 81       	ld	r16, Z
	}
}


void oled_sram_char(char c, int page, int col){
	SRAM[128 * page + col] = c;
    1880:	fb 01       	movw	r30, r22
    1882:	f6 95       	lsr	r31
    1884:	fe 2f       	mov	r31, r30
    1886:	ee 27       	eor	r30, r30
    1888:	f7 95       	ror	r31
    188a:	e7 95       	ror	r30
    188c:	e2 0f       	add	r30, r18
    188e:	f3 1f       	adc	r31, r19
    1890:	80 91 16 01 	lds	r24, 0x0116
    1894:	90 91 17 01 	lds	r25, 0x0117
    1898:	e8 0f       	add	r30, r24
    189a:	f9 1f       	adc	r31, r25
    189c:	00 83       	st	Z, r16
			//16 char per column, linjeskift
			page = (page+1)%8;
			col = start_col;
		}
		oled_sram_char(string[i], page, col);
		col++;
    189e:	2f 5f       	subi	r18, 0xFF	; 255
    18a0:	3f 4f       	sbci	r19, 0xFF	; 255
}

void oled_sram_string(char* string, int page, int start_col){
	int col = start_col;
	
	for(uint8_t i = 0 ; i < strlen(string) ; i++){
    18a2:	cf 5f       	subi	r28, 0xFF	; 255
    18a4:	8c 2f       	mov	r24, r28
    18a6:	90 e0       	ldi	r25, 0x00	; 0
    18a8:	fd 01       	movw	r30, r26
    18aa:	01 90       	ld	r0, Z+
    18ac:	00 20       	and	r0, r0
    18ae:	e9 f7       	brne	.-6      	; 0x18aa <oled_sram_string+0x6c>
    18b0:	31 97       	sbiw	r30, 0x01	; 1
    18b2:	ea 1b       	sub	r30, r26
    18b4:	fb 0b       	sbc	r31, r27
    18b6:	8e 17       	cp	r24, r30
    18b8:	9f 07       	cpc	r25, r31
    18ba:	58 f2       	brcs	.-106    	; 0x1852 <oled_sram_string+0x14>
			col = start_col;
		}
		oled_sram_char(string[i], page, col);
		col++;
	}
}
    18bc:	df 91       	pop	r29
    18be:	cf 91       	pop	r28
    18c0:	1f 91       	pop	r17
    18c2:	0f 91       	pop	r16
    18c4:	08 95       	ret

000018c6 <oled_sram_char>:


void oled_sram_char(char c, int page, int col){
	SRAM[128 * page + col] = c;
    18c6:	76 95       	lsr	r23
    18c8:	76 2f       	mov	r23, r22
    18ca:	66 27       	eor	r22, r22
    18cc:	77 95       	ror	r23
    18ce:	67 95       	ror	r22
    18d0:	64 0f       	add	r22, r20
    18d2:	75 1f       	adc	r23, r21
    18d4:	e0 91 16 01 	lds	r30, 0x0116
    18d8:	f0 91 17 01 	lds	r31, 0x0117
    18dc:	e6 0f       	add	r30, r22
    18de:	f7 1f       	adc	r31, r23
    18e0:	80 83       	st	Z, r24
    18e2:	08 95       	ret

000018e4 <oled_read_SRAM>:
}


char oled_read_SRAM(int page, int col){
	return SRAM[128 * page + col];
    18e4:	96 95       	lsr	r25
    18e6:	98 2f       	mov	r25, r24
    18e8:	88 27       	eor	r24, r24
    18ea:	97 95       	ror	r25
    18ec:	87 95       	ror	r24
    18ee:	68 0f       	add	r22, r24
    18f0:	79 1f       	adc	r23, r25
    18f2:	e0 91 16 01 	lds	r30, 0x0116
    18f6:	f0 91 17 01 	lds	r31, 0x0117
    18fa:	e6 0f       	add	r30, r22
    18fc:	f7 1f       	adc	r31, r23
    18fe:	80 81       	ld	r24, Z
}
    1900:	08 95       	ret

00001902 <oled_update>:
		*OLED_d = pgm_read_byte(&(font8[c - ASCII_OFFSET][i]));
	}
}


void oled_update(){
    1902:	0f 93       	push	r16
    1904:	1f 93       	push	r17
    1906:	cf 93       	push	r28
    1908:	df 93       	push	r29
	oled_reset();
    190a:	0e 94 e3 0b 	call	0x17c6	; 0x17c6 <oled_reset>
	oled_home();
    190e:	0e 94 05 0c 	call	0x180a	; 0x180a <oled_home>
	for(int i = 0; i<8; i++){
    1912:	00 e0       	ldi	r16, 0x00	; 0
    1914:	10 e0       	ldi	r17, 0x00	; 0
		oled_pos(i,0);
    1916:	60 e0       	ldi	r22, 0x00	; 0
    1918:	70 e0       	ldi	r23, 0x00	; 0
    191a:	c8 01       	movw	r24, r16
    191c:	0e 94 d8 0b 	call	0x17b0	; 0x17b0 <oled_pos>
		for(int j = 0; j < 16; j++){
    1920:	c0 e0       	ldi	r28, 0x00	; 0
    1922:	d0 e0       	ldi	r29, 0x00	; 0
			oled_print_char(oled_read_SRAM(i, j)); 
    1924:	be 01       	movw	r22, r28
    1926:	c8 01       	movw	r24, r16
    1928:	0e 94 72 0c 	call	0x18e4	; 0x18e4 <oled_read_SRAM>
    192c:	0e 94 0c 0c 	call	0x1818	; 0x1818 <oled_print_char>
void oled_update(){
	oled_reset();
	oled_home();
	for(int i = 0; i<8; i++){
		oled_pos(i,0);
		for(int j = 0; j < 16; j++){
    1930:	21 96       	adiw	r28, 0x01	; 1
    1932:	c0 31       	cpi	r28, 0x10	; 16
    1934:	d1 05       	cpc	r29, r1
    1936:	b1 f7       	brne	.-20     	; 0x1924 <oled_update+0x22>


void oled_update(){
	oled_reset();
	oled_home();
	for(int i = 0; i<8; i++){
    1938:	0f 5f       	subi	r16, 0xFF	; 255
    193a:	1f 4f       	sbci	r17, 0xFF	; 255
    193c:	08 30       	cpi	r16, 0x08	; 8
    193e:	11 05       	cpc	r17, r1
    1940:	51 f7       	brne	.-44     	; 0x1916 <oled_update+0x14>
		oled_pos(i,0);
		for(int j = 0; j < 16; j++){
			oled_print_char(oled_read_SRAM(i, j)); 
		}
	}
}
    1942:	df 91       	pop	r29
    1944:	cf 91       	pop	r28
    1946:	1f 91       	pop	r17
    1948:	0f 91       	pop	r16
    194a:	08 95       	ret

0000194c <oled_type_in_name>:
	oled_sram_string("****************",7,0);
} 



char* oled_type_in_name(char* score){
    194c:	8f 92       	push	r8
    194e:	9f 92       	push	r9
    1950:	af 92       	push	r10
    1952:	bf 92       	push	r11
    1954:	cf 92       	push	r12
    1956:	df 92       	push	r13
    1958:	ef 92       	push	r14
    195a:	ff 92       	push	r15
    195c:	0f 93       	push	r16
    195e:	1f 93       	push	r17
    1960:	cf 93       	push	r28
    1962:	df 93       	push	r29
    1964:	ec 01       	movw	r28, r24
	char* name = "AAA";
	//char* score_send = "";
	//itoa(score, score_send, 10);
	oled_sram_reset();
    1966:	0e 94 a3 0b 	call	0x1746	; 0x1746 <oled_sram_reset>
	oled_sram_string("NEW HIGHSCORE", 0, 0);
    196a:	40 e0       	ldi	r20, 0x00	; 0
    196c:	50 e0       	ldi	r21, 0x00	; 0
    196e:	60 e0       	ldi	r22, 0x00	; 0
    1970:	70 e0       	ldi	r23, 0x00	; 0
    1972:	81 e8       	ldi	r24, 0x81	; 129
    1974:	92 e0       	ldi	r25, 0x02	; 2
    1976:	0e 94 1f 0c 	call	0x183e	; 0x183e <oled_sram_string>
	oled_sram_string("^", 3, 0);
    197a:	40 e0       	ldi	r20, 0x00	; 0
    197c:	50 e0       	ldi	r21, 0x00	; 0
    197e:	63 e0       	ldi	r22, 0x03	; 3
    1980:	70 e0       	ldi	r23, 0x00	; 0
    1982:	8f e8       	ldi	r24, 0x8F	; 143
    1984:	92 e0       	ldi	r25, 0x02	; 2
    1986:	0e 94 1f 0c 	call	0x183e	; 0x183e <oled_sram_string>
	oled_sram_string(name, 4, 0);
    198a:	40 e0       	ldi	r20, 0x00	; 0
    198c:	50 e0       	ldi	r21, 0x00	; 0
    198e:	64 e0       	ldi	r22, 0x04	; 4
    1990:	70 e0       	ldi	r23, 0x00	; 0
    1992:	81 e9       	ldi	r24, 0x91	; 145
    1994:	92 e0       	ldi	r25, 0x02	; 2
    1996:	0e 94 1f 0c 	call	0x183e	; 0x183e <oled_sram_string>
	oled_sram_string("v", 5, 0);
    199a:	40 e0       	ldi	r20, 0x00	; 0
    199c:	50 e0       	ldi	r21, 0x00	; 0
    199e:	65 e0       	ldi	r22, 0x05	; 5
    19a0:	70 e0       	ldi	r23, 0x00	; 0
    19a2:	85 e9       	ldi	r24, 0x95	; 149
    19a4:	92 e0       	ldi	r25, 0x02	; 2
    19a6:	0e 94 1f 0c 	call	0x183e	; 0x183e <oled_sram_string>
	oled_sram_string(score, 4, 10);
    19aa:	4a e0       	ldi	r20, 0x0A	; 10
    19ac:	50 e0       	ldi	r21, 0x00	; 0
    19ae:	64 e0       	ldi	r22, 0x04	; 4
    19b0:	70 e0       	ldi	r23, 0x00	; 0
    19b2:	ce 01       	movw	r24, r28
    19b4:	0e 94 1f 0c 	call	0x183e	; 0x183e <oled_sram_string>
	oled_update();
    19b8:	0e 94 81 0c 	call	0x1902	; 0x1902 <oled_update>
	int i = 0;
	char current_letter = 'A';
    19bc:	0f 2e       	mov	r0, r31
    19be:	f1 e4       	ldi	r31, 0x41	; 65
    19c0:	8f 2e       	mov	r8, r31
    19c2:	f0 2d       	mov	r31, r0
	oled_sram_string("^", 3, 0);
	oled_sram_string(name, 4, 0);
	oled_sram_string("v", 5, 0);
	oled_sram_string(score, 4, 10);
	oled_update();
	int i = 0;
    19c4:	c0 e0       	ldi	r28, 0x00	; 0
    19c6:	d0 e0       	ldi	r29, 0x00	; 0
    19c8:	0f 2e       	mov	r0, r31
    19ca:	ff ee       	ldi	r31, 0xEF	; 239
    19cc:	af 2e       	mov	r10, r31
    19ce:	f2 e0       	ldi	r31, 0x02	; 2
    19d0:	bf 2e       	mov	r11, r31
    19d2:	f0 2d       	mov	r31, r0
    19d4:	0f 2e       	mov	r0, r31
    19d6:	f9 ef       	ldi	r31, 0xF9	; 249
    19d8:	cf 2e       	mov	r12, r31
    19da:	f2 e0       	ldi	r31, 0x02	; 2
    19dc:	df 2e       	mov	r13, r31
    19de:	f0 2d       	mov	r31, r0
				
				
			}
			for (int i = 0; i < 5; i++)
			{
				printf("NAMES: %s\n", highscore_names[i]);
    19e0:	0f 2e       	mov	r0, r31
    19e2:	f7 e9       	ldi	r31, 0x97	; 151
    19e4:	ef 2e       	mov	r14, r31
    19e6:	f2 e0       	ldi	r31, 0x02	; 2
    19e8:	ff 2e       	mov	r15, r31
    19ea:	f0 2d       	mov	r31, r0
	oled_update();
	int i = 0;
	char current_letter = 'A';

	while (i < 3){
		if(button_read(LEFT_BUTTON)){
    19ec:	81 e0       	ldi	r24, 0x01	; 1
    19ee:	90 e0       	ldi	r25, 0x00	; 0
    19f0:	0e 94 57 07 	call	0xeae	; 0xeae <button_read>
    19f4:	89 2b       	or	r24, r25
    19f6:	09 f0       	breq	.+2      	; 0x19fa <oled_type_in_name+0xae>
    19f8:	a8 c0       	rjmp	.+336    	; 0x1b4a <oled_type_in_name+0x1fe>
			break;
		}
		joystick_dir joy_dir = find_joystick_dir();
    19fa:	0e 94 68 07 	call	0xed0	; 0xed0 <find_joystick_dir>
    19fe:	98 2e       	mov	r9, r24
		if(prev_joy_dir != joy_dir){
    1a00:	80 91 15 01 	lds	r24, 0x0115
    1a04:	89 15       	cp	r24, r9
    1a06:	09 f4       	brne	.+2      	; 0x1a0a <oled_type_in_name+0xbe>
    1a08:	9c c0       	rjmp	.+312    	; 0x1b42 <oled_type_in_name+0x1f6>
			
			switch(joy_dir){
    1a0a:	81 e0       	ldi	r24, 0x01	; 1
    1a0c:	98 16       	cp	r9, r24
    1a0e:	79 f0       	breq	.+30     	; 0x1a2e <oled_type_in_name+0xe2>
    1a10:	98 16       	cp	r9, r24
    1a12:	38 f0       	brcs	.+14     	; 0x1a22 <oled_type_in_name+0xd6>
    1a14:	e2 e0       	ldi	r30, 0x02	; 2
    1a16:	9e 16       	cp	r9, r30
    1a18:	99 f0       	breq	.+38     	; 0x1a40 <oled_type_in_name+0xf4>
    1a1a:	f3 e0       	ldi	r31, 0x03	; 3
    1a1c:	9f 16       	cp	r9, r31
    1a1e:	c9 f1       	breq	.+114    	; 0x1a92 <oled_type_in_name+0x146>
    1a20:	64 c0       	rjmp	.+200    	; 0x1aea <oled_type_in_name+0x19e>
				case UP:
				if(current_letter == 'A'){
    1a22:	81 e4       	ldi	r24, 0x41	; 65
    1a24:	88 16       	cp	r8, r24
    1a26:	09 f4       	brne	.+2      	; 0x1a2a <oled_type_in_name+0xde>
    1a28:	5c c0       	rjmp	.+184    	; 0x1ae2 <oled_type_in_name+0x196>
					current_letter = 'Z';
					}else{
					current_letter--;
    1a2a:	8a 94       	dec	r8
    1a2c:	5e c0       	rjmp	.+188    	; 0x1aea <oled_type_in_name+0x19e>
				}
				break;
				case DOWN:
				if(current_letter == 'Z'){
    1a2e:	ea e5       	ldi	r30, 0x5A	; 90
    1a30:	8e 16       	cp	r8, r30
    1a32:	11 f0       	breq	.+4      	; 0x1a38 <oled_type_in_name+0xec>
					current_letter = 'A';
					}else{
					current_letter++;
    1a34:	83 94       	inc	r8
					break;
    1a36:	59 c0       	rjmp	.+178    	; 0x1aea <oled_type_in_name+0x19e>
					current_letter--;
				}
				break;
				case DOWN:
				if(current_letter == 'Z'){
					current_letter = 'A';
    1a38:	0f 2e       	mov	r0, r31
    1a3a:	f1 e4       	ldi	r31, 0x41	; 65
    1a3c:	8f 2e       	mov	r8, r31
    1a3e:	f0 2d       	mov	r31, r0
					}else{
					current_letter++;
					break;
				}
				case RIGHT:
				if(i < 2){
    1a40:	c2 30       	cpi	r28, 0x02	; 2
    1a42:	d1 05       	cpc	r29, r1
    1a44:	0c f0       	brlt	.+2      	; 0x1a48 <oled_type_in_name+0xfc>
    1a46:	51 c0       	rjmp	.+162    	; 0x1aea <oled_type_in_name+0x19e>
					current_letter = 'A';
					i++;
    1a48:	8e 01       	movw	r16, r28
    1a4a:	0f 5f       	subi	r16, 0xFF	; 255
    1a4c:	1f 4f       	sbci	r17, 0xFF	; 255
					oled_sram_string("^", 3, i);
    1a4e:	a8 01       	movw	r20, r16
    1a50:	63 e0       	ldi	r22, 0x03	; 3
    1a52:	70 e0       	ldi	r23, 0x00	; 0
    1a54:	8f e8       	ldi	r24, 0x8F	; 143
    1a56:	92 e0       	ldi	r25, 0x02	; 2
    1a58:	0e 94 1f 0c 	call	0x183e	; 0x183e <oled_sram_string>
					oled_sram_string("v", 5, i);
    1a5c:	a8 01       	movw	r20, r16
    1a5e:	65 e0       	ldi	r22, 0x05	; 5
    1a60:	70 e0       	ldi	r23, 0x00	; 0
    1a62:	85 e9       	ldi	r24, 0x95	; 149
    1a64:	92 e0       	ldi	r25, 0x02	; 2
    1a66:	0e 94 1f 0c 	call	0x183e	; 0x183e <oled_sram_string>
					oled_sram_string(" ", 3, i-1);
    1a6a:	ae 01       	movw	r20, r28
    1a6c:	63 e0       	ldi	r22, 0x03	; 3
    1a6e:	70 e0       	ldi	r23, 0x00	; 0
    1a70:	8d ec       	ldi	r24, 0xCD	; 205
    1a72:	91 e0       	ldi	r25, 0x01	; 1
    1a74:	0e 94 1f 0c 	call	0x183e	; 0x183e <oled_sram_string>
					oled_sram_string(" ", 5, i-1);
    1a78:	ae 01       	movw	r20, r28
    1a7a:	65 e0       	ldi	r22, 0x05	; 5
    1a7c:	70 e0       	ldi	r23, 0x00	; 0
    1a7e:	8d ec       	ldi	r24, 0xCD	; 205
    1a80:	91 e0       	ldi	r25, 0x01	; 1
    1a82:	0e 94 1f 0c 	call	0x183e	; 0x183e <oled_sram_string>
					break;
				}
				case RIGHT:
				if(i < 2){
					current_letter = 'A';
					i++;
    1a86:	e8 01       	movw	r28, r16
					current_letter++;
					break;
				}
				case RIGHT:
				if(i < 2){
					current_letter = 'A';
    1a88:	0f 2e       	mov	r0, r31
    1a8a:	f1 e4       	ldi	r31, 0x41	; 65
    1a8c:	8f 2e       	mov	r8, r31
    1a8e:	f0 2d       	mov	r31, r0
    1a90:	2c c0       	rjmp	.+88     	; 0x1aea <oled_type_in_name+0x19e>
					oled_sram_string(" ", 3, i-1);
					oled_sram_string(" ", 5, i-1);
				}
				break;
				case LEFT:
				if(i>0){
    1a92:	1c 16       	cp	r1, r28
    1a94:	1d 06       	cpc	r1, r29
    1a96:	4c f5       	brge	.+82     	; 0x1aea <oled_type_in_name+0x19e>
					current_letter = name[i-1];
    1a98:	fe 01       	movw	r30, r28
    1a9a:	e0 57       	subi	r30, 0x70	; 112
    1a9c:	fd 4f       	sbci	r31, 0xFD	; 253
    1a9e:	80 80       	ld	r8, Z
					i--;
    1aa0:	8e 01       	movw	r16, r28
    1aa2:	01 50       	subi	r16, 0x01	; 1
    1aa4:	11 09       	sbc	r17, r1
					oled_sram_string("^", 3, i);
    1aa6:	a8 01       	movw	r20, r16
    1aa8:	63 e0       	ldi	r22, 0x03	; 3
    1aaa:	70 e0       	ldi	r23, 0x00	; 0
    1aac:	8f e8       	ldi	r24, 0x8F	; 143
    1aae:	92 e0       	ldi	r25, 0x02	; 2
    1ab0:	0e 94 1f 0c 	call	0x183e	; 0x183e <oled_sram_string>
					oled_sram_string("v", 5, i);
    1ab4:	a8 01       	movw	r20, r16
    1ab6:	65 e0       	ldi	r22, 0x05	; 5
    1ab8:	70 e0       	ldi	r23, 0x00	; 0
    1aba:	85 e9       	ldi	r24, 0x95	; 149
    1abc:	92 e0       	ldi	r25, 0x02	; 2
    1abe:	0e 94 1f 0c 	call	0x183e	; 0x183e <oled_sram_string>
					oled_sram_string(" ", 3, i+1);
    1ac2:	ae 01       	movw	r20, r28
    1ac4:	63 e0       	ldi	r22, 0x03	; 3
    1ac6:	70 e0       	ldi	r23, 0x00	; 0
    1ac8:	8d ec       	ldi	r24, 0xCD	; 205
    1aca:	91 e0       	ldi	r25, 0x01	; 1
    1acc:	0e 94 1f 0c 	call	0x183e	; 0x183e <oled_sram_string>
					oled_sram_string(" ", 5, i+1);
    1ad0:	ae 01       	movw	r20, r28
    1ad2:	65 e0       	ldi	r22, 0x05	; 5
    1ad4:	70 e0       	ldi	r23, 0x00	; 0
    1ad6:	8d ec       	ldi	r24, 0xCD	; 205
    1ad8:	91 e0       	ldi	r25, 0x01	; 1
    1ada:	0e 94 1f 0c 	call	0x183e	; 0x183e <oled_sram_string>
				}
				break;
				case LEFT:
				if(i>0){
					current_letter = name[i-1];
					i--;
    1ade:	e8 01       	movw	r28, r16
    1ae0:	04 c0       	rjmp	.+8      	; 0x1aea <oled_type_in_name+0x19e>
		if(prev_joy_dir != joy_dir){
			
			switch(joy_dir){
				case UP:
				if(current_letter == 'A'){
					current_letter = 'Z';
    1ae2:	0f 2e       	mov	r0, r31
    1ae4:	fa e5       	ldi	r31, 0x5A	; 90
    1ae6:	8f 2e       	mov	r8, r31
    1ae8:	f0 2d       	mov	r31, r0
    1aea:	85 01       	movw	r16, r10
				
				
			}
			for (int i = 0; i < 5; i++)
			{
				printf("NAMES: %s\n", highscore_names[i]);
    1aec:	f8 01       	movw	r30, r16
    1aee:	80 81       	ld	r24, Z
    1af0:	91 81       	ldd	r25, Z+1	; 0x01
    1af2:	0e 5f       	subi	r16, 0xFE	; 254
    1af4:	1f 4f       	sbci	r17, 0xFF	; 255
    1af6:	9f 93       	push	r25
    1af8:	8f 93       	push	r24
    1afa:	ff 92       	push	r15
    1afc:	ef 92       	push	r14
    1afe:	0e 94 54 11 	call	0x22a8	; 0x22a8 <printf>
				break;
				
				
				
			}
			for (int i = 0; i < 5; i++)
    1b02:	0f 90       	pop	r0
    1b04:	0f 90       	pop	r0
    1b06:	0f 90       	pop	r0
    1b08:	0f 90       	pop	r0
    1b0a:	0c 15       	cp	r16, r12
    1b0c:	1d 05       	cpc	r17, r13
    1b0e:	71 f7       	brne	.-36     	; 0x1aec <oled_type_in_name+0x1a0>
			{
				printf("NAMES: %s\n", highscore_names[i]);
			}
			printf("---------------------------------- \n");
    1b10:	82 ea       	ldi	r24, 0xA2	; 162
    1b12:	92 e0       	ldi	r25, 0x02	; 2
    1b14:	0e 94 6f 11 	call	0x22de	; 0x22de <puts>
			
			prev_joy_dir = joy_dir;
    1b18:	90 92 15 01 	sts	0x0115, r9
			name[i] = current_letter;
    1b1c:	fe 01       	movw	r30, r28
    1b1e:	ef 56       	subi	r30, 0x6F	; 111
    1b20:	fd 4f       	sbci	r31, 0xFD	; 253
    1b22:	80 82       	st	Z, r8
			oled_sram_string(name, 4, 0);
    1b24:	40 e0       	ldi	r20, 0x00	; 0
    1b26:	50 e0       	ldi	r21, 0x00	; 0
    1b28:	64 e0       	ldi	r22, 0x04	; 4
    1b2a:	70 e0       	ldi	r23, 0x00	; 0
    1b2c:	81 e9       	ldi	r24, 0x91	; 145
    1b2e:	92 e0       	ldi	r25, 0x02	; 2
    1b30:	0e 94 1f 0c 	call	0x183e	; 0x183e <oled_sram_string>
			oled_update();
    1b34:	0e 94 81 0c 	call	0x1902	; 0x1902 <oled_update>
	oled_sram_string(score, 4, 10);
	oled_update();
	int i = 0;
	char current_letter = 'A';

	while (i < 3){
    1b38:	c3 30       	cpi	r28, 0x03	; 3
    1b3a:	d1 05       	cpc	r29, r1
    1b3c:	0c f4       	brge	.+2      	; 0x1b40 <oled_type_in_name+0x1f4>
    1b3e:	56 cf       	rjmp	.-340    	; 0x19ec <oled_type_in_name+0xa0>
    1b40:	04 c0       	rjmp	.+8      	; 0x1b4a <oled_type_in_name+0x1fe>
    1b42:	c3 30       	cpi	r28, 0x03	; 3
    1b44:	d1 05       	cpc	r29, r1
    1b46:	0c f4       	brge	.+2      	; 0x1b4a <oled_type_in_name+0x1fe>
    1b48:	51 cf       	rjmp	.-350    	; 0x19ec <oled_type_in_name+0xa0>
			oled_update();
		}
		
	}
	return name;
}
    1b4a:	81 e9       	ldi	r24, 0x91	; 145
    1b4c:	92 e0       	ldi	r25, 0x02	; 2
    1b4e:	df 91       	pop	r29
    1b50:	cf 91       	pop	r28
    1b52:	1f 91       	pop	r17
    1b54:	0f 91       	pop	r16
    1b56:	ff 90       	pop	r15
    1b58:	ef 90       	pop	r14
    1b5a:	df 90       	pop	r13
    1b5c:	cf 90       	pop	r12
    1b5e:	bf 90       	pop	r11
    1b60:	af 90       	pop	r10
    1b62:	9f 90       	pop	r9
    1b64:	8f 90       	pop	r8
    1b66:	08 95       	ret

00001b68 <oled_play_game>:

void oled_play_game(int life, int score){
    1b68:	cf 93       	push	r28
    1b6a:	c8 2f       	mov	r28, r24
    1b6c:	cb 01       	movw	r24, r22
    } else if (__radix < 2 || __radix > 36) {
	*__s = 0;
	return __s;
    } else {
	extern char *__itoa_ncheck (int, char *, unsigned char);
	return __itoa_ncheck (__val, __s, __radix);
    1b6e:	4a e0       	ldi	r20, 0x0A	; 10
    1b70:	6f e7       	ldi	r22, 0x7F	; 127
    1b72:	71 e0       	ldi	r23, 0x01	; 1
    1b74:	0e 94 e4 10 	call	0x21c8	; 0x21c8 <__itoa_ncheck>
	char* score_send = ""; 
	itoa(score, score_send, 10);
	oled_sram_reset();
    1b78:	0e 94 a3 0b 	call	0x1746	; 0x1746 <oled_sram_reset>
	oled_sram_string("PINGPONG GAME", 0, 0);
    1b7c:	40 e0       	ldi	r20, 0x00	; 0
    1b7e:	50 e0       	ldi	r21, 0x00	; 0
    1b80:	60 e0       	ldi	r22, 0x00	; 0
    1b82:	70 e0       	ldi	r23, 0x00	; 0
    1b84:	86 ec       	ldi	r24, 0xC6	; 198
    1b86:	92 e0       	ldi	r25, 0x02	; 2
    1b88:	0e 94 1f 0c 	call	0x183e	; 0x183e <oled_sram_string>
	oled_sram_string("LIVES", 3, 0);
    1b8c:	40 e0       	ldi	r20, 0x00	; 0
    1b8e:	50 e0       	ldi	r21, 0x00	; 0
    1b90:	63 e0       	ldi	r22, 0x03	; 3
    1b92:	70 e0       	ldi	r23, 0x00	; 0
    1b94:	84 ed       	ldi	r24, 0xD4	; 212
    1b96:	92 e0       	ldi	r25, 0x02	; 2
    1b98:	0e 94 1f 0c 	call	0x183e	; 0x183e <oled_sram_string>
	oled_sram_string("SCORE", 3, 9);
    1b9c:	49 e0       	ldi	r20, 0x09	; 9
    1b9e:	50 e0       	ldi	r21, 0x00	; 0
    1ba0:	63 e0       	ldi	r22, 0x03	; 3
    1ba2:	70 e0       	ldi	r23, 0x00	; 0
    1ba4:	89 e8       	ldi	r24, 0x89	; 137
    1ba6:	92 e0       	ldi	r25, 0x02	; 2
    1ba8:	0e 94 1f 0c 	call	0x183e	; 0x183e <oled_sram_string>
	oled_sram_char(life + '0', 5, 2);
    1bac:	c0 5d       	subi	r28, 0xD0	; 208
	}
}


void oled_sram_char(char c, int page, int col){
	SRAM[128 * page + col] = c;
    1bae:	e0 91 16 01 	lds	r30, 0x0116
    1bb2:	f0 91 17 01 	lds	r31, 0x0117
    1bb6:	ee 57       	subi	r30, 0x7E	; 126
    1bb8:	fd 4f       	sbci	r31, 0xFD	; 253
    1bba:	c0 83       	st	Z, r28
	oled_sram_reset();
	oled_sram_string("PINGPONG GAME", 0, 0);
	oled_sram_string("LIVES", 3, 0);
	oled_sram_string("SCORE", 3, 9);
	oled_sram_char(life + '0', 5, 2);
	oled_sram_string(score_send, 5, 10);
    1bbc:	4a e0       	ldi	r20, 0x0A	; 10
    1bbe:	50 e0       	ldi	r21, 0x00	; 0
    1bc0:	65 e0       	ldi	r22, 0x05	; 5
    1bc2:	70 e0       	ldi	r23, 0x00	; 0
    1bc4:	8f e7       	ldi	r24, 0x7F	; 127
    1bc6:	91 e0       	ldi	r25, 0x01	; 1
    1bc8:	0e 94 1f 0c 	call	0x183e	; 0x183e <oled_sram_string>
	oled_update();
    1bcc:	0e 94 81 0c 	call	0x1902	; 0x1902 <oled_update>
		
}
    1bd0:	cf 91       	pop	r28
    1bd2:	08 95       	ret

00001bd4 <oled_game_over>:
void oled_game_over(void){
	oled_sram_reset(); 
    1bd4:	0e 94 a3 0b 	call	0x1746	; 0x1746 <oled_sram_reset>
	oled_sram_string("YOU LOSE", 4, 0); 
    1bd8:	40 e0       	ldi	r20, 0x00	; 0
    1bda:	50 e0       	ldi	r21, 0x00	; 0
    1bdc:	64 e0       	ldi	r22, 0x04	; 4
    1bde:	70 e0       	ldi	r23, 0x00	; 0
    1be0:	8a ed       	ldi	r24, 0xDA	; 218
    1be2:	92 e0       	ldi	r25, 0x02	; 2
    1be4:	0e 94 1f 0c 	call	0x183e	; 0x183e <oled_sram_string>
	oled_update(); 
    1be8:	0e 94 81 0c 	call	0x1902	; 0x1902 <oled_update>
    1bec:	08 95       	ret

00001bee <oled_play_again>:
}

void oled_play_again(){
	oled_sram_reset();
    1bee:	0e 94 a3 0b 	call	0x1746	; 0x1746 <oled_sram_reset>
	oled_sram_string("Play again?", 0, 0); 
    1bf2:	40 e0       	ldi	r20, 0x00	; 0
    1bf4:	50 e0       	ldi	r21, 0x00	; 0
    1bf6:	60 e0       	ldi	r22, 0x00	; 0
    1bf8:	70 e0       	ldi	r23, 0x00	; 0
    1bfa:	83 ee       	ldi	r24, 0xE3	; 227
    1bfc:	92 e0       	ldi	r25, 0x02	; 2
    1bfe:	0e 94 1f 0c 	call	0x183e	; 0x183e <oled_sram_string>
	oled_sram_string("YES", 4, 0); 
    1c02:	40 e0       	ldi	r20, 0x00	; 0
    1c04:	50 e0       	ldi	r21, 0x00	; 0
    1c06:	64 e0       	ldi	r22, 0x04	; 4
    1c08:	70 e0       	ldi	r23, 0x00	; 0
    1c0a:	84 e4       	ldi	r24, 0x44	; 68
    1c0c:	92 e0       	ldi	r25, 0x02	; 2
    1c0e:	0e 94 1f 0c 	call	0x183e	; 0x183e <oled_sram_string>
	oled_sram_string("NO", 4, 9);
    1c12:	49 e0       	ldi	r20, 0x09	; 9
    1c14:	50 e0       	ldi	r21, 0x00	; 0
    1c16:	64 e0       	ldi	r22, 0x04	; 4
    1c18:	70 e0       	ldi	r23, 0x00	; 0
    1c1a:	88 e4       	ldi	r24, 0x48	; 72
    1c1c:	92 e0       	ldi	r25, 0x02	; 2
    1c1e:	0e 94 1f 0c 	call	0x183e	; 0x183e <oled_sram_string>
	oled_update();
    1c22:	0e 94 81 0c 	call	0x1902	; 0x1902 <oled_update>
    1c26:	08 95       	ret

00001c28 <int_to_str>:
    1c28:	4a e0       	ldi	r20, 0x0A	; 10
    1c2a:	6f e7       	ldi	r22, 0x7F	; 127
    1c2c:	71 e0       	ldi	r23, 0x01	; 1
    1c2e:	0e 94 e4 10 	call	0x21c8	; 0x21c8 <__itoa_ncheck>

char* int_to_str(int data){
	char* data_str = "";
	itoa(data, data_str, 10);
	return data_str;
}
    1c32:	8f e7       	ldi	r24, 0x7F	; 127
    1c34:	91 e0       	ldi	r25, 0x01	; 1
    1c36:	08 95       	ret

00001c38 <ps2_poll>:

// The poll command is sent to get the status of each button,
//  and to set the speed of the motors. Can also turn on the
//  small motor
void ps2_poll(uint8_t speed, uint8_t smallmotor)
{
    1c38:	cf 93       	push	r28
    1c3a:	df 93       	push	r29
    1c3c:	c8 2f       	mov	r28, r24
    1c3e:	d6 2f       	mov	r29, r22
    uint8_t i = 0;
	set_bit(PORTB, MOSI);
    1c40:	c5 9a       	sbi	0x18, 5	; 24
	set_bit(PORTB,SCK);
    1c42:	c7 9a       	sbi	0x18, 7	; 24

    SPI_activate_SS_PS2(); // Attention
    1c44:	0e 94 04 0f 	call	0x1e08	; 0x1e08 <SPI_activate_SS_PS2>

    // Send command main polling
    rx_buffer[0] = SPI_read_write_PS2(0x01); //ID
    1c48:	81 e0       	ldi	r24, 0x01	; 1
    1c4a:	0e 94 f8 0e 	call	0x1df0	; 0x1df0 <SPI_read_write_PS2>
    1c4e:	80 93 88 03 	sts	0x0388, r24
    rx_buffer[1] = SPI_read_write_PS2(0x42); 
    1c52:	82 e4       	ldi	r24, 0x42	; 66
    1c54:	0e 94 f8 0e 	call	0x1df0	; 0x1df0 <SPI_read_write_PS2>
    1c58:	80 93 89 03 	sts	0x0389, r24
    rx_buffer[2] = SPI_read_write_PS2(0x00); //get Data
    1c5c:	80 e0       	ldi	r24, 0x00	; 0
    1c5e:	0e 94 f8 0e 	call	0x1df0	; 0x1df0 <SPI_read_write_PS2>
    1c62:	80 93 8a 03 	sts	0x038A, r24
	
    // Motors on/off
    rx_buffer[3] = SPI_read_write_PS2(smallmotor); // 0x01 => small motor on
    1c66:	8d 2f       	mov	r24, r29
    1c68:	0e 94 f8 0e 	call	0x1df0	; 0x1df0 <SPI_read_write_PS2>
    1c6c:	80 93 8b 03 	sts	0x038B, r24
    rx_buffer[4] = SPI_read_write_PS2(speed);      // Big motor speed
    1c70:	8c 2f       	mov	r24, r28
    1c72:	0e 94 f8 0e 	call	0x1df0	; 0x1df0 <SPI_read_write_PS2>
    1c76:	80 93 8c 03 	sts	0x038C, r24

    // Joystick:
    joy_values.rx = SPI_read_write_PS2(0x00);
    1c7a:	80 e0       	ldi	r24, 0x00	; 0
    1c7c:	0e 94 f8 0e 	call	0x1df0	; 0x1df0 <SPI_read_write_PS2>
    1c80:	80 93 86 03 	sts	0x0386, r24
    joy_values.ry = SPI_read_write_PS2(0x00);
    1c84:	80 e0       	ldi	r24, 0x00	; 0
    1c86:	0e 94 f8 0e 	call	0x1df0	; 0x1df0 <SPI_read_write_PS2>
    1c8a:	80 93 87 03 	sts	0x0387, r24
    joy_values.lx = SPI_read_write_PS2(0x00);
    1c8e:	80 e0       	ldi	r24, 0x00	; 0
    1c90:	0e 94 f8 0e 	call	0x1df0	; 0x1df0 <SPI_read_write_PS2>
    1c94:	80 93 84 03 	sts	0x0384, r24
    joy_values.ly = SPI_read_write_PS2(0x00);
    1c98:	80 e0       	ldi	r24, 0x00	; 0
    1c9a:	0e 94 f8 0e 	call	0x1df0	; 0x1df0 <SPI_read_write_PS2>
    1c9e:	80 93 85 03 	sts	0x0385, r24
    1ca2:	8c ec       	ldi	r24, 0xCC	; 204
    1ca4:	94 e0       	ldi	r25, 0x04	; 4
    1ca6:	01 97       	sbiw	r24, 0x01	; 1
    1ca8:	f1 f7       	brne	.-4      	; 0x1ca6 <ps2_poll+0x6e>
    1caa:	00 c0       	rjmp	.+0      	; 0x1cac <ps2_poll+0x74>
    1cac:	00 00       	nop


	_delay_ms(1);

    SPI_deactivate_SS_PS2(); // Attention off
    1cae:	0e 94 07 0f 	call	0x1e0e	; 0x1e0e <SPI_deactivate_SS_PS2>
}
    1cb2:	df 91       	pop	r29
    1cb4:	cf 91       	pop	r28
    1cb6:	08 95       	ret

00001cb8 <ps2_send_cmd>:

// A general function for sending commands to the ps2 controller via SPI
void ps2_send_cmd(const uint8_t *cmd, uint8_t length)
{
    1cb8:	cf 92       	push	r12
    1cba:	df 92       	push	r13
    1cbc:	ef 92       	push	r14
    1cbe:	ff 92       	push	r15
    1cc0:	0f 93       	push	r16
    1cc2:	1f 93       	push	r17
    1cc4:	cf 93       	push	r28
    1cc6:	df 93       	push	r29
    1cc8:	ec 01       	movw	r28, r24
    1cca:	16 2f       	mov	r17, r22
    uint8_t i = 0;
    SPI_activate_SS_PS2();
    1ccc:	0e 94 04 0f 	call	0x1e08	; 0x1e08 <SPI_activate_SS_PS2>
    for(i=0; i<length; i++){
    1cd0:	11 23       	and	r17, r17
    1cd2:	a9 f0       	breq	.+42     	; 0x1cfe <ps2_send_cmd+0x46>
    1cd4:	6e 01       	movw	r12, r28
    1cd6:	7e 01       	movw	r14, r28
    1cd8:	8f ef       	ldi	r24, 0xFF	; 255
    1cda:	e8 1a       	sub	r14, r24
    1cdc:	f8 0a       	sbc	r15, r24
    1cde:	11 50       	subi	r17, 0x01	; 1
    1ce0:	e1 0e       	add	r14, r17
    1ce2:	f1 1c       	adc	r15, r1
    1ce4:	8e 01       	movw	r16, r28
    1ce6:	0c 19       	sub	r16, r12
    1ce8:	1d 09       	sbc	r17, r13
		 rx_buffer[i] = SPI_read_write_PS2(cmd[i]);
    1cea:	89 91       	ld	r24, Y+
    1cec:	0e 94 f8 0e 	call	0x1df0	; 0x1df0 <SPI_read_write_PS2>
    1cf0:	f8 01       	movw	r30, r16
    1cf2:	e8 57       	subi	r30, 0x78	; 120
    1cf4:	fc 4f       	sbci	r31, 0xFC	; 252
    1cf6:	80 83       	st	Z, r24
// A general function for sending commands to the ps2 controller via SPI
void ps2_send_cmd(const uint8_t *cmd, uint8_t length)
{
    uint8_t i = 0;
    SPI_activate_SS_PS2();
    for(i=0; i<length; i++){
    1cf8:	ce 15       	cp	r28, r14
    1cfa:	df 05       	cpc	r29, r15
    1cfc:	99 f7       	brne	.-26     	; 0x1ce4 <ps2_send_cmd+0x2c>
		 rx_buffer[i] = SPI_read_write_PS2(cmd[i]);
	}
    SPI_deactivate_SS_PS2();    
    1cfe:	0e 94 07 0f 	call	0x1e0e	; 0x1e0e <SPI_deactivate_SS_PS2>
}
    1d02:	df 91       	pop	r29
    1d04:	cf 91       	pop	r28
    1d06:	1f 91       	pop	r17
    1d08:	0f 91       	pop	r16
    1d0a:	ff 90       	pop	r15
    1d0c:	ef 90       	pop	r14
    1d0e:	df 90       	pop	r13
    1d10:	cf 90       	pop	r12
    1d12:	08 95       	ret

00001d14 <ps2_configmode>:

// Go into configuration mode to adjust the settings
void ps2_configmode()
{
    ps2_send_cmd(PS2_CONFIGMODE, 5);
    1d14:	65 e0       	ldi	r22, 0x05	; 5
    1d16:	8d e1       	ldi	r24, 0x1D	; 29
    1d18:	93 e0       	ldi	r25, 0x03	; 3
    1d1a:	0e 94 5c 0e 	call	0x1cb8	; 0x1cb8 <ps2_send_cmd>
    1d1e:	08 95       	ret

00001d20 <ps2_analogmode>:
}

// Force analog mode to enable pressure values
void ps2_analogmode()
{
    ps2_send_cmd(PS2_ANALOGMODE, 9);
    1d20:	69 e0       	ldi	r22, 0x09	; 9
    1d22:	84 e1       	ldi	r24, 0x14	; 20
    1d24:	93 e0       	ldi	r25, 0x03	; 3
    1d26:	0e 94 5c 0e 	call	0x1cb8	; 0x1cb8 <ps2_send_cmd>
    1d2a:	08 95       	ret

00001d2c <ps2_setupmotor>:
}

// Enable the internal vibration motors
void ps2_setupmotor()
{
    ps2_send_cmd(PS2_SETUPMOTOR, 9);
    1d2c:	69 e0       	ldi	r22, 0x09	; 9
    1d2e:	8b e0       	ldi	r24, 0x0B	; 11
    1d30:	93 e0       	ldi	r25, 0x03	; 3
    1d32:	0e 94 5c 0e 	call	0x1cb8	; 0x1cb8 <ps2_send_cmd>
    1d36:	08 95       	ret

00001d38 <ps2_returnpres>:
}

// Ask to get the pressure values as well
void ps2_returnpres()
{
    ps2_send_cmd(PS2_RETURNPRES, 9);
    1d38:	69 e0       	ldi	r22, 0x09	; 9
    1d3a:	82 e0       	ldi	r24, 0x02	; 2
    1d3c:	93 e0       	ldi	r25, 0x03	; 3
    1d3e:	0e 94 5c 0e 	call	0x1cb8	; 0x1cb8 <ps2_send_cmd>
    1d42:	08 95       	ret

00001d44 <ps2_exitconfig>:
}

// Exit configuration mode
void ps2_exitconfig()
{
    ps2_send_cmd(PS2_EXITCONFIG, 9);
    1d44:	69 e0       	ldi	r22, 0x09	; 9
    1d46:	89 ef       	ldi	r24, 0xF9	; 249
    1d48:	92 e0       	ldi	r25, 0x02	; 2
    1d4a:	0e 94 5c 0e 	call	0x1cb8	; 0x1cb8 <ps2_send_cmd>
    1d4e:	08 95       	ret

00001d50 <ps2_init>:
    1d50:	8f ef       	ldi	r24, 0xFF	; 255
    1d52:	9f e2       	ldi	r25, 0x2F	; 47
    1d54:	01 97       	sbiw	r24, 0x01	; 1
    1d56:	f1 f7       	brne	.-4      	; 0x1d54 <ps2_init+0x4>
    1d58:	00 c0       	rjmp	.+0      	; 0x1d5a <ps2_init+0xa>
    1d5a:	00 00       	nop
	uint8_t d = 0x00;
	// Attention pin idle high
	_delay_ms(10);
	
	// Configure controller to send everything
	ps2_configmode();
    1d5c:	0e 94 8a 0e 	call	0x1d14	; 0x1d14 <ps2_configmode>
    1d60:	9f ef       	ldi	r25, 0xFF	; 255
    1d62:	2f eb       	ldi	r18, 0xBF	; 191
    1d64:	83 e0       	ldi	r24, 0x03	; 3
    1d66:	91 50       	subi	r25, 0x01	; 1
    1d68:	20 40       	sbci	r18, 0x00	; 0
    1d6a:	80 40       	sbci	r24, 0x00	; 0
    1d6c:	e1 f7       	brne	.-8      	; 0x1d66 <ps2_init+0x16>
    1d6e:	00 c0       	rjmp	.+0      	; 0x1d70 <ps2_init+0x20>
    1d70:	00 00       	nop
	_delay_ms(250);
	ps2_analogmode();
    1d72:	0e 94 90 0e 	call	0x1d20	; 0x1d20 <ps2_analogmode>
    1d76:	9f ef       	ldi	r25, 0xFF	; 255
    1d78:	2f eb       	ldi	r18, 0xBF	; 191
    1d7a:	83 e0       	ldi	r24, 0x03	; 3
    1d7c:	91 50       	subi	r25, 0x01	; 1
    1d7e:	20 40       	sbci	r18, 0x00	; 0
    1d80:	80 40       	sbci	r24, 0x00	; 0
    1d82:	e1 f7       	brne	.-8      	; 0x1d7c <ps2_init+0x2c>
    1d84:	00 c0       	rjmp	.+0      	; 0x1d86 <ps2_init+0x36>
    1d86:	00 00       	nop
	_delay_ms(250);
	ps2_setupmotor();
    1d88:	0e 94 96 0e 	call	0x1d2c	; 0x1d2c <ps2_setupmotor>
    1d8c:	9f ef       	ldi	r25, 0xFF	; 255
    1d8e:	2f eb       	ldi	r18, 0xBF	; 191
    1d90:	83 e0       	ldi	r24, 0x03	; 3
    1d92:	91 50       	subi	r25, 0x01	; 1
    1d94:	20 40       	sbci	r18, 0x00	; 0
    1d96:	80 40       	sbci	r24, 0x00	; 0
    1d98:	e1 f7       	brne	.-8      	; 0x1d92 <ps2_init+0x42>
    1d9a:	00 c0       	rjmp	.+0      	; 0x1d9c <ps2_init+0x4c>
    1d9c:	00 00       	nop
	_delay_ms(250);
	ps2_returnpres();
    1d9e:	0e 94 9c 0e 	call	0x1d38	; 0x1d38 <ps2_returnpres>
    1da2:	9f ef       	ldi	r25, 0xFF	; 255
    1da4:	2f eb       	ldi	r18, 0xBF	; 191
    1da6:	83 e0       	ldi	r24, 0x03	; 3
    1da8:	91 50       	subi	r25, 0x01	; 1
    1daa:	20 40       	sbci	r18, 0x00	; 0
    1dac:	80 40       	sbci	r24, 0x00	; 0
    1dae:	e1 f7       	brne	.-8      	; 0x1da8 <ps2_init+0x58>
    1db0:	00 c0       	rjmp	.+0      	; 0x1db2 <ps2_init+0x62>
    1db2:	00 00       	nop
	_delay_ms(250);
	ps2_exitconfig();
    1db4:	0e 94 a2 0e 	call	0x1d44	; 0x1d44 <ps2_exitconfig>
	
	SPI_deactivate_SS_PS2();
    1db8:	0e 94 07 0f 	call	0x1e0e	; 0x1e0e <SPI_deactivate_SS_PS2>
    1dbc:	08 95       	ret

00001dbe <ps2_R2_pushed>:
}


int ps2_R2_pushed(void){
	//Returns 1 if R2 is pushed
	return !((rx_buffer[4] & R2_BUTTON_MASK) == 2);
    1dbe:	80 91 8c 03 	lds	r24, 0x038C
    1dc2:	86 95       	lsr	r24
    1dc4:	91 e0       	ldi	r25, 0x01	; 1
    1dc6:	89 27       	eor	r24, r25
}
    1dc8:	81 70       	andi	r24, 0x01	; 1
    1dca:	90 e0       	ldi	r25, 0x00	; 0
    1dcc:	08 95       	ret

00001dce <ps2_joystick_values>:

ps2 ps2_joystick_values(void){
	return joy_values;
    1dce:	60 91 84 03 	lds	r22, 0x0384
    1dd2:	70 91 85 03 	lds	r23, 0x0385
    1dd6:	80 91 86 03 	lds	r24, 0x0386
    1dda:	90 91 87 03 	lds	r25, 0x0387
}
    1dde:	08 95       	ret

00001de0 <SPI_read_write>:



uint8_t SPI_read_write(char cData){
	/* Start transmission */
	SPDR = cData;
    1de0:	8f b9       	out	0x0f, r24	; 15
	/* Wait for transmission complete */
	while(!(test_bit(SPSR, SPIF)));   //wait until SPIF-flag is set. 
    1de2:	77 9b       	sbis	0x0e, 7	; 14
    1de4:	fe cf       	rjmp	.-4      	; 0x1de2 <SPI_read_write+0x2>
    1de6:	84 ea       	ldi	r24, 0xA4	; 164
    1de8:	8a 95       	dec	r24
    1dea:	f1 f7       	brne	.-4      	; 0x1de8 <SPI_read_write+0x8>
	_delay_ms(0.1);
	return SPDR;
    1dec:	8f b1       	in	r24, 0x0f	; 15
}
    1dee:	08 95       	ret

00001df0 <SPI_read_write_PS2>:

uint8_t SPI_read_write_PS2(char cData){
	/* Start transmission */
	SPDR = cData;
    1df0:	8f b9       	out	0x0f, r24	; 15
	/* Wait for transmission complete */
	while(!(test_bit(SPSR, SPIF)));   //wait until SPIF-flag is set.
    1df2:	77 9b       	sbis	0x0e, 7	; 14
    1df4:	fe cf       	rjmp	.-4      	; 0x1df2 <SPI_read_write_PS2+0x2>
    1df6:	84 ea       	ldi	r24, 0xA4	; 164
    1df8:	8a 95       	dec	r24
    1dfa:	f1 f7       	brne	.-4      	; 0x1df8 <SPI_read_write_PS2+0x8>
	_delay_ms(0.1);
	return SPDR;
    1dfc:	8f b1       	in	r24, 0x0f	; 15
}
    1dfe:	08 95       	ret

00001e00 <SPI_activate_SS>:


void SPI_activate_SS(){
	clr_bit(PORTB, SS);
    1e00:	c4 98       	cbi	0x18, 4	; 24
    1e02:	08 95       	ret

00001e04 <SPI_deactivate_SS>:
}

void SPI_deactivate_SS(){
	set_bit(PORTB, SS);
    1e04:	c4 9a       	sbi	0x18, 4	; 24
    1e06:	08 95       	ret

00001e08 <SPI_activate_SS_PS2>:
}

void SPI_activate_SS_PS2(){
	//Data order LSB transmitted first
	set_bit(SPCR, DORD);
    1e08:	6d 9a       	sbi	0x0d, 5	; 13
	
	clr_bit(PORTB, PB3);
    1e0a:	c3 98       	cbi	0x18, 3	; 24
    1e0c:	08 95       	ret

00001e0e <SPI_deactivate_SS_PS2>:
}

void SPI_deactivate_SS_PS2(){
	set_bit(PORTB, PB3);
    1e0e:	c3 9a       	sbi	0x18, 3	; 24
	
	//Data order MSB transmitted first
	clr_bit(SPCR, DORD);
    1e10:	6d 98       	cbi	0x0d, 5	; 13
    1e12:	08 95       	ret

00001e14 <SPI_init_ps2>:



void SPI_init_ps2(void){
	//SPI enable
	set_bit(SPCR, SPE); 
    1e14:	6e 9a       	sbi	0x0d, 6	; 13
	//Set SPI to master mode
	set_bit(SPCR, MSTR);
    1e16:	6c 9a       	sbi	0x0d, 4	; 13
	
	//Clock frequency to f_OSC/32
	set_bit(SPCR, SPR1);
    1e18:	69 9a       	sbi	0x0d, 1	; 13
	set_bit(SPSR, SPI2X);
    1e1a:	70 9a       	sbi	0x0e, 0	; 14
	
	//set SPI clock rate = Fosc/2
	//set_bit(SPSR, SPI2X);
	
	////Clock polarity SCK is high when idle
	set_bit(SPCR, CPOL);
    1e1c:	6b 9a       	sbi	0x0d, 3	; 13
	////Clock phase transmit
	set_bit(SPCR, CPHA);
    1e1e:	6a 9a       	sbi	0x0d, 2	; 13
	
	//set MOSI and SCK to output, all others input
	set_bit(DDRB, MOSI);
    1e20:	bd 9a       	sbi	0x17, 5	; 23
	set_bit(DDRB, SCK);
    1e22:	bf 9a       	sbi	0x17, 7	; 23
	set_bit(DDRB, SS);  //til CAN
    1e24:	bc 9a       	sbi	0x17, 4	; 23
	set_bit(DDRB, PB3); //ATT
    1e26:	bb 9a       	sbi	0x17, 3	; 23
	
	
	
	SPI_deactivate_SS_PS2();
    1e28:	0e 94 07 0f 	call	0x1e0e	; 0x1e0e <SPI_deactivate_SS_PS2>
	SPI_deactivate_SS();
    1e2c:	0e 94 02 0f 	call	0x1e04	; 0x1e04 <SPI_deactivate_SS>
    1e30:	08 95       	ret

00001e32 <register_init>:
#define REGISTER_INIT_H_
void register_init(void);

void register_init(void){
	//enabler externt minne i MCU
	set_bit(MCUCR, SRE);
    1e32:	85 b7       	in	r24, 0x35	; 53
    1e34:	80 68       	ori	r24, 0x80	; 128
    1e36:	85 bf       	out	0x35, r24	; 53
	set_bit(SFIOR, XMM2);
    1e38:	80 b7       	in	r24, 0x30	; 48
    1e3a:	80 62       	ori	r24, 0x20	; 32
    1e3c:	80 bf       	out	0x30, r24	; 48

	//enable interrupts in MCU
	clr_bit(MCUCR,ISC00);
    1e3e:	85 b7       	in	r24, 0x35	; 53
    1e40:	8e 7f       	andi	r24, 0xFE	; 254
    1e42:	85 bf       	out	0x35, r24	; 53
	set_bit(MCUCR,ISC01);
    1e44:	85 b7       	in	r24, 0x35	; 53
    1e46:	82 60       	ori	r24, 0x02	; 2
    1e48:	85 bf       	out	0x35, r24	; 53
	set_bit(GICR,INT0);
    1e4a:	8b b7       	in	r24, 0x3b	; 59
    1e4c:	80 64       	ori	r24, 0x40	; 64
    1e4e:	8b bf       	out	0x3b, r24	; 59
	
	
	clr_bit(DDRD, DDD2);
    1e50:	8a 98       	cbi	0x11, 2	; 17
	
	//Set timer/counter1 interrupt
	//Normal mode
	clr_bit(TCCR1A, WGM11);
    1e52:	8f b5       	in	r24, 0x2f	; 47
    1e54:	8d 7f       	andi	r24, 0xFD	; 253
    1e56:	8f bd       	out	0x2f, r24	; 47
	clr_bit(TCCR1A, WGM10);
    1e58:	8f b5       	in	r24, 0x2f	; 47
    1e5a:	8e 7f       	andi	r24, 0xFE	; 254
    1e5c:	8f bd       	out	0x2f, r24	; 47
	clr_bit(TCCR3A, WGM31);
    1e5e:	eb e8       	ldi	r30, 0x8B	; 139
    1e60:	f0 e0       	ldi	r31, 0x00	; 0
    1e62:	80 81       	ld	r24, Z
    1e64:	8d 7f       	andi	r24, 0xFD	; 253
    1e66:	80 83       	st	Z, r24
	clr_bit(TCCR3A, WGM30);
    1e68:	80 81       	ld	r24, Z
    1e6a:	8e 7f       	andi	r24, 0xFE	; 254
    1e6c:	80 83       	st	Z, r24
	
	//Timer 1: Prescaler Fosc/1024
	set_bit(TCCR1B, CS11);
    1e6e:	8e b5       	in	r24, 0x2e	; 46
    1e70:	82 60       	ori	r24, 0x02	; 2
    1e72:	8e bd       	out	0x2e, r24	; 46
	set_bit(TCCR1B, CS10);
    1e74:	8e b5       	in	r24, 0x2e	; 46
    1e76:	81 60       	ori	r24, 0x01	; 1
    1e78:	8e bd       	out	0x2e, r24	; 46
	
	
	//Timer 2: Precale Fosc/8
	set_bit(TCCR3B, CS31);
    1e7a:	ea e8       	ldi	r30, 0x8A	; 138
    1e7c:	f0 e0       	ldi	r31, 0x00	; 0
    1e7e:	80 81       	ld	r24, Z
    1e80:	82 60       	ori	r24, 0x02	; 2
    1e82:	80 83       	st	Z, r24

	//Interrupt enable overflow
	set_bit(TIMSK, TOIE1);
    1e84:	89 b7       	in	r24, 0x39	; 57
    1e86:	80 68       	ori	r24, 0x80	; 128
    1e88:	89 bf       	out	0x39, r24	; 57
	set_bit(ETIMSK, TOIE3);		//Enable Can_send interrupt
    1e8a:	ed e7       	ldi	r30, 0x7D	; 125
    1e8c:	f0 e0       	ldi	r31, 0x00	; 0
    1e8e:	80 81       	ld	r24, Z
    1e90:	84 60       	ori	r24, 0x04	; 4
    1e92:	80 83       	st	Z, r24
    1e94:	08 95       	ret

00001e96 <main>:


int main(void) {
	
	// Disable global interrupts
	cli();
    1e96:	f8 94       	cli
	UART_init(31);
    1e98:	8f e1       	ldi	r24, 0x1F	; 31
    1e9a:	90 e0       	ldi	r25, 0x00	; 0
    1e9c:	0e 94 3f 07 	call	0xe7e	; 0xe7e <UART_init>
	register_init();
    1ea0:	0e 94 19 0f 	call	0x1e32	; 0x1e32 <register_init>
	oled_init();
    1ea4:	0e 94 1f 0b 	call	0x163e	; 0x163e <oled_init>
	ADC_init();
    1ea8:	0e 94 d3 01 	call	0x3a6	; 0x3a6 <ADC_init>
	CAN_init();
    1eac:	0e 94 15 02 	call	0x42a	; 0x42a <CAN_init>
	ps2_init();
    1eb0:	0e 94 a8 0e 	call	0x1d50	; 0x1d50 <ps2_init>
	//Enable global interrupts
	sei();
    1eb4:	78 94       	sei
	printf("\n--------------------\n\nNODE 1 \n\n ---------------------\n");
    1eb6:	82 e2       	ldi	r24, 0x22	; 34
    1eb8:	93 e0       	ldi	r25, 0x03	; 3
    1eba:	0e 94 6f 11 	call	0x22de	; 0x22de <puts>
	
	/*IKKE FJRN*/
	menu_setup();
    1ebe:	0e 94 11 08 	call	0x1022	; 0x1022 <menu_setup>
	read_highscore_list();
    1ec2:	0e 94 e7 05 	call	0xbce	; 0xbce <read_highscore_list>
			case PLAY:
				play_game();
				break;
			case RESET_HIGHSCORE:
				reset_highscore_list();
				current_state = HIGHSCORE;
    1ec6:	c2 e0       	ldi	r28, 0x02	; 2
	menu_setup();
	read_highscore_list();

	
	while(1){
		switch(current_state){
    1ec8:	80 91 75 03 	lds	r24, 0x0375
    1ecc:	82 30       	cpi	r24, 0x02	; 2
    1ece:	c1 f1       	breq	.+112    	; 0x1f40 <main+0xaa>
    1ed0:	28 f4       	brcc	.+10     	; 0x1edc <main+0x46>
    1ed2:	88 23       	and	r24, r24
    1ed4:	41 f0       	breq	.+16     	; 0x1ee6 <main+0x50>
    1ed6:	81 30       	cpi	r24, 0x01	; 1
    1ed8:	49 f0       	breq	.+18     	; 0x1eec <main+0x56>
    1eda:	f8 cf       	rjmp	.-16     	; 0x1ecc <main+0x36>
    1edc:	83 30       	cpi	r24, 0x03	; 3
    1ede:	49 f0       	breq	.+18     	; 0x1ef2 <main+0x5c>
    1ee0:	84 30       	cpi	r24, 0x04	; 4
    1ee2:	61 f0       	breq	.+24     	; 0x1efc <main+0x66>
    1ee4:	f3 cf       	rjmp	.-26     	; 0x1ecc <main+0x36>
			case IDLE:
				main_menu();
    1ee6:	0e 94 f4 08 	call	0x11e8	; 0x11e8 <main_menu>
				break;
    1eea:	ee cf       	rjmp	.-36     	; 0x1ec8 <main+0x32>
			case PLAY:
				play_game();
    1eec:	0e 94 ba 03 	call	0x774	; 0x774 <play_game>
				break;
    1ef0:	eb cf       	rjmp	.-42     	; 0x1ec8 <main+0x32>
			case RESET_HIGHSCORE:
				reset_highscore_list();
    1ef2:	0e 94 89 06 	call	0xd12	; 0xd12 <reset_highscore_list>
				current_state = HIGHSCORE;
    1ef6:	c0 93 75 03 	sts	0x0375, r28
				break;
    1efa:	e6 cf       	rjmp	.-52     	; 0x1ec8 <main+0x32>
			case NEW_HIGHSCORE:
				place = check_highscore(highest_score);
    1efc:	80 91 5d 03 	lds	r24, 0x035D
    1f00:	90 91 5e 03 	lds	r25, 0x035E
    1f04:	0e 94 11 05 	call	0xa22	; 0xa22 <check_highscore>
    1f08:	90 93 72 03 	sts	0x0372, r25
    1f0c:	80 93 71 03 	sts	0x0371, r24
				if ( place  > -1){
    1f10:	99 23       	and	r25, r25
    1f12:	9c f0       	brlt	.+38     	; 0x1f3a <main+0xa4>
					char* nickname = oled_type_in_name(int_to_str(highest_score));
    1f14:	80 91 5d 03 	lds	r24, 0x035D
    1f18:	90 91 5e 03 	lds	r25, 0x035E
    1f1c:	0e 94 14 0e 	call	0x1c28	; 0x1c28 <int_to_str>
    1f20:	0e 94 a6 0c 	call	0x194c	; 0x194c <oled_type_in_name>
					insert_highscore(place, highest_score, nickname);
    1f24:	60 91 5d 03 	lds	r22, 0x035D
    1f28:	70 91 5e 03 	lds	r23, 0x035E
    1f2c:	ac 01       	movw	r20, r24
    1f2e:	80 91 71 03 	lds	r24, 0x0371
    1f32:	90 91 72 03 	lds	r25, 0x0372
    1f36:	0e 94 b5 05 	call	0xb6a	; 0xb6a <insert_highscore>
				}
				current_state = HIGHSCORE;
    1f3a:	c0 93 75 03 	sts	0x0375, r28
				break;
    1f3e:	c4 cf       	rjmp	.-120    	; 0x1ec8 <main+0x32>
			case HIGHSCORE:
				if(find_joystick_dir() == LEFT){
    1f40:	0e 94 68 07 	call	0xed0	; 0xed0 <find_joystick_dir>
    1f44:	83 30       	cpi	r24, 0x03	; 3
    1f46:	11 f4       	brne	.+4      	; 0x1f4c <main+0xb6>
					current_state = IDLE;
    1f48:	10 92 75 03 	sts	0x0375, r1
				}
				if (oled_flag){
    1f4c:	80 91 73 03 	lds	r24, 0x0373
    1f50:	90 91 74 03 	lds	r25, 0x0374
    1f54:	89 2b       	or	r24, r25
    1f56:	09 f4       	brne	.+2      	; 0x1f5a <main+0xc4>
    1f58:	b7 cf       	rjmp	.-146    	; 0x1ec8 <main+0x32>
					oled_print_highscore();
    1f5a:	0e 94 32 06 	call	0xc64	; 0xc64 <oled_print_highscore>
					oled_flag = 0;
    1f5e:	10 92 74 03 	sts	0x0374, r1
    1f62:	10 92 73 03 	sts	0x0373, r1
    1f66:	b0 cf       	rjmp	.-160    	; 0x1ec8 <main+0x32>

00001f68 <malloc>:
    1f68:	cf 93       	push	r28
    1f6a:	df 93       	push	r29
    1f6c:	82 30       	cpi	r24, 0x02	; 2
    1f6e:	91 05       	cpc	r25, r1
    1f70:	10 f4       	brcc	.+4      	; 0x1f76 <malloc+0xe>
    1f72:	82 e0       	ldi	r24, 0x02	; 2
    1f74:	90 e0       	ldi	r25, 0x00	; 0
    1f76:	e0 91 a4 03 	lds	r30, 0x03A4
    1f7a:	f0 91 a5 03 	lds	r31, 0x03A5
    1f7e:	20 e0       	ldi	r18, 0x00	; 0
    1f80:	30 e0       	ldi	r19, 0x00	; 0
    1f82:	a0 e0       	ldi	r26, 0x00	; 0
    1f84:	b0 e0       	ldi	r27, 0x00	; 0
    1f86:	30 97       	sbiw	r30, 0x00	; 0
    1f88:	39 f1       	breq	.+78     	; 0x1fd8 <malloc+0x70>
    1f8a:	40 81       	ld	r20, Z
    1f8c:	51 81       	ldd	r21, Z+1	; 0x01
    1f8e:	48 17       	cp	r20, r24
    1f90:	59 07       	cpc	r21, r25
    1f92:	b8 f0       	brcs	.+46     	; 0x1fc2 <malloc+0x5a>
    1f94:	48 17       	cp	r20, r24
    1f96:	59 07       	cpc	r21, r25
    1f98:	71 f4       	brne	.+28     	; 0x1fb6 <malloc+0x4e>
    1f9a:	82 81       	ldd	r24, Z+2	; 0x02
    1f9c:	93 81       	ldd	r25, Z+3	; 0x03
    1f9e:	10 97       	sbiw	r26, 0x00	; 0
    1fa0:	29 f0       	breq	.+10     	; 0x1fac <malloc+0x44>
    1fa2:	13 96       	adiw	r26, 0x03	; 3
    1fa4:	9c 93       	st	X, r25
    1fa6:	8e 93       	st	-X, r24
    1fa8:	12 97       	sbiw	r26, 0x02	; 2
    1faa:	2c c0       	rjmp	.+88     	; 0x2004 <malloc+0x9c>
    1fac:	90 93 a5 03 	sts	0x03A5, r25
    1fb0:	80 93 a4 03 	sts	0x03A4, r24
    1fb4:	27 c0       	rjmp	.+78     	; 0x2004 <malloc+0x9c>
    1fb6:	21 15       	cp	r18, r1
    1fb8:	31 05       	cpc	r19, r1
    1fba:	31 f0       	breq	.+12     	; 0x1fc8 <malloc+0x60>
    1fbc:	42 17       	cp	r20, r18
    1fbe:	53 07       	cpc	r21, r19
    1fc0:	18 f0       	brcs	.+6      	; 0x1fc8 <malloc+0x60>
    1fc2:	a9 01       	movw	r20, r18
    1fc4:	db 01       	movw	r26, r22
    1fc6:	01 c0       	rjmp	.+2      	; 0x1fca <malloc+0x62>
    1fc8:	ef 01       	movw	r28, r30
    1fca:	9a 01       	movw	r18, r20
    1fcc:	bd 01       	movw	r22, r26
    1fce:	df 01       	movw	r26, r30
    1fd0:	02 80       	ldd	r0, Z+2	; 0x02
    1fd2:	f3 81       	ldd	r31, Z+3	; 0x03
    1fd4:	e0 2d       	mov	r30, r0
    1fd6:	d7 cf       	rjmp	.-82     	; 0x1f86 <malloc+0x1e>
    1fd8:	21 15       	cp	r18, r1
    1fda:	31 05       	cpc	r19, r1
    1fdc:	f9 f0       	breq	.+62     	; 0x201c <malloc+0xb4>
    1fde:	28 1b       	sub	r18, r24
    1fe0:	39 0b       	sbc	r19, r25
    1fe2:	24 30       	cpi	r18, 0x04	; 4
    1fe4:	31 05       	cpc	r19, r1
    1fe6:	80 f4       	brcc	.+32     	; 0x2008 <malloc+0xa0>
    1fe8:	8a 81       	ldd	r24, Y+2	; 0x02
    1fea:	9b 81       	ldd	r25, Y+3	; 0x03
    1fec:	61 15       	cp	r22, r1
    1fee:	71 05       	cpc	r23, r1
    1ff0:	21 f0       	breq	.+8      	; 0x1ffa <malloc+0x92>
    1ff2:	fb 01       	movw	r30, r22
    1ff4:	93 83       	std	Z+3, r25	; 0x03
    1ff6:	82 83       	std	Z+2, r24	; 0x02
    1ff8:	04 c0       	rjmp	.+8      	; 0x2002 <malloc+0x9a>
    1ffa:	90 93 a5 03 	sts	0x03A5, r25
    1ffe:	80 93 a4 03 	sts	0x03A4, r24
    2002:	fe 01       	movw	r30, r28
    2004:	32 96       	adiw	r30, 0x02	; 2
    2006:	44 c0       	rjmp	.+136    	; 0x2090 <malloc+0x128>
    2008:	fe 01       	movw	r30, r28
    200a:	e2 0f       	add	r30, r18
    200c:	f3 1f       	adc	r31, r19
    200e:	81 93       	st	Z+, r24
    2010:	91 93       	st	Z+, r25
    2012:	22 50       	subi	r18, 0x02	; 2
    2014:	31 09       	sbc	r19, r1
    2016:	39 83       	std	Y+1, r19	; 0x01
    2018:	28 83       	st	Y, r18
    201a:	3a c0       	rjmp	.+116    	; 0x2090 <malloc+0x128>
    201c:	20 91 a2 03 	lds	r18, 0x03A2
    2020:	30 91 a3 03 	lds	r19, 0x03A3
    2024:	23 2b       	or	r18, r19
    2026:	41 f4       	brne	.+16     	; 0x2038 <malloc+0xd0>
    2028:	20 91 02 01 	lds	r18, 0x0102
    202c:	30 91 03 01 	lds	r19, 0x0103
    2030:	30 93 a3 03 	sts	0x03A3, r19
    2034:	20 93 a2 03 	sts	0x03A2, r18
    2038:	20 91 00 01 	lds	r18, 0x0100
    203c:	30 91 01 01 	lds	r19, 0x0101
    2040:	21 15       	cp	r18, r1
    2042:	31 05       	cpc	r19, r1
    2044:	41 f4       	brne	.+16     	; 0x2056 <malloc+0xee>
    2046:	2d b7       	in	r18, 0x3d	; 61
    2048:	3e b7       	in	r19, 0x3e	; 62
    204a:	40 91 04 01 	lds	r20, 0x0104
    204e:	50 91 05 01 	lds	r21, 0x0105
    2052:	24 1b       	sub	r18, r20
    2054:	35 0b       	sbc	r19, r21
    2056:	e0 91 a2 03 	lds	r30, 0x03A2
    205a:	f0 91 a3 03 	lds	r31, 0x03A3
    205e:	e2 17       	cp	r30, r18
    2060:	f3 07       	cpc	r31, r19
    2062:	a0 f4       	brcc	.+40     	; 0x208c <malloc+0x124>
    2064:	2e 1b       	sub	r18, r30
    2066:	3f 0b       	sbc	r19, r31
    2068:	28 17       	cp	r18, r24
    206a:	39 07       	cpc	r19, r25
    206c:	78 f0       	brcs	.+30     	; 0x208c <malloc+0x124>
    206e:	ac 01       	movw	r20, r24
    2070:	4e 5f       	subi	r20, 0xFE	; 254
    2072:	5f 4f       	sbci	r21, 0xFF	; 255
    2074:	24 17       	cp	r18, r20
    2076:	35 07       	cpc	r19, r21
    2078:	48 f0       	brcs	.+18     	; 0x208c <malloc+0x124>
    207a:	4e 0f       	add	r20, r30
    207c:	5f 1f       	adc	r21, r31
    207e:	50 93 a3 03 	sts	0x03A3, r21
    2082:	40 93 a2 03 	sts	0x03A2, r20
    2086:	81 93       	st	Z+, r24
    2088:	91 93       	st	Z+, r25
    208a:	02 c0       	rjmp	.+4      	; 0x2090 <malloc+0x128>
    208c:	e0 e0       	ldi	r30, 0x00	; 0
    208e:	f0 e0       	ldi	r31, 0x00	; 0
    2090:	cf 01       	movw	r24, r30
    2092:	df 91       	pop	r29
    2094:	cf 91       	pop	r28
    2096:	08 95       	ret

00002098 <free>:
    2098:	cf 93       	push	r28
    209a:	df 93       	push	r29
    209c:	00 97       	sbiw	r24, 0x00	; 0
    209e:	09 f4       	brne	.+2      	; 0x20a2 <free+0xa>
    20a0:	87 c0       	rjmp	.+270    	; 0x21b0 <free+0x118>
    20a2:	fc 01       	movw	r30, r24
    20a4:	32 97       	sbiw	r30, 0x02	; 2
    20a6:	13 82       	std	Z+3, r1	; 0x03
    20a8:	12 82       	std	Z+2, r1	; 0x02
    20aa:	c0 91 a4 03 	lds	r28, 0x03A4
    20ae:	d0 91 a5 03 	lds	r29, 0x03A5
    20b2:	20 97       	sbiw	r28, 0x00	; 0
    20b4:	81 f4       	brne	.+32     	; 0x20d6 <free+0x3e>
    20b6:	20 81       	ld	r18, Z
    20b8:	31 81       	ldd	r19, Z+1	; 0x01
    20ba:	28 0f       	add	r18, r24
    20bc:	39 1f       	adc	r19, r25
    20be:	80 91 a2 03 	lds	r24, 0x03A2
    20c2:	90 91 a3 03 	lds	r25, 0x03A3
    20c6:	82 17       	cp	r24, r18
    20c8:	93 07       	cpc	r25, r19
    20ca:	79 f5       	brne	.+94     	; 0x212a <free+0x92>
    20cc:	f0 93 a3 03 	sts	0x03A3, r31
    20d0:	e0 93 a2 03 	sts	0x03A2, r30
    20d4:	6d c0       	rjmp	.+218    	; 0x21b0 <free+0x118>
    20d6:	de 01       	movw	r26, r28
    20d8:	20 e0       	ldi	r18, 0x00	; 0
    20da:	30 e0       	ldi	r19, 0x00	; 0
    20dc:	ae 17       	cp	r26, r30
    20de:	bf 07       	cpc	r27, r31
    20e0:	50 f4       	brcc	.+20     	; 0x20f6 <free+0x5e>
    20e2:	12 96       	adiw	r26, 0x02	; 2
    20e4:	4d 91       	ld	r20, X+
    20e6:	5c 91       	ld	r21, X
    20e8:	13 97       	sbiw	r26, 0x03	; 3
    20ea:	9d 01       	movw	r18, r26
    20ec:	41 15       	cp	r20, r1
    20ee:	51 05       	cpc	r21, r1
    20f0:	09 f1       	breq	.+66     	; 0x2134 <free+0x9c>
    20f2:	da 01       	movw	r26, r20
    20f4:	f3 cf       	rjmp	.-26     	; 0x20dc <free+0x44>
    20f6:	b3 83       	std	Z+3, r27	; 0x03
    20f8:	a2 83       	std	Z+2, r26	; 0x02
    20fa:	40 81       	ld	r20, Z
    20fc:	51 81       	ldd	r21, Z+1	; 0x01
    20fe:	84 0f       	add	r24, r20
    2100:	95 1f       	adc	r25, r21
    2102:	8a 17       	cp	r24, r26
    2104:	9b 07       	cpc	r25, r27
    2106:	71 f4       	brne	.+28     	; 0x2124 <free+0x8c>
    2108:	8d 91       	ld	r24, X+
    210a:	9c 91       	ld	r25, X
    210c:	11 97       	sbiw	r26, 0x01	; 1
    210e:	84 0f       	add	r24, r20
    2110:	95 1f       	adc	r25, r21
    2112:	02 96       	adiw	r24, 0x02	; 2
    2114:	91 83       	std	Z+1, r25	; 0x01
    2116:	80 83       	st	Z, r24
    2118:	12 96       	adiw	r26, 0x02	; 2
    211a:	8d 91       	ld	r24, X+
    211c:	9c 91       	ld	r25, X
    211e:	13 97       	sbiw	r26, 0x03	; 3
    2120:	93 83       	std	Z+3, r25	; 0x03
    2122:	82 83       	std	Z+2, r24	; 0x02
    2124:	21 15       	cp	r18, r1
    2126:	31 05       	cpc	r19, r1
    2128:	29 f4       	brne	.+10     	; 0x2134 <free+0x9c>
    212a:	f0 93 a5 03 	sts	0x03A5, r31
    212e:	e0 93 a4 03 	sts	0x03A4, r30
    2132:	3e c0       	rjmp	.+124    	; 0x21b0 <free+0x118>
    2134:	d9 01       	movw	r26, r18
    2136:	13 96       	adiw	r26, 0x03	; 3
    2138:	fc 93       	st	X, r31
    213a:	ee 93       	st	-X, r30
    213c:	12 97       	sbiw	r26, 0x02	; 2
    213e:	4d 91       	ld	r20, X+
    2140:	5d 91       	ld	r21, X+
    2142:	a4 0f       	add	r26, r20
    2144:	b5 1f       	adc	r27, r21
    2146:	ea 17       	cp	r30, r26
    2148:	fb 07       	cpc	r31, r27
    214a:	79 f4       	brne	.+30     	; 0x216a <free+0xd2>
    214c:	80 81       	ld	r24, Z
    214e:	91 81       	ldd	r25, Z+1	; 0x01
    2150:	84 0f       	add	r24, r20
    2152:	95 1f       	adc	r25, r21
    2154:	02 96       	adiw	r24, 0x02	; 2
    2156:	d9 01       	movw	r26, r18
    2158:	11 96       	adiw	r26, 0x01	; 1
    215a:	9c 93       	st	X, r25
    215c:	8e 93       	st	-X, r24
    215e:	82 81       	ldd	r24, Z+2	; 0x02
    2160:	93 81       	ldd	r25, Z+3	; 0x03
    2162:	13 96       	adiw	r26, 0x03	; 3
    2164:	9c 93       	st	X, r25
    2166:	8e 93       	st	-X, r24
    2168:	12 97       	sbiw	r26, 0x02	; 2
    216a:	e0 e0       	ldi	r30, 0x00	; 0
    216c:	f0 e0       	ldi	r31, 0x00	; 0
    216e:	8a 81       	ldd	r24, Y+2	; 0x02
    2170:	9b 81       	ldd	r25, Y+3	; 0x03
    2172:	00 97       	sbiw	r24, 0x00	; 0
    2174:	19 f0       	breq	.+6      	; 0x217c <free+0xe4>
    2176:	fe 01       	movw	r30, r28
    2178:	ec 01       	movw	r28, r24
    217a:	f9 cf       	rjmp	.-14     	; 0x216e <free+0xd6>
    217c:	ce 01       	movw	r24, r28
    217e:	02 96       	adiw	r24, 0x02	; 2
    2180:	28 81       	ld	r18, Y
    2182:	39 81       	ldd	r19, Y+1	; 0x01
    2184:	82 0f       	add	r24, r18
    2186:	93 1f       	adc	r25, r19
    2188:	20 91 a2 03 	lds	r18, 0x03A2
    218c:	30 91 a3 03 	lds	r19, 0x03A3
    2190:	28 17       	cp	r18, r24
    2192:	39 07       	cpc	r19, r25
    2194:	69 f4       	brne	.+26     	; 0x21b0 <free+0x118>
    2196:	30 97       	sbiw	r30, 0x00	; 0
    2198:	29 f4       	brne	.+10     	; 0x21a4 <free+0x10c>
    219a:	10 92 a5 03 	sts	0x03A5, r1
    219e:	10 92 a4 03 	sts	0x03A4, r1
    21a2:	02 c0       	rjmp	.+4      	; 0x21a8 <free+0x110>
    21a4:	13 82       	std	Z+3, r1	; 0x03
    21a6:	12 82       	std	Z+2, r1	; 0x02
    21a8:	d0 93 a3 03 	sts	0x03A3, r29
    21ac:	c0 93 a2 03 	sts	0x03A2, r28
    21b0:	df 91       	pop	r29
    21b2:	cf 91       	pop	r28
    21b4:	08 95       	ret

000021b6 <strcmp>:
    21b6:	fb 01       	movw	r30, r22
    21b8:	dc 01       	movw	r26, r24
    21ba:	8d 91       	ld	r24, X+
    21bc:	01 90       	ld	r0, Z+
    21be:	80 19       	sub	r24, r0
    21c0:	01 10       	cpse	r0, r1
    21c2:	d9 f3       	breq	.-10     	; 0x21ba <strcmp+0x4>
    21c4:	99 0b       	sbc	r25, r25
    21c6:	08 95       	ret

000021c8 <__itoa_ncheck>:
    21c8:	bb 27       	eor	r27, r27
    21ca:	4a 30       	cpi	r20, 0x0A	; 10
    21cc:	31 f4       	brne	.+12     	; 0x21da <__itoa_ncheck+0x12>
    21ce:	99 23       	and	r25, r25
    21d0:	22 f4       	brpl	.+8      	; 0x21da <__itoa_ncheck+0x12>
    21d2:	bd e2       	ldi	r27, 0x2D	; 45
    21d4:	90 95       	com	r25
    21d6:	81 95       	neg	r24
    21d8:	9f 4f       	sbci	r25, 0xFF	; 255
    21da:	0c 94 f0 10 	jmp	0x21e0	; 0x21e0 <__utoa_common>

000021de <__utoa_ncheck>:
    21de:	bb 27       	eor	r27, r27

000021e0 <__utoa_common>:
    21e0:	fb 01       	movw	r30, r22
    21e2:	55 27       	eor	r21, r21
    21e4:	aa 27       	eor	r26, r26
    21e6:	88 0f       	add	r24, r24
    21e8:	99 1f       	adc	r25, r25
    21ea:	aa 1f       	adc	r26, r26
    21ec:	a4 17       	cp	r26, r20
    21ee:	10 f0       	brcs	.+4      	; 0x21f4 <__utoa_common+0x14>
    21f0:	a4 1b       	sub	r26, r20
    21f2:	83 95       	inc	r24
    21f4:	50 51       	subi	r21, 0x10	; 16
    21f6:	b9 f7       	brne	.-18     	; 0x21e6 <__utoa_common+0x6>
    21f8:	a0 5d       	subi	r26, 0xD0	; 208
    21fa:	aa 33       	cpi	r26, 0x3A	; 58
    21fc:	08 f0       	brcs	.+2      	; 0x2200 <__utoa_common+0x20>
    21fe:	a9 5d       	subi	r26, 0xD9	; 217
    2200:	a1 93       	st	Z+, r26
    2202:	00 97       	sbiw	r24, 0x00	; 0
    2204:	79 f7       	brne	.-34     	; 0x21e4 <__utoa_common+0x4>
    2206:	b1 11       	cpse	r27, r1
    2208:	b1 93       	st	Z+, r27
    220a:	11 92       	st	Z+, r1
    220c:	cb 01       	movw	r24, r22
    220e:	0c 94 a7 13 	jmp	0x274e	; 0x274e <strrev>

00002212 <fdevopen>:
    2212:	0f 93       	push	r16
    2214:	1f 93       	push	r17
    2216:	cf 93       	push	r28
    2218:	df 93       	push	r29
    221a:	ec 01       	movw	r28, r24
    221c:	8b 01       	movw	r16, r22
    221e:	00 97       	sbiw	r24, 0x00	; 0
    2220:	31 f4       	brne	.+12     	; 0x222e <fdevopen+0x1c>
    2222:	61 15       	cp	r22, r1
    2224:	71 05       	cpc	r23, r1
    2226:	19 f4       	brne	.+6      	; 0x222e <fdevopen+0x1c>
    2228:	80 e0       	ldi	r24, 0x00	; 0
    222a:	90 e0       	ldi	r25, 0x00	; 0
    222c:	38 c0       	rjmp	.+112    	; 0x229e <fdevopen+0x8c>
    222e:	6e e0       	ldi	r22, 0x0E	; 14
    2230:	70 e0       	ldi	r23, 0x00	; 0
    2232:	81 e0       	ldi	r24, 0x01	; 1
    2234:	90 e0       	ldi	r25, 0x00	; 0
    2236:	0e 94 6e 13 	call	0x26dc	; 0x26dc <calloc>
    223a:	fc 01       	movw	r30, r24
    223c:	00 97       	sbiw	r24, 0x00	; 0
    223e:	a1 f3       	breq	.-24     	; 0x2228 <fdevopen+0x16>
    2240:	80 e8       	ldi	r24, 0x80	; 128
    2242:	83 83       	std	Z+3, r24	; 0x03
    2244:	01 15       	cp	r16, r1
    2246:	11 05       	cpc	r17, r1
    2248:	71 f0       	breq	.+28     	; 0x2266 <fdevopen+0x54>
    224a:	13 87       	std	Z+11, r17	; 0x0b
    224c:	02 87       	std	Z+10, r16	; 0x0a
    224e:	81 e8       	ldi	r24, 0x81	; 129
    2250:	83 83       	std	Z+3, r24	; 0x03
    2252:	80 91 a6 03 	lds	r24, 0x03A6
    2256:	90 91 a7 03 	lds	r25, 0x03A7
    225a:	89 2b       	or	r24, r25
    225c:	21 f4       	brne	.+8      	; 0x2266 <fdevopen+0x54>
    225e:	f0 93 a7 03 	sts	0x03A7, r31
    2262:	e0 93 a6 03 	sts	0x03A6, r30
    2266:	20 97       	sbiw	r28, 0x00	; 0
    2268:	c9 f0       	breq	.+50     	; 0x229c <fdevopen+0x8a>
    226a:	d1 87       	std	Z+9, r29	; 0x09
    226c:	c0 87       	std	Z+8, r28	; 0x08
    226e:	83 81       	ldd	r24, Z+3	; 0x03
    2270:	82 60       	ori	r24, 0x02	; 2
    2272:	83 83       	std	Z+3, r24	; 0x03
    2274:	80 91 a8 03 	lds	r24, 0x03A8
    2278:	90 91 a9 03 	lds	r25, 0x03A9
    227c:	89 2b       	or	r24, r25
    227e:	71 f4       	brne	.+28     	; 0x229c <fdevopen+0x8a>
    2280:	f0 93 a9 03 	sts	0x03A9, r31
    2284:	e0 93 a8 03 	sts	0x03A8, r30
    2288:	80 91 aa 03 	lds	r24, 0x03AA
    228c:	90 91 ab 03 	lds	r25, 0x03AB
    2290:	89 2b       	or	r24, r25
    2292:	21 f4       	brne	.+8      	; 0x229c <fdevopen+0x8a>
    2294:	f0 93 ab 03 	sts	0x03AB, r31
    2298:	e0 93 aa 03 	sts	0x03AA, r30
    229c:	cf 01       	movw	r24, r30
    229e:	df 91       	pop	r29
    22a0:	cf 91       	pop	r28
    22a2:	1f 91       	pop	r17
    22a4:	0f 91       	pop	r16
    22a6:	08 95       	ret

000022a8 <printf>:
    22a8:	a0 e0       	ldi	r26, 0x00	; 0
    22aa:	b0 e0       	ldi	r27, 0x00	; 0
    22ac:	ea e5       	ldi	r30, 0x5A	; 90
    22ae:	f1 e1       	ldi	r31, 0x11	; 17
    22b0:	0c 94 57 14 	jmp	0x28ae	; 0x28ae <__prologue_saves__+0x20>
    22b4:	fe 01       	movw	r30, r28
    22b6:	35 96       	adiw	r30, 0x05	; 5
    22b8:	61 91       	ld	r22, Z+
    22ba:	71 91       	ld	r23, Z+
    22bc:	af 01       	movw	r20, r30
    22be:	80 91 a8 03 	lds	r24, 0x03A8
    22c2:	90 91 a9 03 	lds	r25, 0x03A9
    22c6:	0e 94 9c 11 	call	0x2338	; 0x2338 <vfprintf>
    22ca:	e2 e0       	ldi	r30, 0x02	; 2
    22cc:	0c 94 73 14 	jmp	0x28e6	; 0x28e6 <__epilogue_restores__+0x20>

000022d0 <putchar>:
    22d0:	60 91 a8 03 	lds	r22, 0x03A8
    22d4:	70 91 a9 03 	lds	r23, 0x03A9
    22d8:	0e 94 b7 13 	call	0x276e	; 0x276e <fputc>
    22dc:	08 95       	ret

000022de <puts>:
    22de:	0f 93       	push	r16
    22e0:	1f 93       	push	r17
    22e2:	cf 93       	push	r28
    22e4:	df 93       	push	r29
    22e6:	e0 91 a8 03 	lds	r30, 0x03A8
    22ea:	f0 91 a9 03 	lds	r31, 0x03A9
    22ee:	23 81       	ldd	r18, Z+3	; 0x03
    22f0:	21 ff       	sbrs	r18, 1
    22f2:	1b c0       	rjmp	.+54     	; 0x232a <puts+0x4c>
    22f4:	ec 01       	movw	r28, r24
    22f6:	00 e0       	ldi	r16, 0x00	; 0
    22f8:	10 e0       	ldi	r17, 0x00	; 0
    22fa:	89 91       	ld	r24, Y+
    22fc:	60 91 a8 03 	lds	r22, 0x03A8
    2300:	70 91 a9 03 	lds	r23, 0x03A9
    2304:	db 01       	movw	r26, r22
    2306:	18 96       	adiw	r26, 0x08	; 8
    2308:	ed 91       	ld	r30, X+
    230a:	fc 91       	ld	r31, X
    230c:	19 97       	sbiw	r26, 0x09	; 9
    230e:	88 23       	and	r24, r24
    2310:	31 f0       	breq	.+12     	; 0x231e <puts+0x40>
    2312:	09 95       	icall
    2314:	89 2b       	or	r24, r25
    2316:	89 f3       	breq	.-30     	; 0x22fa <puts+0x1c>
    2318:	0f ef       	ldi	r16, 0xFF	; 255
    231a:	1f ef       	ldi	r17, 0xFF	; 255
    231c:	ee cf       	rjmp	.-36     	; 0x22fa <puts+0x1c>
    231e:	8a e0       	ldi	r24, 0x0A	; 10
    2320:	09 95       	icall
    2322:	89 2b       	or	r24, r25
    2324:	11 f4       	brne	.+4      	; 0x232a <puts+0x4c>
    2326:	c8 01       	movw	r24, r16
    2328:	02 c0       	rjmp	.+4      	; 0x232e <puts+0x50>
    232a:	8f ef       	ldi	r24, 0xFF	; 255
    232c:	9f ef       	ldi	r25, 0xFF	; 255
    232e:	df 91       	pop	r29
    2330:	cf 91       	pop	r28
    2332:	1f 91       	pop	r17
    2334:	0f 91       	pop	r16
    2336:	08 95       	ret

00002338 <vfprintf>:
    2338:	ac e0       	ldi	r26, 0x0C	; 12
    233a:	b0 e0       	ldi	r27, 0x00	; 0
    233c:	e2 ea       	ldi	r30, 0xA2	; 162
    233e:	f1 e1       	ldi	r31, 0x11	; 17
    2340:	0c 94 47 14 	jmp	0x288e	; 0x288e <__prologue_saves__>
    2344:	7c 01       	movw	r14, r24
    2346:	6b 01       	movw	r12, r22
    2348:	8a 01       	movw	r16, r20
    234a:	fc 01       	movw	r30, r24
    234c:	17 82       	std	Z+7, r1	; 0x07
    234e:	16 82       	std	Z+6, r1	; 0x06
    2350:	83 81       	ldd	r24, Z+3	; 0x03
    2352:	81 ff       	sbrs	r24, 1
    2354:	bd c1       	rjmp	.+890    	; 0x26d0 <vfprintf+0x398>
    2356:	ce 01       	movw	r24, r28
    2358:	01 96       	adiw	r24, 0x01	; 1
    235a:	4c 01       	movw	r8, r24
    235c:	f7 01       	movw	r30, r14
    235e:	93 81       	ldd	r25, Z+3	; 0x03
    2360:	f6 01       	movw	r30, r12
    2362:	93 fd       	sbrc	r25, 3
    2364:	85 91       	lpm	r24, Z+
    2366:	93 ff       	sbrs	r25, 3
    2368:	81 91       	ld	r24, Z+
    236a:	6f 01       	movw	r12, r30
    236c:	88 23       	and	r24, r24
    236e:	09 f4       	brne	.+2      	; 0x2372 <vfprintf+0x3a>
    2370:	ab c1       	rjmp	.+854    	; 0x26c8 <vfprintf+0x390>
    2372:	85 32       	cpi	r24, 0x25	; 37
    2374:	39 f4       	brne	.+14     	; 0x2384 <vfprintf+0x4c>
    2376:	93 fd       	sbrc	r25, 3
    2378:	85 91       	lpm	r24, Z+
    237a:	93 ff       	sbrs	r25, 3
    237c:	81 91       	ld	r24, Z+
    237e:	6f 01       	movw	r12, r30
    2380:	85 32       	cpi	r24, 0x25	; 37
    2382:	29 f4       	brne	.+10     	; 0x238e <vfprintf+0x56>
    2384:	b7 01       	movw	r22, r14
    2386:	90 e0       	ldi	r25, 0x00	; 0
    2388:	0e 94 b7 13 	call	0x276e	; 0x276e <fputc>
    238c:	e7 cf       	rjmp	.-50     	; 0x235c <vfprintf+0x24>
    238e:	51 2c       	mov	r5, r1
    2390:	31 2c       	mov	r3, r1
    2392:	20 e0       	ldi	r18, 0x00	; 0
    2394:	20 32       	cpi	r18, 0x20	; 32
    2396:	a0 f4       	brcc	.+40     	; 0x23c0 <vfprintf+0x88>
    2398:	8b 32       	cpi	r24, 0x2B	; 43
    239a:	69 f0       	breq	.+26     	; 0x23b6 <vfprintf+0x7e>
    239c:	30 f4       	brcc	.+12     	; 0x23aa <vfprintf+0x72>
    239e:	80 32       	cpi	r24, 0x20	; 32
    23a0:	59 f0       	breq	.+22     	; 0x23b8 <vfprintf+0x80>
    23a2:	83 32       	cpi	r24, 0x23	; 35
    23a4:	69 f4       	brne	.+26     	; 0x23c0 <vfprintf+0x88>
    23a6:	20 61       	ori	r18, 0x10	; 16
    23a8:	2c c0       	rjmp	.+88     	; 0x2402 <vfprintf+0xca>
    23aa:	8d 32       	cpi	r24, 0x2D	; 45
    23ac:	39 f0       	breq	.+14     	; 0x23bc <vfprintf+0x84>
    23ae:	80 33       	cpi	r24, 0x30	; 48
    23b0:	39 f4       	brne	.+14     	; 0x23c0 <vfprintf+0x88>
    23b2:	21 60       	ori	r18, 0x01	; 1
    23b4:	26 c0       	rjmp	.+76     	; 0x2402 <vfprintf+0xca>
    23b6:	22 60       	ori	r18, 0x02	; 2
    23b8:	24 60       	ori	r18, 0x04	; 4
    23ba:	23 c0       	rjmp	.+70     	; 0x2402 <vfprintf+0xca>
    23bc:	28 60       	ori	r18, 0x08	; 8
    23be:	21 c0       	rjmp	.+66     	; 0x2402 <vfprintf+0xca>
    23c0:	27 fd       	sbrc	r18, 7
    23c2:	27 c0       	rjmp	.+78     	; 0x2412 <vfprintf+0xda>
    23c4:	30 ed       	ldi	r19, 0xD0	; 208
    23c6:	38 0f       	add	r19, r24
    23c8:	3a 30       	cpi	r19, 0x0A	; 10
    23ca:	78 f4       	brcc	.+30     	; 0x23ea <vfprintf+0xb2>
    23cc:	26 ff       	sbrs	r18, 6
    23ce:	06 c0       	rjmp	.+12     	; 0x23dc <vfprintf+0xa4>
    23d0:	fa e0       	ldi	r31, 0x0A	; 10
    23d2:	5f 9e       	mul	r5, r31
    23d4:	30 0d       	add	r19, r0
    23d6:	11 24       	eor	r1, r1
    23d8:	53 2e       	mov	r5, r19
    23da:	13 c0       	rjmp	.+38     	; 0x2402 <vfprintf+0xca>
    23dc:	8a e0       	ldi	r24, 0x0A	; 10
    23de:	38 9e       	mul	r3, r24
    23e0:	30 0d       	add	r19, r0
    23e2:	11 24       	eor	r1, r1
    23e4:	33 2e       	mov	r3, r19
    23e6:	20 62       	ori	r18, 0x20	; 32
    23e8:	0c c0       	rjmp	.+24     	; 0x2402 <vfprintf+0xca>
    23ea:	8e 32       	cpi	r24, 0x2E	; 46
    23ec:	21 f4       	brne	.+8      	; 0x23f6 <vfprintf+0xbe>
    23ee:	26 fd       	sbrc	r18, 6
    23f0:	6b c1       	rjmp	.+726    	; 0x26c8 <vfprintf+0x390>
    23f2:	20 64       	ori	r18, 0x40	; 64
    23f4:	06 c0       	rjmp	.+12     	; 0x2402 <vfprintf+0xca>
    23f6:	8c 36       	cpi	r24, 0x6C	; 108
    23f8:	11 f4       	brne	.+4      	; 0x23fe <vfprintf+0xc6>
    23fa:	20 68       	ori	r18, 0x80	; 128
    23fc:	02 c0       	rjmp	.+4      	; 0x2402 <vfprintf+0xca>
    23fe:	88 36       	cpi	r24, 0x68	; 104
    2400:	41 f4       	brne	.+16     	; 0x2412 <vfprintf+0xda>
    2402:	f6 01       	movw	r30, r12
    2404:	93 fd       	sbrc	r25, 3
    2406:	85 91       	lpm	r24, Z+
    2408:	93 ff       	sbrs	r25, 3
    240a:	81 91       	ld	r24, Z+
    240c:	6f 01       	movw	r12, r30
    240e:	81 11       	cpse	r24, r1
    2410:	c1 cf       	rjmp	.-126    	; 0x2394 <vfprintf+0x5c>
    2412:	98 2f       	mov	r25, r24
    2414:	9f 7d       	andi	r25, 0xDF	; 223
    2416:	95 54       	subi	r25, 0x45	; 69
    2418:	93 30       	cpi	r25, 0x03	; 3
    241a:	28 f4       	brcc	.+10     	; 0x2426 <vfprintf+0xee>
    241c:	0c 5f       	subi	r16, 0xFC	; 252
    241e:	1f 4f       	sbci	r17, 0xFF	; 255
    2420:	ff e3       	ldi	r31, 0x3F	; 63
    2422:	f9 83       	std	Y+1, r31	; 0x01
    2424:	0d c0       	rjmp	.+26     	; 0x2440 <vfprintf+0x108>
    2426:	83 36       	cpi	r24, 0x63	; 99
    2428:	31 f0       	breq	.+12     	; 0x2436 <vfprintf+0xfe>
    242a:	83 37       	cpi	r24, 0x73	; 115
    242c:	71 f0       	breq	.+28     	; 0x244a <vfprintf+0x112>
    242e:	83 35       	cpi	r24, 0x53	; 83
    2430:	09 f0       	breq	.+2      	; 0x2434 <vfprintf+0xfc>
    2432:	5b c0       	rjmp	.+182    	; 0x24ea <vfprintf+0x1b2>
    2434:	22 c0       	rjmp	.+68     	; 0x247a <vfprintf+0x142>
    2436:	f8 01       	movw	r30, r16
    2438:	80 81       	ld	r24, Z
    243a:	89 83       	std	Y+1, r24	; 0x01
    243c:	0e 5f       	subi	r16, 0xFE	; 254
    243e:	1f 4f       	sbci	r17, 0xFF	; 255
    2440:	44 24       	eor	r4, r4
    2442:	43 94       	inc	r4
    2444:	51 2c       	mov	r5, r1
    2446:	54 01       	movw	r10, r8
    2448:	15 c0       	rjmp	.+42     	; 0x2474 <vfprintf+0x13c>
    244a:	38 01       	movw	r6, r16
    244c:	f2 e0       	ldi	r31, 0x02	; 2
    244e:	6f 0e       	add	r6, r31
    2450:	71 1c       	adc	r7, r1
    2452:	f8 01       	movw	r30, r16
    2454:	a0 80       	ld	r10, Z
    2456:	b1 80       	ldd	r11, Z+1	; 0x01
    2458:	26 ff       	sbrs	r18, 6
    245a:	03 c0       	rjmp	.+6      	; 0x2462 <vfprintf+0x12a>
    245c:	65 2d       	mov	r22, r5
    245e:	70 e0       	ldi	r23, 0x00	; 0
    2460:	02 c0       	rjmp	.+4      	; 0x2466 <vfprintf+0x12e>
    2462:	6f ef       	ldi	r22, 0xFF	; 255
    2464:	7f ef       	ldi	r23, 0xFF	; 255
    2466:	c5 01       	movw	r24, r10
    2468:	2c 87       	std	Y+12, r18	; 0x0c
    246a:	0e 94 9c 13 	call	0x2738	; 0x2738 <strnlen>
    246e:	2c 01       	movw	r4, r24
    2470:	83 01       	movw	r16, r6
    2472:	2c 85       	ldd	r18, Y+12	; 0x0c
    2474:	2f 77       	andi	r18, 0x7F	; 127
    2476:	22 2e       	mov	r2, r18
    2478:	17 c0       	rjmp	.+46     	; 0x24a8 <vfprintf+0x170>
    247a:	38 01       	movw	r6, r16
    247c:	f2 e0       	ldi	r31, 0x02	; 2
    247e:	6f 0e       	add	r6, r31
    2480:	71 1c       	adc	r7, r1
    2482:	f8 01       	movw	r30, r16
    2484:	a0 80       	ld	r10, Z
    2486:	b1 80       	ldd	r11, Z+1	; 0x01
    2488:	26 ff       	sbrs	r18, 6
    248a:	03 c0       	rjmp	.+6      	; 0x2492 <vfprintf+0x15a>
    248c:	65 2d       	mov	r22, r5
    248e:	70 e0       	ldi	r23, 0x00	; 0
    2490:	02 c0       	rjmp	.+4      	; 0x2496 <vfprintf+0x15e>
    2492:	6f ef       	ldi	r22, 0xFF	; 255
    2494:	7f ef       	ldi	r23, 0xFF	; 255
    2496:	c5 01       	movw	r24, r10
    2498:	2c 87       	std	Y+12, r18	; 0x0c
    249a:	0e 94 8a 13 	call	0x2714	; 0x2714 <strnlen_P>
    249e:	2c 01       	movw	r4, r24
    24a0:	2c 85       	ldd	r18, Y+12	; 0x0c
    24a2:	20 68       	ori	r18, 0x80	; 128
    24a4:	22 2e       	mov	r2, r18
    24a6:	83 01       	movw	r16, r6
    24a8:	23 fc       	sbrc	r2, 3
    24aa:	1b c0       	rjmp	.+54     	; 0x24e2 <vfprintf+0x1aa>
    24ac:	83 2d       	mov	r24, r3
    24ae:	90 e0       	ldi	r25, 0x00	; 0
    24b0:	48 16       	cp	r4, r24
    24b2:	59 06       	cpc	r5, r25
    24b4:	b0 f4       	brcc	.+44     	; 0x24e2 <vfprintf+0x1aa>
    24b6:	b7 01       	movw	r22, r14
    24b8:	80 e2       	ldi	r24, 0x20	; 32
    24ba:	90 e0       	ldi	r25, 0x00	; 0
    24bc:	0e 94 b7 13 	call	0x276e	; 0x276e <fputc>
    24c0:	3a 94       	dec	r3
    24c2:	f4 cf       	rjmp	.-24     	; 0x24ac <vfprintf+0x174>
    24c4:	f5 01       	movw	r30, r10
    24c6:	27 fc       	sbrc	r2, 7
    24c8:	85 91       	lpm	r24, Z+
    24ca:	27 fe       	sbrs	r2, 7
    24cc:	81 91       	ld	r24, Z+
    24ce:	5f 01       	movw	r10, r30
    24d0:	b7 01       	movw	r22, r14
    24d2:	90 e0       	ldi	r25, 0x00	; 0
    24d4:	0e 94 b7 13 	call	0x276e	; 0x276e <fputc>
    24d8:	31 10       	cpse	r3, r1
    24da:	3a 94       	dec	r3
    24dc:	f1 e0       	ldi	r31, 0x01	; 1
    24de:	4f 1a       	sub	r4, r31
    24e0:	51 08       	sbc	r5, r1
    24e2:	41 14       	cp	r4, r1
    24e4:	51 04       	cpc	r5, r1
    24e6:	71 f7       	brne	.-36     	; 0x24c4 <vfprintf+0x18c>
    24e8:	e5 c0       	rjmp	.+458    	; 0x26b4 <vfprintf+0x37c>
    24ea:	84 36       	cpi	r24, 0x64	; 100
    24ec:	11 f0       	breq	.+4      	; 0x24f2 <vfprintf+0x1ba>
    24ee:	89 36       	cpi	r24, 0x69	; 105
    24f0:	39 f5       	brne	.+78     	; 0x2540 <vfprintf+0x208>
    24f2:	f8 01       	movw	r30, r16
    24f4:	27 ff       	sbrs	r18, 7
    24f6:	07 c0       	rjmp	.+14     	; 0x2506 <vfprintf+0x1ce>
    24f8:	60 81       	ld	r22, Z
    24fa:	71 81       	ldd	r23, Z+1	; 0x01
    24fc:	82 81       	ldd	r24, Z+2	; 0x02
    24fe:	93 81       	ldd	r25, Z+3	; 0x03
    2500:	0c 5f       	subi	r16, 0xFC	; 252
    2502:	1f 4f       	sbci	r17, 0xFF	; 255
    2504:	08 c0       	rjmp	.+16     	; 0x2516 <vfprintf+0x1de>
    2506:	60 81       	ld	r22, Z
    2508:	71 81       	ldd	r23, Z+1	; 0x01
    250a:	88 27       	eor	r24, r24
    250c:	77 fd       	sbrc	r23, 7
    250e:	80 95       	com	r24
    2510:	98 2f       	mov	r25, r24
    2512:	0e 5f       	subi	r16, 0xFE	; 254
    2514:	1f 4f       	sbci	r17, 0xFF	; 255
    2516:	2f 76       	andi	r18, 0x6F	; 111
    2518:	b2 2e       	mov	r11, r18
    251a:	97 ff       	sbrs	r25, 7
    251c:	09 c0       	rjmp	.+18     	; 0x2530 <vfprintf+0x1f8>
    251e:	90 95       	com	r25
    2520:	80 95       	com	r24
    2522:	70 95       	com	r23
    2524:	61 95       	neg	r22
    2526:	7f 4f       	sbci	r23, 0xFF	; 255
    2528:	8f 4f       	sbci	r24, 0xFF	; 255
    252a:	9f 4f       	sbci	r25, 0xFF	; 255
    252c:	20 68       	ori	r18, 0x80	; 128
    252e:	b2 2e       	mov	r11, r18
    2530:	2a e0       	ldi	r18, 0x0A	; 10
    2532:	30 e0       	ldi	r19, 0x00	; 0
    2534:	a4 01       	movw	r20, r8
    2536:	0e 94 e9 13 	call	0x27d2	; 0x27d2 <__ultoa_invert>
    253a:	a8 2e       	mov	r10, r24
    253c:	a8 18       	sub	r10, r8
    253e:	44 c0       	rjmp	.+136    	; 0x25c8 <vfprintf+0x290>
    2540:	85 37       	cpi	r24, 0x75	; 117
    2542:	29 f4       	brne	.+10     	; 0x254e <vfprintf+0x216>
    2544:	2f 7e       	andi	r18, 0xEF	; 239
    2546:	b2 2e       	mov	r11, r18
    2548:	2a e0       	ldi	r18, 0x0A	; 10
    254a:	30 e0       	ldi	r19, 0x00	; 0
    254c:	25 c0       	rjmp	.+74     	; 0x2598 <vfprintf+0x260>
    254e:	f2 2f       	mov	r31, r18
    2550:	f9 7f       	andi	r31, 0xF9	; 249
    2552:	bf 2e       	mov	r11, r31
    2554:	8f 36       	cpi	r24, 0x6F	; 111
    2556:	c1 f0       	breq	.+48     	; 0x2588 <vfprintf+0x250>
    2558:	18 f4       	brcc	.+6      	; 0x2560 <vfprintf+0x228>
    255a:	88 35       	cpi	r24, 0x58	; 88
    255c:	79 f0       	breq	.+30     	; 0x257c <vfprintf+0x244>
    255e:	b4 c0       	rjmp	.+360    	; 0x26c8 <vfprintf+0x390>
    2560:	80 37       	cpi	r24, 0x70	; 112
    2562:	19 f0       	breq	.+6      	; 0x256a <vfprintf+0x232>
    2564:	88 37       	cpi	r24, 0x78	; 120
    2566:	21 f0       	breq	.+8      	; 0x2570 <vfprintf+0x238>
    2568:	af c0       	rjmp	.+350    	; 0x26c8 <vfprintf+0x390>
    256a:	2f 2f       	mov	r18, r31
    256c:	20 61       	ori	r18, 0x10	; 16
    256e:	b2 2e       	mov	r11, r18
    2570:	b4 fe       	sbrs	r11, 4
    2572:	0d c0       	rjmp	.+26     	; 0x258e <vfprintf+0x256>
    2574:	8b 2d       	mov	r24, r11
    2576:	84 60       	ori	r24, 0x04	; 4
    2578:	b8 2e       	mov	r11, r24
    257a:	09 c0       	rjmp	.+18     	; 0x258e <vfprintf+0x256>
    257c:	24 ff       	sbrs	r18, 4
    257e:	0a c0       	rjmp	.+20     	; 0x2594 <vfprintf+0x25c>
    2580:	9f 2f       	mov	r25, r31
    2582:	96 60       	ori	r25, 0x06	; 6
    2584:	b9 2e       	mov	r11, r25
    2586:	06 c0       	rjmp	.+12     	; 0x2594 <vfprintf+0x25c>
    2588:	28 e0       	ldi	r18, 0x08	; 8
    258a:	30 e0       	ldi	r19, 0x00	; 0
    258c:	05 c0       	rjmp	.+10     	; 0x2598 <vfprintf+0x260>
    258e:	20 e1       	ldi	r18, 0x10	; 16
    2590:	30 e0       	ldi	r19, 0x00	; 0
    2592:	02 c0       	rjmp	.+4      	; 0x2598 <vfprintf+0x260>
    2594:	20 e1       	ldi	r18, 0x10	; 16
    2596:	32 e0       	ldi	r19, 0x02	; 2
    2598:	f8 01       	movw	r30, r16
    259a:	b7 fe       	sbrs	r11, 7
    259c:	07 c0       	rjmp	.+14     	; 0x25ac <vfprintf+0x274>
    259e:	60 81       	ld	r22, Z
    25a0:	71 81       	ldd	r23, Z+1	; 0x01
    25a2:	82 81       	ldd	r24, Z+2	; 0x02
    25a4:	93 81       	ldd	r25, Z+3	; 0x03
    25a6:	0c 5f       	subi	r16, 0xFC	; 252
    25a8:	1f 4f       	sbci	r17, 0xFF	; 255
    25aa:	06 c0       	rjmp	.+12     	; 0x25b8 <vfprintf+0x280>
    25ac:	60 81       	ld	r22, Z
    25ae:	71 81       	ldd	r23, Z+1	; 0x01
    25b0:	80 e0       	ldi	r24, 0x00	; 0
    25b2:	90 e0       	ldi	r25, 0x00	; 0
    25b4:	0e 5f       	subi	r16, 0xFE	; 254
    25b6:	1f 4f       	sbci	r17, 0xFF	; 255
    25b8:	a4 01       	movw	r20, r8
    25ba:	0e 94 e9 13 	call	0x27d2	; 0x27d2 <__ultoa_invert>
    25be:	a8 2e       	mov	r10, r24
    25c0:	a8 18       	sub	r10, r8
    25c2:	fb 2d       	mov	r31, r11
    25c4:	ff 77       	andi	r31, 0x7F	; 127
    25c6:	bf 2e       	mov	r11, r31
    25c8:	b6 fe       	sbrs	r11, 6
    25ca:	0b c0       	rjmp	.+22     	; 0x25e2 <vfprintf+0x2aa>
    25cc:	2b 2d       	mov	r18, r11
    25ce:	2e 7f       	andi	r18, 0xFE	; 254
    25d0:	a5 14       	cp	r10, r5
    25d2:	50 f4       	brcc	.+20     	; 0x25e8 <vfprintf+0x2b0>
    25d4:	b4 fe       	sbrs	r11, 4
    25d6:	0a c0       	rjmp	.+20     	; 0x25ec <vfprintf+0x2b4>
    25d8:	b2 fc       	sbrc	r11, 2
    25da:	08 c0       	rjmp	.+16     	; 0x25ec <vfprintf+0x2b4>
    25dc:	2b 2d       	mov	r18, r11
    25de:	2e 7e       	andi	r18, 0xEE	; 238
    25e0:	05 c0       	rjmp	.+10     	; 0x25ec <vfprintf+0x2b4>
    25e2:	7a 2c       	mov	r7, r10
    25e4:	2b 2d       	mov	r18, r11
    25e6:	03 c0       	rjmp	.+6      	; 0x25ee <vfprintf+0x2b6>
    25e8:	7a 2c       	mov	r7, r10
    25ea:	01 c0       	rjmp	.+2      	; 0x25ee <vfprintf+0x2b6>
    25ec:	75 2c       	mov	r7, r5
    25ee:	24 ff       	sbrs	r18, 4
    25f0:	0d c0       	rjmp	.+26     	; 0x260c <vfprintf+0x2d4>
    25f2:	fe 01       	movw	r30, r28
    25f4:	ea 0d       	add	r30, r10
    25f6:	f1 1d       	adc	r31, r1
    25f8:	80 81       	ld	r24, Z
    25fa:	80 33       	cpi	r24, 0x30	; 48
    25fc:	11 f4       	brne	.+4      	; 0x2602 <vfprintf+0x2ca>
    25fe:	29 7e       	andi	r18, 0xE9	; 233
    2600:	09 c0       	rjmp	.+18     	; 0x2614 <vfprintf+0x2dc>
    2602:	22 ff       	sbrs	r18, 2
    2604:	06 c0       	rjmp	.+12     	; 0x2612 <vfprintf+0x2da>
    2606:	73 94       	inc	r7
    2608:	73 94       	inc	r7
    260a:	04 c0       	rjmp	.+8      	; 0x2614 <vfprintf+0x2dc>
    260c:	82 2f       	mov	r24, r18
    260e:	86 78       	andi	r24, 0x86	; 134
    2610:	09 f0       	breq	.+2      	; 0x2614 <vfprintf+0x2dc>
    2612:	73 94       	inc	r7
    2614:	23 fd       	sbrc	r18, 3
    2616:	13 c0       	rjmp	.+38     	; 0x263e <vfprintf+0x306>
    2618:	20 ff       	sbrs	r18, 0
    261a:	06 c0       	rjmp	.+12     	; 0x2628 <vfprintf+0x2f0>
    261c:	5a 2c       	mov	r5, r10
    261e:	73 14       	cp	r7, r3
    2620:	18 f4       	brcc	.+6      	; 0x2628 <vfprintf+0x2f0>
    2622:	53 0c       	add	r5, r3
    2624:	57 18       	sub	r5, r7
    2626:	73 2c       	mov	r7, r3
    2628:	73 14       	cp	r7, r3
    262a:	68 f4       	brcc	.+26     	; 0x2646 <vfprintf+0x30e>
    262c:	b7 01       	movw	r22, r14
    262e:	80 e2       	ldi	r24, 0x20	; 32
    2630:	90 e0       	ldi	r25, 0x00	; 0
    2632:	2c 87       	std	Y+12, r18	; 0x0c
    2634:	0e 94 b7 13 	call	0x276e	; 0x276e <fputc>
    2638:	73 94       	inc	r7
    263a:	2c 85       	ldd	r18, Y+12	; 0x0c
    263c:	f5 cf       	rjmp	.-22     	; 0x2628 <vfprintf+0x2f0>
    263e:	73 14       	cp	r7, r3
    2640:	10 f4       	brcc	.+4      	; 0x2646 <vfprintf+0x30e>
    2642:	37 18       	sub	r3, r7
    2644:	01 c0       	rjmp	.+2      	; 0x2648 <vfprintf+0x310>
    2646:	31 2c       	mov	r3, r1
    2648:	24 ff       	sbrs	r18, 4
    264a:	12 c0       	rjmp	.+36     	; 0x2670 <vfprintf+0x338>
    264c:	b7 01       	movw	r22, r14
    264e:	80 e3       	ldi	r24, 0x30	; 48
    2650:	90 e0       	ldi	r25, 0x00	; 0
    2652:	2c 87       	std	Y+12, r18	; 0x0c
    2654:	0e 94 b7 13 	call	0x276e	; 0x276e <fputc>
    2658:	2c 85       	ldd	r18, Y+12	; 0x0c
    265a:	22 ff       	sbrs	r18, 2
    265c:	17 c0       	rjmp	.+46     	; 0x268c <vfprintf+0x354>
    265e:	21 ff       	sbrs	r18, 1
    2660:	03 c0       	rjmp	.+6      	; 0x2668 <vfprintf+0x330>
    2662:	88 e5       	ldi	r24, 0x58	; 88
    2664:	90 e0       	ldi	r25, 0x00	; 0
    2666:	02 c0       	rjmp	.+4      	; 0x266c <vfprintf+0x334>
    2668:	88 e7       	ldi	r24, 0x78	; 120
    266a:	90 e0       	ldi	r25, 0x00	; 0
    266c:	b7 01       	movw	r22, r14
    266e:	0c c0       	rjmp	.+24     	; 0x2688 <vfprintf+0x350>
    2670:	82 2f       	mov	r24, r18
    2672:	86 78       	andi	r24, 0x86	; 134
    2674:	59 f0       	breq	.+22     	; 0x268c <vfprintf+0x354>
    2676:	21 fd       	sbrc	r18, 1
    2678:	02 c0       	rjmp	.+4      	; 0x267e <vfprintf+0x346>
    267a:	80 e2       	ldi	r24, 0x20	; 32
    267c:	01 c0       	rjmp	.+2      	; 0x2680 <vfprintf+0x348>
    267e:	8b e2       	ldi	r24, 0x2B	; 43
    2680:	27 fd       	sbrc	r18, 7
    2682:	8d e2       	ldi	r24, 0x2D	; 45
    2684:	b7 01       	movw	r22, r14
    2686:	90 e0       	ldi	r25, 0x00	; 0
    2688:	0e 94 b7 13 	call	0x276e	; 0x276e <fputc>
    268c:	a5 14       	cp	r10, r5
    268e:	38 f4       	brcc	.+14     	; 0x269e <vfprintf+0x366>
    2690:	b7 01       	movw	r22, r14
    2692:	80 e3       	ldi	r24, 0x30	; 48
    2694:	90 e0       	ldi	r25, 0x00	; 0
    2696:	0e 94 b7 13 	call	0x276e	; 0x276e <fputc>
    269a:	5a 94       	dec	r5
    269c:	f7 cf       	rjmp	.-18     	; 0x268c <vfprintf+0x354>
    269e:	aa 94       	dec	r10
    26a0:	f4 01       	movw	r30, r8
    26a2:	ea 0d       	add	r30, r10
    26a4:	f1 1d       	adc	r31, r1
    26a6:	80 81       	ld	r24, Z
    26a8:	b7 01       	movw	r22, r14
    26aa:	90 e0       	ldi	r25, 0x00	; 0
    26ac:	0e 94 b7 13 	call	0x276e	; 0x276e <fputc>
    26b0:	a1 10       	cpse	r10, r1
    26b2:	f5 cf       	rjmp	.-22     	; 0x269e <vfprintf+0x366>
    26b4:	33 20       	and	r3, r3
    26b6:	09 f4       	brne	.+2      	; 0x26ba <vfprintf+0x382>
    26b8:	51 ce       	rjmp	.-862    	; 0x235c <vfprintf+0x24>
    26ba:	b7 01       	movw	r22, r14
    26bc:	80 e2       	ldi	r24, 0x20	; 32
    26be:	90 e0       	ldi	r25, 0x00	; 0
    26c0:	0e 94 b7 13 	call	0x276e	; 0x276e <fputc>
    26c4:	3a 94       	dec	r3
    26c6:	f6 cf       	rjmp	.-20     	; 0x26b4 <vfprintf+0x37c>
    26c8:	f7 01       	movw	r30, r14
    26ca:	86 81       	ldd	r24, Z+6	; 0x06
    26cc:	97 81       	ldd	r25, Z+7	; 0x07
    26ce:	02 c0       	rjmp	.+4      	; 0x26d4 <vfprintf+0x39c>
    26d0:	8f ef       	ldi	r24, 0xFF	; 255
    26d2:	9f ef       	ldi	r25, 0xFF	; 255
    26d4:	2c 96       	adiw	r28, 0x0c	; 12
    26d6:	e2 e1       	ldi	r30, 0x12	; 18
    26d8:	0c 94 63 14 	jmp	0x28c6	; 0x28c6 <__epilogue_restores__>

000026dc <calloc>:
    26dc:	0f 93       	push	r16
    26de:	1f 93       	push	r17
    26e0:	cf 93       	push	r28
    26e2:	df 93       	push	r29
    26e4:	86 9f       	mul	r24, r22
    26e6:	80 01       	movw	r16, r0
    26e8:	87 9f       	mul	r24, r23
    26ea:	10 0d       	add	r17, r0
    26ec:	96 9f       	mul	r25, r22
    26ee:	10 0d       	add	r17, r0
    26f0:	11 24       	eor	r1, r1
    26f2:	c8 01       	movw	r24, r16
    26f4:	0e 94 b4 0f 	call	0x1f68	; 0x1f68 <malloc>
    26f8:	ec 01       	movw	r28, r24
    26fa:	00 97       	sbiw	r24, 0x00	; 0
    26fc:	29 f0       	breq	.+10     	; 0x2708 <calloc+0x2c>
    26fe:	a8 01       	movw	r20, r16
    2700:	60 e0       	ldi	r22, 0x00	; 0
    2702:	70 e0       	ldi	r23, 0x00	; 0
    2704:	0e 94 95 13 	call	0x272a	; 0x272a <memset>
    2708:	ce 01       	movw	r24, r28
    270a:	df 91       	pop	r29
    270c:	cf 91       	pop	r28
    270e:	1f 91       	pop	r17
    2710:	0f 91       	pop	r16
    2712:	08 95       	ret

00002714 <strnlen_P>:
    2714:	fc 01       	movw	r30, r24
    2716:	05 90       	lpm	r0, Z+
    2718:	61 50       	subi	r22, 0x01	; 1
    271a:	70 40       	sbci	r23, 0x00	; 0
    271c:	01 10       	cpse	r0, r1
    271e:	d8 f7       	brcc	.-10     	; 0x2716 <strnlen_P+0x2>
    2720:	80 95       	com	r24
    2722:	90 95       	com	r25
    2724:	8e 0f       	add	r24, r30
    2726:	9f 1f       	adc	r25, r31
    2728:	08 95       	ret

0000272a <memset>:
    272a:	dc 01       	movw	r26, r24
    272c:	01 c0       	rjmp	.+2      	; 0x2730 <memset+0x6>
    272e:	6d 93       	st	X+, r22
    2730:	41 50       	subi	r20, 0x01	; 1
    2732:	50 40       	sbci	r21, 0x00	; 0
    2734:	e0 f7       	brcc	.-8      	; 0x272e <memset+0x4>
    2736:	08 95       	ret

00002738 <strnlen>:
    2738:	fc 01       	movw	r30, r24
    273a:	61 50       	subi	r22, 0x01	; 1
    273c:	70 40       	sbci	r23, 0x00	; 0
    273e:	01 90       	ld	r0, Z+
    2740:	01 10       	cpse	r0, r1
    2742:	d8 f7       	brcc	.-10     	; 0x273a <strnlen+0x2>
    2744:	80 95       	com	r24
    2746:	90 95       	com	r25
    2748:	8e 0f       	add	r24, r30
    274a:	9f 1f       	adc	r25, r31
    274c:	08 95       	ret

0000274e <strrev>:
    274e:	dc 01       	movw	r26, r24
    2750:	fc 01       	movw	r30, r24
    2752:	67 2f       	mov	r22, r23
    2754:	71 91       	ld	r23, Z+
    2756:	77 23       	and	r23, r23
    2758:	e1 f7       	brne	.-8      	; 0x2752 <strrev+0x4>
    275a:	32 97       	sbiw	r30, 0x02	; 2
    275c:	04 c0       	rjmp	.+8      	; 0x2766 <strrev+0x18>
    275e:	7c 91       	ld	r23, X
    2760:	6d 93       	st	X+, r22
    2762:	70 83       	st	Z, r23
    2764:	62 91       	ld	r22, -Z
    2766:	ae 17       	cp	r26, r30
    2768:	bf 07       	cpc	r27, r31
    276a:	c8 f3       	brcs	.-14     	; 0x275e <strrev+0x10>
    276c:	08 95       	ret

0000276e <fputc>:
    276e:	0f 93       	push	r16
    2770:	1f 93       	push	r17
    2772:	cf 93       	push	r28
    2774:	df 93       	push	r29
    2776:	18 2f       	mov	r17, r24
    2778:	09 2f       	mov	r16, r25
    277a:	eb 01       	movw	r28, r22
    277c:	8b 81       	ldd	r24, Y+3	; 0x03
    277e:	81 fd       	sbrc	r24, 1
    2780:	03 c0       	rjmp	.+6      	; 0x2788 <fputc+0x1a>
    2782:	8f ef       	ldi	r24, 0xFF	; 255
    2784:	9f ef       	ldi	r25, 0xFF	; 255
    2786:	20 c0       	rjmp	.+64     	; 0x27c8 <fputc+0x5a>
    2788:	82 ff       	sbrs	r24, 2
    278a:	10 c0       	rjmp	.+32     	; 0x27ac <fputc+0x3e>
    278c:	4e 81       	ldd	r20, Y+6	; 0x06
    278e:	5f 81       	ldd	r21, Y+7	; 0x07
    2790:	2c 81       	ldd	r18, Y+4	; 0x04
    2792:	3d 81       	ldd	r19, Y+5	; 0x05
    2794:	42 17       	cp	r20, r18
    2796:	53 07       	cpc	r21, r19
    2798:	7c f4       	brge	.+30     	; 0x27b8 <fputc+0x4a>
    279a:	e8 81       	ld	r30, Y
    279c:	f9 81       	ldd	r31, Y+1	; 0x01
    279e:	9f 01       	movw	r18, r30
    27a0:	2f 5f       	subi	r18, 0xFF	; 255
    27a2:	3f 4f       	sbci	r19, 0xFF	; 255
    27a4:	39 83       	std	Y+1, r19	; 0x01
    27a6:	28 83       	st	Y, r18
    27a8:	10 83       	st	Z, r17
    27aa:	06 c0       	rjmp	.+12     	; 0x27b8 <fputc+0x4a>
    27ac:	e8 85       	ldd	r30, Y+8	; 0x08
    27ae:	f9 85       	ldd	r31, Y+9	; 0x09
    27b0:	81 2f       	mov	r24, r17
    27b2:	09 95       	icall
    27b4:	89 2b       	or	r24, r25
    27b6:	29 f7       	brne	.-54     	; 0x2782 <fputc+0x14>
    27b8:	2e 81       	ldd	r18, Y+6	; 0x06
    27ba:	3f 81       	ldd	r19, Y+7	; 0x07
    27bc:	2f 5f       	subi	r18, 0xFF	; 255
    27be:	3f 4f       	sbci	r19, 0xFF	; 255
    27c0:	3f 83       	std	Y+7, r19	; 0x07
    27c2:	2e 83       	std	Y+6, r18	; 0x06
    27c4:	81 2f       	mov	r24, r17
    27c6:	90 2f       	mov	r25, r16
    27c8:	df 91       	pop	r29
    27ca:	cf 91       	pop	r28
    27cc:	1f 91       	pop	r17
    27ce:	0f 91       	pop	r16
    27d0:	08 95       	ret

000027d2 <__ultoa_invert>:
    27d2:	fa 01       	movw	r30, r20
    27d4:	aa 27       	eor	r26, r26
    27d6:	28 30       	cpi	r18, 0x08	; 8
    27d8:	51 f1       	breq	.+84     	; 0x282e <__ultoa_invert+0x5c>
    27da:	20 31       	cpi	r18, 0x10	; 16
    27dc:	81 f1       	breq	.+96     	; 0x283e <__ultoa_invert+0x6c>
    27de:	e8 94       	clt
    27e0:	6f 93       	push	r22
    27e2:	6e 7f       	andi	r22, 0xFE	; 254
    27e4:	6e 5f       	subi	r22, 0xFE	; 254
    27e6:	7f 4f       	sbci	r23, 0xFF	; 255
    27e8:	8f 4f       	sbci	r24, 0xFF	; 255
    27ea:	9f 4f       	sbci	r25, 0xFF	; 255
    27ec:	af 4f       	sbci	r26, 0xFF	; 255
    27ee:	b1 e0       	ldi	r27, 0x01	; 1
    27f0:	3e d0       	rcall	.+124    	; 0x286e <__ultoa_invert+0x9c>
    27f2:	b4 e0       	ldi	r27, 0x04	; 4
    27f4:	3c d0       	rcall	.+120    	; 0x286e <__ultoa_invert+0x9c>
    27f6:	67 0f       	add	r22, r23
    27f8:	78 1f       	adc	r23, r24
    27fa:	89 1f       	adc	r24, r25
    27fc:	9a 1f       	adc	r25, r26
    27fe:	a1 1d       	adc	r26, r1
    2800:	68 0f       	add	r22, r24
    2802:	79 1f       	adc	r23, r25
    2804:	8a 1f       	adc	r24, r26
    2806:	91 1d       	adc	r25, r1
    2808:	a1 1d       	adc	r26, r1
    280a:	6a 0f       	add	r22, r26
    280c:	71 1d       	adc	r23, r1
    280e:	81 1d       	adc	r24, r1
    2810:	91 1d       	adc	r25, r1
    2812:	a1 1d       	adc	r26, r1
    2814:	20 d0       	rcall	.+64     	; 0x2856 <__ultoa_invert+0x84>
    2816:	09 f4       	brne	.+2      	; 0x281a <__ultoa_invert+0x48>
    2818:	68 94       	set
    281a:	3f 91       	pop	r19
    281c:	2a e0       	ldi	r18, 0x0A	; 10
    281e:	26 9f       	mul	r18, r22
    2820:	11 24       	eor	r1, r1
    2822:	30 19       	sub	r19, r0
    2824:	30 5d       	subi	r19, 0xD0	; 208
    2826:	31 93       	st	Z+, r19
    2828:	de f6       	brtc	.-74     	; 0x27e0 <__ultoa_invert+0xe>
    282a:	cf 01       	movw	r24, r30
    282c:	08 95       	ret
    282e:	46 2f       	mov	r20, r22
    2830:	47 70       	andi	r20, 0x07	; 7
    2832:	40 5d       	subi	r20, 0xD0	; 208
    2834:	41 93       	st	Z+, r20
    2836:	b3 e0       	ldi	r27, 0x03	; 3
    2838:	0f d0       	rcall	.+30     	; 0x2858 <__ultoa_invert+0x86>
    283a:	c9 f7       	brne	.-14     	; 0x282e <__ultoa_invert+0x5c>
    283c:	f6 cf       	rjmp	.-20     	; 0x282a <__ultoa_invert+0x58>
    283e:	46 2f       	mov	r20, r22
    2840:	4f 70       	andi	r20, 0x0F	; 15
    2842:	40 5d       	subi	r20, 0xD0	; 208
    2844:	4a 33       	cpi	r20, 0x3A	; 58
    2846:	18 f0       	brcs	.+6      	; 0x284e <__ultoa_invert+0x7c>
    2848:	49 5d       	subi	r20, 0xD9	; 217
    284a:	31 fd       	sbrc	r19, 1
    284c:	40 52       	subi	r20, 0x20	; 32
    284e:	41 93       	st	Z+, r20
    2850:	02 d0       	rcall	.+4      	; 0x2856 <__ultoa_invert+0x84>
    2852:	a9 f7       	brne	.-22     	; 0x283e <__ultoa_invert+0x6c>
    2854:	ea cf       	rjmp	.-44     	; 0x282a <__ultoa_invert+0x58>
    2856:	b4 e0       	ldi	r27, 0x04	; 4
    2858:	a6 95       	lsr	r26
    285a:	97 95       	ror	r25
    285c:	87 95       	ror	r24
    285e:	77 95       	ror	r23
    2860:	67 95       	ror	r22
    2862:	ba 95       	dec	r27
    2864:	c9 f7       	brne	.-14     	; 0x2858 <__ultoa_invert+0x86>
    2866:	00 97       	sbiw	r24, 0x00	; 0
    2868:	61 05       	cpc	r22, r1
    286a:	71 05       	cpc	r23, r1
    286c:	08 95       	ret
    286e:	9b 01       	movw	r18, r22
    2870:	ac 01       	movw	r20, r24
    2872:	0a 2e       	mov	r0, r26
    2874:	06 94       	lsr	r0
    2876:	57 95       	ror	r21
    2878:	47 95       	ror	r20
    287a:	37 95       	ror	r19
    287c:	27 95       	ror	r18
    287e:	ba 95       	dec	r27
    2880:	c9 f7       	brne	.-14     	; 0x2874 <__ultoa_invert+0xa2>
    2882:	62 0f       	add	r22, r18
    2884:	73 1f       	adc	r23, r19
    2886:	84 1f       	adc	r24, r20
    2888:	95 1f       	adc	r25, r21
    288a:	a0 1d       	adc	r26, r0
    288c:	08 95       	ret

0000288e <__prologue_saves__>:
    288e:	2f 92       	push	r2
    2890:	3f 92       	push	r3
    2892:	4f 92       	push	r4
    2894:	5f 92       	push	r5
    2896:	6f 92       	push	r6
    2898:	7f 92       	push	r7
    289a:	8f 92       	push	r8
    289c:	9f 92       	push	r9
    289e:	af 92       	push	r10
    28a0:	bf 92       	push	r11
    28a2:	cf 92       	push	r12
    28a4:	df 92       	push	r13
    28a6:	ef 92       	push	r14
    28a8:	ff 92       	push	r15
    28aa:	0f 93       	push	r16
    28ac:	1f 93       	push	r17
    28ae:	cf 93       	push	r28
    28b0:	df 93       	push	r29
    28b2:	cd b7       	in	r28, 0x3d	; 61
    28b4:	de b7       	in	r29, 0x3e	; 62
    28b6:	ca 1b       	sub	r28, r26
    28b8:	db 0b       	sbc	r29, r27
    28ba:	0f b6       	in	r0, 0x3f	; 63
    28bc:	f8 94       	cli
    28be:	de bf       	out	0x3e, r29	; 62
    28c0:	0f be       	out	0x3f, r0	; 63
    28c2:	cd bf       	out	0x3d, r28	; 61
    28c4:	09 94       	ijmp

000028c6 <__epilogue_restores__>:
    28c6:	2a 88       	ldd	r2, Y+18	; 0x12
    28c8:	39 88       	ldd	r3, Y+17	; 0x11
    28ca:	48 88       	ldd	r4, Y+16	; 0x10
    28cc:	5f 84       	ldd	r5, Y+15	; 0x0f
    28ce:	6e 84       	ldd	r6, Y+14	; 0x0e
    28d0:	7d 84       	ldd	r7, Y+13	; 0x0d
    28d2:	8c 84       	ldd	r8, Y+12	; 0x0c
    28d4:	9b 84       	ldd	r9, Y+11	; 0x0b
    28d6:	aa 84       	ldd	r10, Y+10	; 0x0a
    28d8:	b9 84       	ldd	r11, Y+9	; 0x09
    28da:	c8 84       	ldd	r12, Y+8	; 0x08
    28dc:	df 80       	ldd	r13, Y+7	; 0x07
    28de:	ee 80       	ldd	r14, Y+6	; 0x06
    28e0:	fd 80       	ldd	r15, Y+5	; 0x05
    28e2:	0c 81       	ldd	r16, Y+4	; 0x04
    28e4:	1b 81       	ldd	r17, Y+3	; 0x03
    28e6:	aa 81       	ldd	r26, Y+2	; 0x02
    28e8:	b9 81       	ldd	r27, Y+1	; 0x01
    28ea:	ce 0f       	add	r28, r30
    28ec:	d1 1d       	adc	r29, r1
    28ee:	0f b6       	in	r0, 0x3f	; 63
    28f0:	f8 94       	cli
    28f2:	de bf       	out	0x3e, r29	; 62
    28f4:	0f be       	out	0x3f, r0	; 63
    28f6:	cd bf       	out	0x3d, r28	; 61
    28f8:	ed 01       	movw	r28, r26
    28fa:	08 95       	ret

000028fc <_exit>:
    28fc:	f8 94       	cli

000028fe <__stop_program>:
    28fe:	ff cf       	rjmp	.-2      	; 0x28fe <__stop_program>
