
ping_pong.elf:     file format elf32-avr

Sections:
Idx Name          Size      VMA       LMA       File off  Algn
  0 .data         00000082  00800100  000017ca  0000185e  2**0
                  CONTENTS, ALLOC, LOAD, DATA
  1 .text         000017ca  00000000  00000000  00000094  2**1
                  CONTENTS, ALLOC, LOAD, READONLY, CODE
  2 .bss          00000011  00800182  00800182  000018e0  2**0
                  ALLOC
  3 .comment      0000005c  00000000  00000000  000018e0  2**0
                  CONTENTS, READONLY
  4 .debug_aranges 00000180  00000000  00000000  0000193c  2**0
                  CONTENTS, READONLY, DEBUGGING
  5 .debug_info   00001432  00000000  00000000  00001abc  2**0
                  CONTENTS, READONLY, DEBUGGING
  6 .debug_abbrev 000008c0  00000000  00000000  00002eee  2**0
                  CONTENTS, READONLY, DEBUGGING
  7 .debug_line   00000744  00000000  00000000  000037ae  2**0
                  CONTENTS, READONLY, DEBUGGING
  8 .debug_frame  00000314  00000000  00000000  00003ef4  2**2
                  CONTENTS, READONLY, DEBUGGING
  9 .debug_str    000004e4  00000000  00000000  00004208  2**0
                  CONTENTS, READONLY, DEBUGGING
 10 .debug_loc    000008a8  00000000  00000000  000046ec  2**0
                  CONTENTS, READONLY, DEBUGGING
 11 .debug_ranges 00000120  00000000  00000000  00004f94  2**0
                  CONTENTS, READONLY, DEBUGGING

Disassembly of section .text:

00000000 <__vectors>:
       0:	0c 94 b4 01 	jmp	0x368	; 0x368 <__ctors_end>
       4:	0c 94 d1 01 	jmp	0x3a2	; 0x3a2 <__bad_interrupt>
       8:	0c 94 d1 01 	jmp	0x3a2	; 0x3a2 <__bad_interrupt>
       c:	0c 94 38 05 	jmp	0xa70	; 0xa70 <__vector_3>
      10:	0c 94 d1 01 	jmp	0x3a2	; 0x3a2 <__bad_interrupt>
      14:	0c 94 d1 01 	jmp	0x3a2	; 0x3a2 <__bad_interrupt>
      18:	0c 94 d1 01 	jmp	0x3a2	; 0x3a2 <__bad_interrupt>
      1c:	0c 94 d1 01 	jmp	0x3a2	; 0x3a2 <__bad_interrupt>
      20:	0c 94 d1 01 	jmp	0x3a2	; 0x3a2 <__bad_interrupt>
      24:	0c 94 d1 01 	jmp	0x3a2	; 0x3a2 <__bad_interrupt>
      28:	0c 94 d1 01 	jmp	0x3a2	; 0x3a2 <__bad_interrupt>
      2c:	0c 94 d1 01 	jmp	0x3a2	; 0x3a2 <__bad_interrupt>
      30:	0c 94 d1 01 	jmp	0x3a2	; 0x3a2 <__bad_interrupt>
      34:	0c 94 d1 01 	jmp	0x3a2	; 0x3a2 <__bad_interrupt>
      38:	0c 94 d1 01 	jmp	0x3a2	; 0x3a2 <__bad_interrupt>
      3c:	0c 94 d1 01 	jmp	0x3a2	; 0x3a2 <__bad_interrupt>
      40:	0c 94 d1 01 	jmp	0x3a2	; 0x3a2 <__bad_interrupt>
      44:	0c 94 d1 01 	jmp	0x3a2	; 0x3a2 <__bad_interrupt>
      48:	0c 94 d1 01 	jmp	0x3a2	; 0x3a2 <__bad_interrupt>
      4c:	0c 94 d1 01 	jmp	0x3a2	; 0x3a2 <__bad_interrupt>
      50:	0c 94 d1 01 	jmp	0x3a2	; 0x3a2 <__bad_interrupt>
      54:	0c 94 d1 01 	jmp	0x3a2	; 0x3a2 <__bad_interrupt>
      58:	0c 94 d1 01 	jmp	0x3a2	; 0x3a2 <__bad_interrupt>
      5c:	0c 94 d1 01 	jmp	0x3a2	; 0x3a2 <__bad_interrupt>
      60:	0c 94 d1 01 	jmp	0x3a2	; 0x3a2 <__bad_interrupt>
      64:	0c 94 d1 01 	jmp	0x3a2	; 0x3a2 <__bad_interrupt>
      68:	0c 94 d1 01 	jmp	0x3a2	; 0x3a2 <__bad_interrupt>
      6c:	0c 94 d1 01 	jmp	0x3a2	; 0x3a2 <__bad_interrupt>

00000070 <__trampolines_end>:
	...
      78:	00 06       	cpc	r0, r16
      7a:	5f 5f       	subi	r21, 0xFF	; 255
      7c:	06 00       	.word	0x0006	; ????
      7e:	00 00       	nop
      80:	00 07       	cpc	r16, r16
      82:	07 00       	.word	0x0007	; ????
      84:	07 07       	cpc	r16, r23
      86:	00 00       	nop
      88:	14 7f       	andi	r17, 0xF4	; 244
      8a:	7f 14       	cp	r7, r15
      8c:	7f 7f       	andi	r23, 0xFF	; 255
      8e:	14 00       	.word	0x0014	; ????
      90:	24 2e       	mov	r2, r20
      92:	6b 6b       	ori	r22, 0xBB	; 187
      94:	3a 12       	cpse	r3, r26
      96:	00 00       	nop
      98:	46 66       	ori	r20, 0x66	; 102
      9a:	30 18       	sub	r3, r0
      9c:	0c 66       	ori	r16, 0x6C	; 108
      9e:	62 00       	.word	0x0062	; ????
      a0:	30 7a       	andi	r19, 0xA0	; 160
      a2:	4f 5d       	subi	r20, 0xDF	; 223
      a4:	37 7a       	andi	r19, 0xA7	; 167
      a6:	48 00       	.word	0x0048	; ????
      a8:	04 07       	cpc	r16, r20
      aa:	03 00       	.word	0x0003	; ????
      ac:	00 00       	nop
      ae:	00 00       	nop
      b0:	00 1c       	adc	r0, r0
      b2:	3e 63       	ori	r19, 0x3E	; 62
      b4:	41 00       	.word	0x0041	; ????
      b6:	00 00       	nop
      b8:	00 41       	sbci	r16, 0x10	; 16
      ba:	63 3e       	cpi	r22, 0xE3	; 227
      bc:	1c 00       	.word	0x001c	; ????
      be:	00 00       	nop
      c0:	08 2a       	or	r0, r24
      c2:	3e 1c       	adc	r3, r14
      c4:	1c 3e       	cpi	r17, 0xEC	; 236
      c6:	2a 08       	sbc	r2, r10
      c8:	08 08       	sbc	r0, r8
      ca:	3e 3e       	cpi	r19, 0xEE	; 238
      cc:	08 08       	sbc	r0, r8
      ce:	00 00       	nop
      d0:	00 a0       	ldd	r0, Z+32	; 0x20
      d2:	e0 60       	ori	r30, 0x00	; 0
      d4:	00 00       	nop
      d6:	00 00       	nop
      d8:	08 08       	sbc	r0, r8
      da:	08 08       	sbc	r0, r8
      dc:	08 08       	sbc	r0, r8
      de:	00 00       	nop
      e0:	00 00       	nop
      e2:	60 60       	ori	r22, 0x00	; 0
      e4:	00 00       	nop
      e6:	00 00       	nop
      e8:	60 30       	cpi	r22, 0x00	; 0
      ea:	18 0c       	add	r1, r8
      ec:	06 03       	mulsu	r16, r22
      ee:	01 00       	.word	0x0001	; ????
      f0:	3e 7f       	andi	r19, 0xFE	; 254
      f2:	59 4d       	sbci	r21, 0xD9	; 217
      f4:	7f 3e       	cpi	r23, 0xEF	; 239
      f6:	00 00       	nop
      f8:	42 42       	sbci	r20, 0x22	; 34
      fa:	7f 7f       	andi	r23, 0xFF	; 255
      fc:	40 40       	sbci	r20, 0x00	; 0
      fe:	00 00       	nop
     100:	62 73       	andi	r22, 0x32	; 50
     102:	59 49       	sbci	r21, 0x99	; 153
     104:	6f 66       	ori	r22, 0x6F	; 111
     106:	00 00       	nop
     108:	22 63       	ori	r18, 0x32	; 50
     10a:	49 49       	sbci	r20, 0x99	; 153
     10c:	7f 36       	cpi	r23, 0x6F	; 111
     10e:	00 00       	nop
     110:	18 1c       	adc	r1, r8
     112:	16 13       	cpse	r17, r22
     114:	7f 7f       	andi	r23, 0xFF	; 255
     116:	10 00       	.word	0x0010	; ????
     118:	27 67       	ori	r18, 0x77	; 119
     11a:	45 45       	sbci	r20, 0x55	; 85
     11c:	7d 39       	cpi	r23, 0x9D	; 157
     11e:	00 00       	nop
     120:	3c 7e       	andi	r19, 0xEC	; 236
     122:	4b 49       	sbci	r20, 0x9B	; 155
     124:	79 30       	cpi	r23, 0x09	; 9
     126:	00 00       	nop
     128:	03 63       	ori	r16, 0x33	; 51
     12a:	71 19       	sub	r23, r1
     12c:	0f 07       	cpc	r16, r31
     12e:	00 00       	nop
     130:	36 7f       	andi	r19, 0xF6	; 246
     132:	49 49       	sbci	r20, 0x99	; 153
     134:	7f 36       	cpi	r23, 0x6F	; 111
     136:	00 00       	nop
     138:	06 4f       	sbci	r16, 0xF6	; 246
     13a:	49 69       	ori	r20, 0x99	; 153
     13c:	3f 1e       	adc	r3, r31
     13e:	00 00       	nop
     140:	00 00       	nop
     142:	6c 6c       	ori	r22, 0xCC	; 204
     144:	00 00       	nop
     146:	00 00       	nop
     148:	00 a0       	ldd	r0, Z+32	; 0x20
     14a:	ec 6c       	ori	r30, 0xCC	; 204
     14c:	00 00       	nop
     14e:	00 00       	nop
     150:	08 1c       	adc	r0, r8
     152:	36 63       	ori	r19, 0x36	; 54
     154:	41 00       	.word	0x0041	; ????
     156:	00 00       	nop
     158:	14 14       	cp	r1, r4
     15a:	14 14       	cp	r1, r4
     15c:	14 14       	cp	r1, r4
     15e:	00 00       	nop
     160:	00 41       	sbci	r16, 0x10	; 16
     162:	63 36       	cpi	r22, 0x63	; 99
     164:	1c 08       	sbc	r1, r12
     166:	00 00       	nop
     168:	02 03       	mulsu	r16, r18
     16a:	51 59       	subi	r21, 0x91	; 145
     16c:	0f 06       	cpc	r0, r31
     16e:	00 00       	nop
     170:	3e 7f       	andi	r19, 0xFE	; 254
     172:	41 5d       	subi	r20, 0xD1	; 209
     174:	5d 1f       	adc	r21, r29
     176:	1e 00       	.word	0x001e	; ????
     178:	7c 7e       	andi	r23, 0xEC	; 236
     17a:	13 13       	cpse	r17, r19
     17c:	7e 7c       	andi	r23, 0xCE	; 206
     17e:	00 00       	nop
     180:	41 7f       	andi	r20, 0xF1	; 241
     182:	7f 49       	sbci	r23, 0x9F	; 159
     184:	49 7f       	andi	r20, 0xF9	; 249
     186:	36 00       	.word	0x0036	; ????
     188:	1c 3e       	cpi	r17, 0xEC	; 236
     18a:	63 41       	sbci	r22, 0x13	; 19
     18c:	41 63       	ori	r20, 0x31	; 49
     18e:	22 00       	.word	0x0022	; ????
     190:	41 7f       	andi	r20, 0xF1	; 241
     192:	7f 41       	sbci	r23, 0x1F	; 31
     194:	63 7f       	andi	r22, 0xF3	; 243
     196:	1c 00       	.word	0x001c	; ????
     198:	41 7f       	andi	r20, 0xF1	; 241
     19a:	7f 49       	sbci	r23, 0x9F	; 159
     19c:	5d 41       	sbci	r21, 0x1D	; 29
     19e:	63 00       	.word	0x0063	; ????
     1a0:	41 7f       	andi	r20, 0xF1	; 241
     1a2:	7f 49       	sbci	r23, 0x9F	; 159
     1a4:	1d 01       	movw	r2, r26
     1a6:	03 00       	.word	0x0003	; ????
     1a8:	1c 3e       	cpi	r17, 0xEC	; 236
     1aa:	63 41       	sbci	r22, 0x13	; 19
     1ac:	51 73       	andi	r21, 0x31	; 49
     1ae:	72 00       	.word	0x0072	; ????
     1b0:	7f 7f       	andi	r23, 0xFF	; 255
     1b2:	08 08       	sbc	r0, r8
     1b4:	7f 7f       	andi	r23, 0xFF	; 255
     1b6:	00 00       	nop
     1b8:	00 41       	sbci	r16, 0x10	; 16
     1ba:	7f 7f       	andi	r23, 0xFF	; 255
     1bc:	41 00       	.word	0x0041	; ????
     1be:	00 00       	nop
     1c0:	30 70       	andi	r19, 0x00	; 0
     1c2:	40 41       	sbci	r20, 0x10	; 16
     1c4:	7f 3f       	cpi	r23, 0xFF	; 255
     1c6:	01 00       	.word	0x0001	; ????
     1c8:	41 7f       	andi	r20, 0xF1	; 241
     1ca:	7f 08       	sbc	r7, r15
     1cc:	1c 77       	andi	r17, 0x7C	; 124
     1ce:	63 00       	.word	0x0063	; ????
     1d0:	41 7f       	andi	r20, 0xF1	; 241
     1d2:	7f 41       	sbci	r23, 0x1F	; 31
     1d4:	40 60       	ori	r20, 0x00	; 0
     1d6:	70 00       	.word	0x0070	; ????
     1d8:	7f 7f       	andi	r23, 0xFF	; 255
     1da:	06 0c       	add	r0, r6
     1dc:	06 7f       	andi	r16, 0xF6	; 246
     1de:	7f 00       	.word	0x007f	; ????
     1e0:	7f 7f       	andi	r23, 0xFF	; 255
     1e2:	06 0c       	add	r0, r6
     1e4:	18 7f       	andi	r17, 0xF8	; 248
     1e6:	7f 00       	.word	0x007f	; ????
     1e8:	1c 3e       	cpi	r17, 0xEC	; 236
     1ea:	63 41       	sbci	r22, 0x13	; 19
     1ec:	63 3e       	cpi	r22, 0xE3	; 227
     1ee:	1c 00       	.word	0x001c	; ????
     1f0:	41 7f       	andi	r20, 0xF1	; 241
     1f2:	7f 49       	sbci	r23, 0x9F	; 159
     1f4:	09 0f       	add	r16, r25
     1f6:	06 00       	.word	0x0006	; ????
     1f8:	1e 3f       	cpi	r17, 0xFE	; 254
     1fa:	21 71       	andi	r18, 0x11	; 17
     1fc:	7f 5e       	subi	r23, 0xEF	; 239
     1fe:	00 00       	nop
     200:	41 7f       	andi	r20, 0xF1	; 241
     202:	7f 19       	sub	r23, r15
     204:	39 6f       	ori	r19, 0xF9	; 249
     206:	46 00       	.word	0x0046	; ????
     208:	26 67       	ori	r18, 0x76	; 118
     20a:	4d 59       	subi	r20, 0x9D	; 157
     20c:	7b 32       	cpi	r23, 0x2B	; 43
     20e:	00 00       	nop
     210:	03 41       	sbci	r16, 0x13	; 19
     212:	7f 7f       	andi	r23, 0xFF	; 255
     214:	41 03       	mulsu	r20, r17
     216:	00 00       	nop
     218:	7f 7f       	andi	r23, 0xFF	; 255
     21a:	40 40       	sbci	r20, 0x00	; 0
     21c:	7f 7f       	andi	r23, 0xFF	; 255
     21e:	00 00       	nop
     220:	1f 3f       	cpi	r17, 0xFF	; 255
     222:	60 60       	ori	r22, 0x00	; 0
     224:	3f 1f       	adc	r19, r31
     226:	00 00       	nop
     228:	7f 7f       	andi	r23, 0xFF	; 255
     22a:	30 18       	sub	r3, r0
     22c:	30 7f       	andi	r19, 0xF0	; 240
     22e:	7f 00       	.word	0x007f	; ????
     230:	63 77       	andi	r22, 0x73	; 115
     232:	1c 08       	sbc	r1, r12
     234:	1c 77       	andi	r17, 0x7C	; 124
     236:	63 00       	.word	0x0063	; ????
     238:	07 4f       	sbci	r16, 0xF7	; 247
     23a:	78 78       	andi	r23, 0x88	; 136
     23c:	4f 07       	cpc	r20, r31
     23e:	00 00       	nop
     240:	67 73       	andi	r22, 0x37	; 55
     242:	59 4d       	sbci	r21, 0xD9	; 217
     244:	47 63       	ori	r20, 0x37	; 55
     246:	71 00       	.word	0x0071	; ????
     248:	00 7f       	andi	r16, 0xF0	; 240
     24a:	7f 41       	sbci	r23, 0x1F	; 31
     24c:	41 00       	.word	0x0041	; ????
     24e:	00 00       	nop
     250:	01 03       	mulsu	r16, r17
     252:	06 0c       	add	r0, r6
     254:	18 30       	cpi	r17, 0x08	; 8
     256:	60 00       	.word	0x0060	; ????
     258:	00 41       	sbci	r16, 0x10	; 16
     25a:	41 7f       	andi	r20, 0xF1	; 241
     25c:	7f 00       	.word	0x007f	; ????
     25e:	00 00       	nop
     260:	08 0c       	add	r0, r8
     262:	06 03       	mulsu	r16, r22
     264:	06 0c       	add	r0, r6
     266:	08 00       	.word	0x0008	; ????
     268:	80 80       	ld	r8, Z
     26a:	80 80       	ld	r8, Z
     26c:	80 80       	ld	r8, Z
     26e:	80 80       	ld	r8, Z
     270:	00 00       	nop
     272:	03 07       	cpc	r16, r19
     274:	04 00       	.word	0x0004	; ????
     276:	00 00       	nop
     278:	20 74       	andi	r18, 0x40	; 64
     27a:	54 54       	subi	r21, 0x44	; 68
     27c:	3c 78       	andi	r19, 0x8C	; 140
     27e:	40 00       	.word	0x0040	; ????
     280:	41 3f       	cpi	r20, 0xF1	; 241
     282:	7f 44       	sbci	r23, 0x4F	; 79
     284:	44 7c       	andi	r20, 0xC4	; 196
     286:	38 00       	.word	0x0038	; ????
     288:	38 7c       	andi	r19, 0xC8	; 200
     28a:	44 44       	sbci	r20, 0x44	; 68
     28c:	6c 28       	or	r6, r12
     28e:	00 00       	nop
     290:	30 78       	andi	r19, 0x80	; 128
     292:	48 49       	sbci	r20, 0x98	; 152
     294:	3f 7f       	andi	r19, 0xFF	; 255
     296:	40 00       	.word	0x0040	; ????
     298:	38 7c       	andi	r19, 0xC8	; 200
     29a:	54 54       	subi	r21, 0x44	; 68
     29c:	5c 18       	sub	r5, r12
     29e:	00 00       	nop
     2a0:	48 7e       	andi	r20, 0xE8	; 232
     2a2:	7f 49       	sbci	r23, 0x9F	; 159
     2a4:	03 02       	muls	r16, r19
     2a6:	00 00       	nop
     2a8:	98 bc       	out	0x28, r9	; 40
     2aa:	a4 a4       	ldd	r10, Z+44	; 0x2c
     2ac:	f8 7c       	andi	r31, 0xC8	; 200
     2ae:	04 00       	.word	0x0004	; ????
     2b0:	41 7f       	andi	r20, 0xF1	; 241
     2b2:	7f 08       	sbc	r7, r15
     2b4:	04 7c       	andi	r16, 0xC4	; 196
     2b6:	78 00       	.word	0x0078	; ????
     2b8:	00 44       	sbci	r16, 0x40	; 64
     2ba:	7d 7d       	andi	r23, 0xDD	; 221
     2bc:	40 00       	.word	0x0040	; ????
     2be:	00 00       	nop
     2c0:	40 c4       	rjmp	.+2176   	; 0xb42 <__addsf3x+0x90>
     2c2:	84 fd       	sbrc	r24, 4
     2c4:	7d 00       	.word	0x007d	; ????
     2c6:	00 00       	nop
     2c8:	41 7f       	andi	r20, 0xF1	; 241
     2ca:	7f 10       	cpse	r7, r15
     2cc:	38 6c       	ori	r19, 0xC8	; 200
     2ce:	44 00       	.word	0x0044	; ????
     2d0:	00 41       	sbci	r16, 0x10	; 16
     2d2:	7f 7f       	andi	r23, 0xFF	; 255
     2d4:	40 00       	.word	0x0040	; ????
     2d6:	00 00       	nop
     2d8:	7c 7c       	andi	r23, 0xCC	; 204
     2da:	0c 18       	sub	r0, r12
     2dc:	0c 7c       	andi	r16, 0xCC	; 204
     2de:	78 00       	.word	0x0078	; ????
     2e0:	7c 7c       	andi	r23, 0xCC	; 204
     2e2:	04 04       	cpc	r0, r4
     2e4:	7c 78       	andi	r23, 0x8C	; 140
     2e6:	00 00       	nop
     2e8:	38 7c       	andi	r19, 0xC8	; 200
     2ea:	44 44       	sbci	r20, 0x44	; 68
     2ec:	7c 38       	cpi	r23, 0x8C	; 140
     2ee:	00 00       	nop
     2f0:	84 fc       	sbrc	r8, 4
     2f2:	f8 a4       	ldd	r15, Y+40	; 0x28
     2f4:	24 3c       	cpi	r18, 0xC4	; 196
     2f6:	18 00       	.word	0x0018	; ????
     2f8:	18 3c       	cpi	r17, 0xC8	; 200
     2fa:	24 a4       	ldd	r2, Z+44	; 0x2c
     2fc:	f8 fc       	.word	0xfcf8	; ????
     2fe:	84 00       	.word	0x0084	; ????
     300:	44 7c       	andi	r20, 0xC4	; 196
     302:	78 44       	sbci	r23, 0x48	; 72
     304:	1c 18       	sub	r1, r12
     306:	00 00       	nop
     308:	48 5c       	subi	r20, 0xC8	; 200
     30a:	54 54       	subi	r21, 0x44	; 68
     30c:	74 24       	eor	r7, r4
     30e:	00 00       	nop
     310:	00 04       	cpc	r0, r0
     312:	3e 7f       	andi	r19, 0xFE	; 254
     314:	44 24       	eor	r4, r4
     316:	00 00       	nop
     318:	3c 7c       	andi	r19, 0xCC	; 204
     31a:	40 40       	sbci	r20, 0x00	; 0
     31c:	3c 7c       	andi	r19, 0xCC	; 204
     31e:	40 00       	.word	0x0040	; ????
     320:	1c 3c       	cpi	r17, 0xCC	; 204
     322:	60 60       	ori	r22, 0x00	; 0
     324:	3c 1c       	adc	r3, r12
     326:	00 00       	nop
     328:	3c 7c       	andi	r19, 0xCC	; 204
     32a:	60 30       	cpi	r22, 0x00	; 0
     32c:	60 7c       	andi	r22, 0xC0	; 192
     32e:	3c 00       	.word	0x003c	; ????
     330:	44 6c       	ori	r20, 0xC4	; 196
     332:	38 10       	cpse	r3, r8
     334:	38 6c       	ori	r19, 0xC8	; 200
     336:	44 00       	.word	0x0044	; ????
     338:	9c bc       	out	0x2c, r9	; 44
     33a:	a0 a0       	ldd	r10, Z+32	; 0x20
     33c:	fc 7c       	andi	r31, 0xCC	; 204
     33e:	00 00       	nop
     340:	4c 64       	ori	r20, 0x4C	; 76
     342:	74 5c       	subi	r23, 0xC4	; 196
     344:	4c 64       	ori	r20, 0x4C	; 76
     346:	00 00       	nop
     348:	08 08       	sbc	r0, r8
     34a:	3e 77       	andi	r19, 0x7E	; 126
     34c:	41 41       	sbci	r20, 0x11	; 17
     34e:	00 00       	nop
     350:	00 00       	nop
     352:	00 77       	andi	r16, 0x70	; 112
     354:	77 00       	.word	0x0077	; ????
     356:	00 00       	nop
     358:	41 41       	sbci	r20, 0x11	; 17
     35a:	77 3e       	cpi	r23, 0xE7	; 231
     35c:	08 08       	sbc	r0, r8
     35e:	00 00       	nop
     360:	02 03       	mulsu	r16, r18
     362:	01 03       	mulsu	r16, r17
     364:	02 03       	mulsu	r16, r18
     366:	01 00       	.word	0x0001	; ????

00000368 <__ctors_end>:
     368:	11 24       	eor	r1, r1
     36a:	1f be       	out	0x3f, r1	; 63
     36c:	cf ef       	ldi	r28, 0xFF	; 255
     36e:	d4 e0       	ldi	r29, 0x04	; 4
     370:	de bf       	out	0x3e, r29	; 62
     372:	cd bf       	out	0x3d, r28	; 61

00000374 <__do_copy_data>:
     374:	11 e0       	ldi	r17, 0x01	; 1
     376:	a0 e0       	ldi	r26, 0x00	; 0
     378:	b1 e0       	ldi	r27, 0x01	; 1
     37a:	ea ec       	ldi	r30, 0xCA	; 202
     37c:	f7 e1       	ldi	r31, 0x17	; 23
     37e:	02 c0       	rjmp	.+4      	; 0x384 <__do_copy_data+0x10>
     380:	05 90       	lpm	r0, Z+
     382:	0d 92       	st	X+, r0
     384:	a2 38       	cpi	r26, 0x82	; 130
     386:	b1 07       	cpc	r27, r17
     388:	d9 f7       	brne	.-10     	; 0x380 <__do_copy_data+0xc>

0000038a <__do_clear_bss>:
     38a:	21 e0       	ldi	r18, 0x01	; 1
     38c:	a2 e8       	ldi	r26, 0x82	; 130
     38e:	b1 e0       	ldi	r27, 0x01	; 1
     390:	01 c0       	rjmp	.+2      	; 0x394 <.do_clear_bss_start>

00000392 <.do_clear_bss_loop>:
     392:	1d 92       	st	X+, r1

00000394 <.do_clear_bss_start>:
     394:	a3 39       	cpi	r26, 0x93	; 147
     396:	b2 07       	cpc	r27, r18
     398:	e1 f7       	brne	.-8      	; 0x392 <.do_clear_bss_loop>
     39a:	0e 94 56 04 	call	0x8ac	; 0x8ac <main>
     39e:	0c 94 e3 0b 	jmp	0x17c6	; 0x17c6 <_exit>

000003a2 <__bad_interrupt>:
     3a2:	0c 94 00 00 	jmp	0	; 0x0 <__vectors>

000003a6 <ADC_init>:

extern volatile uint8_t ADC_ready;

int ADC_init(void) {
	// Interrupt on rising edge PE0
	EMCUCR |= (1<<ISC2);
     3a6:	86 b7       	in	r24, 0x36	; 54
     3a8:	81 60       	ori	r24, 0x01	; 1
     3aa:	86 bf       	out	0x36, r24	; 54

	// Enable interrupt on PE0
	GICR |= (1<<INT2);
     3ac:	8b b7       	in	r24, 0x3b	; 59
     3ae:	80 62       	ori	r24, 0x20	; 32
     3b0:	8b bf       	out	0x3b, r24	; 59
	
	// Button input
	clr_bit(DDRE, PE0);
     3b2:	30 98       	cbi	0x06, 0	; 6
	
	//Enable the external memory interface/4 bits address
	MCUCR |= (1<<SRE);
     3b4:	85 b7       	in	r24, 0x35	; 53
     3b6:	80 68       	ori	r24, 0x80	; 128
     3b8:	85 bf       	out	0x35, r24	; 53
	SFIOR |= (1<<XMM2);
     3ba:	80 b7       	in	r24, 0x30	; 48
     3bc:	80 62       	ori	r24, 0x20	; 32
     3be:	80 bf       	out	0x30, r24	; 48
	
	//Set the interrupt pin to input
	DDRE &= ~(1<<PINE0);
     3c0:	30 98       	cbi	0x06, 0	; 6

	//set button pins to input
	clr_bit(DDRB, DDB0);
     3c2:	b8 98       	cbi	0x17, 0	; 23
	clr_bit(DDRB, DDB1);
     3c4:	b9 98       	cbi	0x17, 1	; 23
	
	//set joystick button to input
	clr_bit(DDRB, DDB2);
     3c6:	ba 98       	cbi	0x17, 2	; 23
	return 0;
}
     3c8:	80 e0       	ldi	r24, 0x00	; 0
     3ca:	90 e0       	ldi	r25, 0x00	; 0
     3cc:	08 95       	ret

000003ce <ADC_read>:
uint8_t ADC_read(uint8_t channel) {
	//Address for the ADC
	volatile char *adc = (char *) 0x1400;
	
	//Choose channel in ADC
	*adc = 0x04 | channel;
     3ce:	84 60       	ori	r24, 0x04	; 4
     3d0:	80 93 00 14 	sts	0x1400, r24
	while(!ADC_ready);
     3d4:	80 91 84 01 	lds	r24, 0x0184
     3d8:	88 23       	and	r24, r24
     3da:	e1 f3       	breq	.-8      	; 0x3d4 <ADC_read+0x6>
		
	return *adc;
     3dc:	80 91 00 14 	lds	r24, 0x1400
}
     3e0:	08 95       	ret

000003e2 <UART_transmit>:

int UART_transmit(unsigned char data, FILE *stream){
	
	//Wait for empty transmit buffer
	
	while( !( UCSR0A & (1<<UDRE0)) );
     3e2:	5d 9b       	sbis	0x0b, 5	; 11
     3e4:	fe cf       	rjmp	.-4      	; 0x3e2 <UART_transmit>
 
	//Put data into buffer, sends the data
 
	UDR0 = data;
     3e6:	8c b9       	out	0x0c, r24	; 12
	return 0; 
}
     3e8:	80 e0       	ldi	r24, 0x00	; 0
     3ea:	90 e0       	ldi	r25, 0x00	; 0
     3ec:	08 95       	ret

000003ee <UART_receive>:

unsigned char UART_receive(){

	//Wait for data to be received

	while( !(UCSR0A & (1<<RXC0)) );
     3ee:	5f 9b       	sbis	0x0b, 7	; 11
     3f0:	fe cf       	rjmp	.-4      	; 0x3ee <UART_receive>
 
	//Get and return received data from buffer
 
	return UDR0;
     3f2:	8c b1       	in	r24, 0x0c	; 12
}
     3f4:	08 95       	ret

000003f6 <UART_init>:

int UART_init(unsigned int ubrr ){
/* 
Set baud rate
 */
	UBRR0L = ubrr;
     3f6:	89 b9       	out	0x09, r24	; 9

/* 
Enable receiver and transmitter
 */
	UCSR0B =(1<<RXEN0)|(1<<TXEN0);
     3f8:	88 e1       	ldi	r24, 0x18	; 24
     3fa:	8a b9       	out	0x0a, r24	; 10
	
	uart = fdevopen(&UART_transmit, &UART_receive);
     3fc:	67 ef       	ldi	r22, 0xF7	; 247
     3fe:	71 e0       	ldi	r23, 0x01	; 1
     400:	81 ef       	ldi	r24, 0xF1	; 241
     402:	91 e0       	ldi	r25, 0x01	; 1
     404:	0e 94 85 08 	call	0x110a	; 0x110a <fdevopen>
     408:	90 93 86 01 	sts	0x0186, r25
     40c:	80 93 85 01 	sts	0x0185, r24
	
	return 0; 
}
     410:	80 e0       	ldi	r24, 0x00	; 0
     412:	90 e0       	ldi	r25, 0x00	; 0
     414:	08 95       	ret

00000416 <joystick_read>:
#include <avr/io.h>
#include <avr/interrupt.h>
#include "bit_functions.h"


int joystick_read(int channel){
     416:	cf 92       	push	r12
     418:	df 92       	push	r13
     41a:	ef 92       	push	r14
     41c:	ff 92       	push	r15
	double pos = ADC_read(channel);
     41e:	0e 94 e7 01 	call	0x3ce	; 0x3ce <ADC_read>
     422:	68 2f       	mov	r22, r24
     424:	70 e0       	ldi	r23, 0x00	; 0
     426:	80 e0       	ldi	r24, 0x00	; 0
     428:	90 e0       	ldi	r25, 0x00	; 0
     42a:	0e 94 49 06 	call	0xc92	; 0xc92 <__floatunsisf>
     42e:	6b 01       	movw	r12, r22
     430:	7c 01       	movw	r14, r24

	if (pos < 132){
		double a = (100-(pos/(132)*100));
	}

	if (pos < 132){
     432:	20 e0       	ldi	r18, 0x00	; 0
     434:	30 e0       	ldi	r19, 0x00	; 0
     436:	44 e0       	ldi	r20, 0x04	; 4
     438:	53 e4       	ldi	r21, 0x43	; 67
     43a:	0e 94 ac 05 	call	0xb58	; 0xb58 <__cmpsf2>
     43e:	88 23       	and	r24, r24
     440:	ec f4       	brge	.+58     	; 0x47c <joystick_read+0x66>
		double a = (100-(pos/(132)*100));
     442:	20 e0       	ldi	r18, 0x00	; 0
     444:	30 e0       	ldi	r19, 0x00	; 0
     446:	44 e0       	ldi	r20, 0x04	; 4
     448:	53 e4       	ldi	r21, 0x43	; 67
     44a:	c7 01       	movw	r24, r14
     44c:	b6 01       	movw	r22, r12
     44e:	0e 94 b0 05 	call	0xb60	; 0xb60 <__divsf3>
     452:	20 e0       	ldi	r18, 0x00	; 0
     454:	30 e0       	ldi	r19, 0x00	; 0
     456:	48 ec       	ldi	r20, 0xC8	; 200
     458:	52 e4       	ldi	r21, 0x42	; 66
     45a:	0e 94 fb 06 	call	0xdf6	; 0xdf6 <__mulsf3>
     45e:	9b 01       	movw	r18, r22
     460:	ac 01       	movw	r20, r24
     462:	60 e0       	ldi	r22, 0x00	; 0
     464:	70 e0       	ldi	r23, 0x00	; 0
     466:	88 ec       	ldi	r24, 0xC8	; 200
     468:	92 e4       	ldi	r25, 0x42	; 66
     46a:	0e 94 47 05 	call	0xa8e	; 0xa8e <__subsf3>
	

		return -(int)a;
     46e:	0e 94 18 06 	call	0xc30	; 0xc30 <__fixsfsi>
     472:	88 27       	eor	r24, r24
     474:	99 27       	eor	r25, r25
     476:	86 1b       	sub	r24, r22
     478:	97 0b       	sbc	r25, r23
     47a:	17 c0       	rjmp	.+46     	; 0x4aa <joystick_read+0x94>
	}
	else{
		double a = (pos-132)/(255-132)*100;
     47c:	20 e0       	ldi	r18, 0x00	; 0
     47e:	30 e0       	ldi	r19, 0x00	; 0
     480:	44 e0       	ldi	r20, 0x04	; 4
     482:	53 e4       	ldi	r21, 0x43	; 67
     484:	c7 01       	movw	r24, r14
     486:	b6 01       	movw	r22, r12
     488:	0e 94 47 05 	call	0xa8e	; 0xa8e <__subsf3>
     48c:	20 e0       	ldi	r18, 0x00	; 0
     48e:	30 e0       	ldi	r19, 0x00	; 0
     490:	46 ef       	ldi	r20, 0xF6	; 246
     492:	52 e4       	ldi	r21, 0x42	; 66
     494:	0e 94 b0 05 	call	0xb60	; 0xb60 <__divsf3>
     498:	20 e0       	ldi	r18, 0x00	; 0
     49a:	30 e0       	ldi	r19, 0x00	; 0
     49c:	48 ec       	ldi	r20, 0xC8	; 200
     49e:	52 e4       	ldi	r21, 0x42	; 66
     4a0:	0e 94 fb 06 	call	0xdf6	; 0xdf6 <__mulsf3>

		return (int)a;
     4a4:	0e 94 18 06 	call	0xc30	; 0xc30 <__fixsfsi>
     4a8:	cb 01       	movw	r24, r22
	}
}
     4aa:	ff 90       	pop	r15
     4ac:	ef 90       	pop	r14
     4ae:	df 90       	pop	r13
     4b0:	cf 90       	pop	r12
     4b2:	08 95       	ret

000004b4 <find_joystick_dir>:
		return read_bit(PINB, PINB0);
	}
	return -1;
}

joystick_dir find_joystick_dir(void){
     4b4:	cf 93       	push	r28
     4b6:	df 93       	push	r29
	int joystick_x = joystick_read(4);
     4b8:	84 e0       	ldi	r24, 0x04	; 4
     4ba:	90 e0       	ldi	r25, 0x00	; 0
     4bc:	0e 94 0b 02 	call	0x416	; 0x416 <joystick_read>
     4c0:	ec 01       	movw	r28, r24
	int joystick_y = joystick_read(5);
     4c2:	85 e0       	ldi	r24, 0x05	; 5
     4c4:	90 e0       	ldi	r25, 0x00	; 0
     4c6:	0e 94 0b 02 	call	0x416	; 0x416 <joystick_read>
	//printf("x = %d\n", joystick_x); 
	//printf("y = %d\n", joystick_y); 
	
	if (joystick_y > 80){
     4ca:	81 35       	cpi	r24, 0x51	; 81
     4cc:	91 05       	cpc	r25, r1
     4ce:	5c f4       	brge	.+22     	; 0x4e6 <find_joystick_dir+0x32>
		return UP;
	}
	else if (joystick_y < -80){
     4d0:	80 3b       	cpi	r24, 0xB0	; 176
     4d2:	9f 4f       	sbci	r25, 0xFF	; 255
     4d4:	54 f0       	brlt	.+20     	; 0x4ea <find_joystick_dir+0x36>
		return DOWN;
	}
	else if(joystick_x > 80){
     4d6:	c1 35       	cpi	r28, 0x51	; 81
     4d8:	d1 05       	cpc	r29, r1
     4da:	4c f4       	brge	.+18     	; 0x4ee <find_joystick_dir+0x3a>
		return RIGHT;
	}
	else if(joystick_x < -80){
     4dc:	c0 3b       	cpi	r28, 0xB0	; 176
     4de:	df 4f       	sbci	r29, 0xFF	; 255
     4e0:	44 f4       	brge	.+16     	; 0x4f2 <find_joystick_dir+0x3e>
		return LEFT;
     4e2:	83 e0       	ldi	r24, 0x03	; 3
     4e4:	07 c0       	rjmp	.+14     	; 0x4f4 <find_joystick_dir+0x40>
	int joystick_y = joystick_read(5);
	//printf("x = %d\n", joystick_x); 
	//printf("y = %d\n", joystick_y); 
	
	if (joystick_y > 80){
		return UP;
     4e6:	80 e0       	ldi	r24, 0x00	; 0
     4e8:	05 c0       	rjmp	.+10     	; 0x4f4 <find_joystick_dir+0x40>
	}
	else if (joystick_y < -80){
		return DOWN;
     4ea:	81 e0       	ldi	r24, 0x01	; 1
     4ec:	03 c0       	rjmp	.+6      	; 0x4f4 <find_joystick_dir+0x40>
	}
	else if(joystick_x > 80){
		return RIGHT;
     4ee:	82 e0       	ldi	r24, 0x02	; 2
     4f0:	01 c0       	rjmp	.+2      	; 0x4f4 <find_joystick_dir+0x40>
	}
	else if(joystick_x < -80){
		return LEFT;
	}
	return CENTER;
     4f2:	84 e0       	ldi	r24, 0x04	; 4
	
}
     4f4:	df 91       	pop	r29
     4f6:	cf 91       	pop	r28
     4f8:	08 95       	ret

000004fa <create_menu>:
		page_count++;
	}
	print_selection_sign(page);
}

menu* create_menu(char* new_name){
     4fa:	cf 93       	push	r28
     4fc:	df 93       	push	r29
     4fe:	ec 01       	movw	r28, r24
	menu* new_menu = (menu*)malloc(sizeof(menu));
     500:	8c e0       	ldi	r24, 0x0C	; 12
     502:	90 e0       	ldi	r25, 0x00	; 0
     504:	0e 94 5e 07 	call	0xebc	; 0xebc <malloc>
     508:	fc 01       	movw	r30, r24
	
	if(new_menu == NULL){
     50a:	00 97       	sbiw	r24, 0x00	; 0
     50c:	51 f4       	brne	.+20     	; 0x522 <__stack+0x23>
		printf("Out of memory! Failed to create menu");
     50e:	8d e0       	ldi	r24, 0x0D	; 13
     510:	91 e0       	ldi	r25, 0x01	; 1
     512:	9f 93       	push	r25
     514:	8f 93       	push	r24
     516:	0e 94 d0 08 	call	0x11a0	; 0x11a0 <printf>
		exit(1);
     51a:	81 e0       	ldi	r24, 0x01	; 1
     51c:	90 e0       	ldi	r25, 0x00	; 0
     51e:	0e 94 e3 0b 	call	0x17c6	; 0x17c6 <_exit>
	}
	
	new_menu->name = new_name;
     522:	d1 83       	std	Z+1, r29	; 0x01
     524:	c0 83       	st	Z, r28
	new_menu->next_sibling = NULL;
     526:	13 82       	std	Z+3, r1	; 0x03
     528:	12 82       	std	Z+2, r1	; 0x02
	new_menu->prev_sibling = NULL;
     52a:	15 82       	std	Z+5, r1	; 0x05
     52c:	14 82       	std	Z+4, r1	; 0x04
	new_menu->parent = NULL;
     52e:	11 86       	std	Z+9, r1	; 0x09
     530:	10 86       	std	Z+8, r1	; 0x08
	new_menu->child = NULL;
     532:	17 82       	std	Z+7, r1	; 0x07
     534:	16 82       	std	Z+6, r1	; 0x06
	new_menu->number_of_childs = 0;
     536:	13 86       	std	Z+11, r1	; 0x0b
     538:	12 86       	std	Z+10, r1	; 0x0a
	
	return new_menu;
}
     53a:	df 91       	pop	r29
     53c:	cf 91       	pop	r28
     53e:	08 95       	ret

00000540 <create_submenu>:

menu* create_submenu(menu* parent_menu, menu* child_menu){ //tar inn liste av submenu struct
	if (parent_menu->child == NULL){
     540:	dc 01       	movw	r26, r24
     542:	16 96       	adiw	r26, 0x06	; 6
     544:	ed 91       	ld	r30, X+
     546:	fc 91       	ld	r31, X
     548:	17 97       	sbiw	r26, 0x07	; 7
     54a:	30 97       	sbiw	r30, 0x00	; 0
     54c:	29 f4       	brne	.+10     	; 0x558 <create_submenu+0x18>
		//make new child
		parent_menu->child = child_menu;
     54e:	17 96       	adiw	r26, 0x07	; 7
     550:	7c 93       	st	X, r23
     552:	6e 93       	st	-X, r22
     554:	16 97       	sbiw	r26, 0x06	; 6
     556:	0e c0       	rjmp	.+28     	; 0x574 <create_submenu+0x34>
	}
	
	else{
		//make new sibling
		menu* current = parent_menu->child;
		while (current->next_sibling != NULL){
     558:	22 81       	ldd	r18, Z+2	; 0x02
     55a:	33 81       	ldd	r19, Z+3	; 0x03
     55c:	21 15       	cp	r18, r1
     55e:	31 05       	cpc	r19, r1
     560:	11 f0       	breq	.+4      	; 0x566 <create_submenu+0x26>
			current = current->next_sibling;
     562:	f9 01       	movw	r30, r18
     564:	f9 cf       	rjmp	.-14     	; 0x558 <create_submenu+0x18>
		}
		
		current->next_sibling =child_menu;
     566:	73 83       	std	Z+3, r23	; 0x03
     568:	62 83       	std	Z+2, r22	; 0x02
		child_menu->prev_sibling =current;
     56a:	db 01       	movw	r26, r22
     56c:	15 96       	adiw	r26, 0x05	; 5
     56e:	fc 93       	st	X, r31
     570:	ee 93       	st	-X, r30
     572:	14 97       	sbiw	r26, 0x04	; 4
		
	}
	parent_menu->number_of_childs++;
     574:	fc 01       	movw	r30, r24
     576:	22 85       	ldd	r18, Z+10	; 0x0a
     578:	33 85       	ldd	r19, Z+11	; 0x0b
     57a:	2f 5f       	subi	r18, 0xFF	; 255
     57c:	3f 4f       	sbci	r19, 0xFF	; 255
     57e:	33 87       	std	Z+11, r19	; 0x0b
     580:	22 87       	std	Z+10, r18	; 0x0a
	child_menu->parent = parent_menu;
     582:	db 01       	movw	r26, r22
     584:	19 96       	adiw	r26, 0x09	; 9
     586:	9c 93       	st	X, r25
     588:	8e 93       	st	-X, r24
     58a:	18 97       	sbiw	r26, 0x08	; 8
	
	return parent_menu;
}
     58c:	08 95       	ret

0000058e <update_display_menu>:


menu* update_display_menu(menu* current_menu, int page, joystick_dir dir){
     58e:	dc 01       	movw	r26, r24
	menu* current = current_menu->child;
     590:	16 96       	adiw	r26, 0x06	; 6
     592:	ed 91       	ld	r30, X+
     594:	fc 91       	ld	r31, X
     596:	17 97       	sbiw	r26, 0x07	; 7
	if(dir == RIGHT){
     598:	42 30       	cpi	r20, 0x02	; 2
     59a:	71 f4       	brne	.+28     	; 0x5b8 <update_display_menu+0x2a>
		for(int i = 1; i < page; i++){
     59c:	62 30       	cpi	r22, 0x02	; 2
     59e:	71 05       	cpc	r23, r1
     5a0:	7c f0       	brlt	.+30     	; 0x5c0 <update_display_menu+0x32>
     5a2:	21 e0       	ldi	r18, 0x01	; 1
     5a4:	30 e0       	ldi	r19, 0x00	; 0
				current = current->next_sibling;
     5a6:	02 80       	ldd	r0, Z+2	; 0x02
     5a8:	f3 81       	ldd	r31, Z+3	; 0x03
     5aa:	e0 2d       	mov	r30, r0


menu* update_display_menu(menu* current_menu, int page, joystick_dir dir){
	menu* current = current_menu->child;
	if(dir == RIGHT){
		for(int i = 1; i < page; i++){
     5ac:	2f 5f       	subi	r18, 0xFF	; 255
     5ae:	3f 4f       	sbci	r19, 0xFF	; 255
     5b0:	26 17       	cp	r18, r22
     5b2:	37 07       	cpc	r19, r23
     5b4:	c1 f7       	brne	.-16     	; 0x5a6 <update_display_menu+0x18>
     5b6:	04 c0       	rjmp	.+8      	; 0x5c0 <update_display_menu+0x32>
				current = current->next_sibling;
		}
	}else{
		current = current_menu->parent;
     5b8:	18 96       	adiw	r26, 0x08	; 8
     5ba:	ed 91       	ld	r30, X+
     5bc:	fc 91       	ld	r31, X
     5be:	19 97       	sbiw	r26, 0x09	; 9
	}
	
	
	
	if(current != NULL){
     5c0:	30 97       	sbiw	r30, 0x00	; 0
     5c2:	19 f0       	breq	.+6      	; 0x5ca <update_display_menu+0x3c>
		return current;
     5c4:	8e 2f       	mov	r24, r30
     5c6:	9f 2f       	mov	r25, r31
     5c8:	08 95       	ret
	}
	return current_menu;
     5ca:	8a 2f       	mov	r24, r26
     5cc:	9b 2f       	mov	r25, r27
}
     5ce:	08 95       	ret

000005d0 <print_selection_sign>:


void print_selection_sign(int page){
     5d0:	cf 93       	push	r28
     5d2:	df 93       	push	r29
     5d4:	ec 01       	movw	r28, r24
	oled_goto_column(0);
     5d6:	80 e0       	ldi	r24, 0x00	; 0
     5d8:	90 e0       	ldi	r25, 0x00	; 0
     5da:	0e 94 ba 03 	call	0x774	; 0x774 <oled_goto_column>
	oled_goto_page(page);
     5de:	ce 01       	movw	r24, r28
     5e0:	0e 94 b0 03 	call	0x760	; 0x760 <oled_goto_page>
	oled_print_string("*");
     5e4:	82 e3       	ldi	r24, 0x32	; 50
     5e6:	91 e0       	ldi	r25, 0x01	; 1
     5e8:	0e 94 1c 04 	call	0x838	; 0x838 <oled_print_string>
}
     5ec:	df 91       	pop	r29
     5ee:	cf 91       	pop	r28
     5f0:	08 95       	ret

000005f2 <print_menu_oled>:
#include "OLED_driver.h"
#include "menu_framework.h"

#include <stddef.h>

void print_menu_oled(menu* menu_node, int page){
     5f2:	ef 92       	push	r14
     5f4:	ff 92       	push	r15
     5f6:	0f 93       	push	r16
     5f8:	1f 93       	push	r17
     5fa:	cf 93       	push	r28
     5fc:	df 93       	push	r29
     5fe:	ec 01       	movw	r28, r24
     600:	7b 01       	movw	r14, r22
	oled_reset();
     602:	0e 94 e0 03 	call	0x7c0	; 0x7c0 <oled_reset>
	oled_home();
     606:	0e 94 02 04 	call	0x804	; 0x804 <oled_home>
	oled_print_string(menu_node->name);
     60a:	88 81       	ld	r24, Y
     60c:	99 81       	ldd	r25, Y+1	; 0x01
     60e:	0e 94 1c 04 	call	0x838	; 0x838 <oled_print_string>
	
	menu* current = menu_node->child;
     612:	0e 80       	ldd	r0, Y+6	; 0x06
     614:	df 81       	ldd	r29, Y+7	; 0x07
     616:	c0 2d       	mov	r28, r0
	int page_count = 1; 
	while(current != NULL){
     618:	20 97       	sbiw	r28, 0x00	; 0
     61a:	a1 f0       	breq	.+40     	; 0x644 <print_menu_oled+0x52>
	oled_reset();
	oled_home();
	oled_print_string(menu_node->name);
	
	menu* current = menu_node->child;
	int page_count = 1; 
     61c:	01 e0       	ldi	r16, 0x01	; 1
     61e:	10 e0       	ldi	r17, 0x00	; 0
	while(current != NULL){
		oled_goto_page(page_count);
     620:	c8 01       	movw	r24, r16
     622:	0e 94 b0 03 	call	0x760	; 0x760 <oled_goto_page>
		oled_goto_column(15);
     626:	8f e0       	ldi	r24, 0x0F	; 15
     628:	90 e0       	ldi	r25, 0x00	; 0
     62a:	0e 94 ba 03 	call	0x774	; 0x774 <oled_goto_column>
		oled_print_string(current->name);
     62e:	88 81       	ld	r24, Y
     630:	99 81       	ldd	r25, Y+1	; 0x01
     632:	0e 94 1c 04 	call	0x838	; 0x838 <oled_print_string>
		current = current->next_sibling;
     636:	0a 80       	ldd	r0, Y+2	; 0x02
     638:	db 81       	ldd	r29, Y+3	; 0x03
     63a:	c0 2d       	mov	r28, r0
		page_count++;
     63c:	0f 5f       	subi	r16, 0xFF	; 255
     63e:	1f 4f       	sbci	r17, 0xFF	; 255
	oled_home();
	oled_print_string(menu_node->name);
	
	menu* current = menu_node->child;
	int page_count = 1; 
	while(current != NULL){
     640:	20 97       	sbiw	r28, 0x00	; 0
     642:	71 f7       	brne	.-36     	; 0x620 <print_menu_oled+0x2e>
		oled_goto_column(15);
		oled_print_string(current->name);
		current = current->next_sibling;
		page_count++;
	}
	print_selection_sign(page);
     644:	c7 01       	movw	r24, r14
     646:	0e 94 e8 02 	call	0x5d0	; 0x5d0 <print_selection_sign>
}
     64a:	df 91       	pop	r29
     64c:	cf 91       	pop	r28
     64e:	1f 91       	pop	r17
     650:	0f 91       	pop	r16
     652:	ff 90       	pop	r15
     654:	ef 90       	pop	r14
     656:	08 95       	ret

00000658 <oled_init>:



void oled_init(){
	//  display  off
	*OLED_c = 0xae;
     658:	e0 91 08 01 	lds	r30, 0x0108
     65c:	f0 91 09 01 	lds	r31, 0x0109
     660:	8e ea       	ldi	r24, 0xAE	; 174
     662:	80 83       	st	Z, r24

	//segment  remap
	*OLED_c = 0xa1;	
     664:	e0 91 08 01 	lds	r30, 0x0108
     668:	f0 91 09 01 	lds	r31, 0x0109
     66c:	81 ea       	ldi	r24, 0xA1	; 161
     66e:	80 83       	st	Z, r24

	//common  pads  hardware:  alternative		
	*OLED_c = 0xda;			
     670:	e0 91 08 01 	lds	r30, 0x0108
     674:	f0 91 09 01 	lds	r31, 0x0109
     678:	8a ed       	ldi	r24, 0xDA	; 218
     67a:	80 83       	st	Z, r24
	*OLED_c = 0x12;
     67c:	e0 91 08 01 	lds	r30, 0x0108
     680:	f0 91 09 01 	lds	r31, 0x0109
     684:	82 e1       	ldi	r24, 0x12	; 18
     686:	80 83       	st	Z, r24

	//common output scan direction:com63~com0
	*OLED_c = 0xc8;
     688:	e0 91 08 01 	lds	r30, 0x0108
     68c:	f0 91 09 01 	lds	r31, 0x0109
     690:	88 ec       	ldi	r24, 0xC8	; 200
     692:	80 83       	st	Z, r24

	//multiplex  ration  mode:63
	*OLED_c = 0xa8;
     694:	e0 91 08 01 	lds	r30, 0x0108
     698:	f0 91 09 01 	lds	r31, 0x0109
     69c:	88 ea       	ldi	r24, 0xA8	; 168
     69e:	80 83       	st	Z, r24
	*OLED_c = 0x3f;
     6a0:	e0 91 08 01 	lds	r30, 0x0108
     6a4:	f0 91 09 01 	lds	r31, 0x0109
     6a8:	8f e3       	ldi	r24, 0x3F	; 63
     6aa:	80 83       	st	Z, r24

	//display divide ratio/osc. freq. mode
	*OLED_c = 0xd5;
     6ac:	e0 91 08 01 	lds	r30, 0x0108
     6b0:	f0 91 09 01 	lds	r31, 0x0109
     6b4:	85 ed       	ldi	r24, 0xD5	; 213
     6b6:	80 83       	st	Z, r24
	*OLED_c = 0x80;
     6b8:	e0 91 08 01 	lds	r30, 0x0108
     6bc:	f0 91 09 01 	lds	r31, 0x0109
     6c0:	80 e8       	ldi	r24, 0x80	; 128
     6c2:	80 83       	st	Z, r24

	//contrast  control
	*OLED_c = 0x81;
     6c4:	e0 91 08 01 	lds	r30, 0x0108
     6c8:	f0 91 09 01 	lds	r31, 0x0109
     6cc:	81 e8       	ldi	r24, 0x81	; 129
     6ce:	80 83       	st	Z, r24
	*OLED_c = 0x50;
     6d0:	e0 91 08 01 	lds	r30, 0x0108
     6d4:	f0 91 09 01 	lds	r31, 0x0109
     6d8:	80 e5       	ldi	r24, 0x50	; 80
     6da:	80 83       	st	Z, r24

	//set  pre-charge  period
	*OLED_c = 0xd9;
     6dc:	e0 91 08 01 	lds	r30, 0x0108
     6e0:	f0 91 09 01 	lds	r31, 0x0109
     6e4:	89 ed       	ldi	r24, 0xD9	; 217
     6e6:	80 83       	st	Z, r24
	*OLED_c = 0x21;
     6e8:	e0 91 08 01 	lds	r30, 0x0108
     6ec:	f0 91 09 01 	lds	r31, 0x0109
     6f0:	81 e2       	ldi	r24, 0x21	; 33
     6f2:	80 83       	st	Z, r24

	 //Set  Memory  Addressing  Mode
	*OLED_c = 0x20;
     6f4:	e0 91 08 01 	lds	r30, 0x0108
     6f8:	f0 91 09 01 	lds	r31, 0x0109
     6fc:	80 e2       	ldi	r24, 0x20	; 32
     6fe:	80 83       	st	Z, r24
	*OLED_c = 0x02;
     700:	e0 91 08 01 	lds	r30, 0x0108
     704:	f0 91 09 01 	lds	r31, 0x0109
     708:	82 e0       	ldi	r24, 0x02	; 2
     70a:	80 83       	st	Z, r24

	//VCOM  deselect  level  mode
	*OLED_c = 0xdb;
     70c:	e0 91 08 01 	lds	r30, 0x0108
     710:	f0 91 09 01 	lds	r31, 0x0109
     714:	8b ed       	ldi	r24, 0xDB	; 219
     716:	80 83       	st	Z, r24
	*OLED_c = 0x30;
     718:	e0 91 08 01 	lds	r30, 0x0108
     71c:	f0 91 09 01 	lds	r31, 0x0109
     720:	80 e3       	ldi	r24, 0x30	; 48
     722:	80 83       	st	Z, r24

	//master  configuration
	*OLED_c = 0xad;
     724:	e0 91 08 01 	lds	r30, 0x0108
     728:	f0 91 09 01 	lds	r31, 0x0109
     72c:	8d ea       	ldi	r24, 0xAD	; 173
     72e:	80 83       	st	Z, r24

	//out follows RAM content 
	*OLED_c = 0x00;
     730:	e0 91 08 01 	lds	r30, 0x0108
     734:	f0 91 09 01 	lds	r31, 0x0109
     738:	10 82       	st	Z, r1
	
	//set  normal  display
	*OLED_c = 0xa4;
     73a:	e0 91 08 01 	lds	r30, 0x0108
     73e:	f0 91 09 01 	lds	r31, 0x0109
     742:	84 ea       	ldi	r24, 0xA4	; 164
     744:	80 83       	st	Z, r24
	*OLED_c = 0xa6;
     746:	e0 91 08 01 	lds	r30, 0x0108
     74a:	f0 91 09 01 	lds	r31, 0x0109
     74e:	86 ea       	ldi	r24, 0xA6	; 166
     750:	80 83       	st	Z, r24
	

	//  display  on
	*OLED_c = 0xaf;
     752:	e0 91 08 01 	lds	r30, 0x0108
     756:	f0 91 09 01 	lds	r31, 0x0109
     75a:	8f ea       	ldi	r24, 0xAF	; 175
     75c:	80 83       	st	Z, r24
     75e:	08 95       	ret

00000760 <oled_goto_page>:
		}
	}
}

void oled_goto_page(int page){
	*OLED_c = (page | 0xb0);
     760:	e0 91 08 01 	lds	r30, 0x0108
     764:	f0 91 09 01 	lds	r31, 0x0109
     768:	98 2f       	mov	r25, r24
     76a:	90 6b       	ori	r25, 0xB0	; 176
     76c:	90 83       	st	Z, r25
	current_page = page;
     76e:	80 93 83 01 	sts	0x0183, r24
     772:	08 95       	ret

00000774 <oled_goto_column>:
}


void oled_goto_column(int column){
	*OLED_c = (column & 0x0f); //clearer de 4 første bitsene
     774:	e0 91 08 01 	lds	r30, 0x0108
     778:	f0 91 09 01 	lds	r31, 0x0109
     77c:	28 2f       	mov	r18, r24
     77e:	2f 70       	andi	r18, 0x0F	; 15
     780:	20 83       	st	Z, r18
	*OLED_c = ((column & 0xf0) >> 4) | (0x10);
     782:	e0 91 08 01 	lds	r30, 0x0108
     786:	f0 91 09 01 	lds	r31, 0x0109
     78a:	9c 01       	movw	r18, r24
     78c:	20 7f       	andi	r18, 0xF0	; 240
     78e:	33 27       	eor	r19, r19
     790:	35 95       	asr	r19
     792:	27 95       	ror	r18
     794:	35 95       	asr	r19
     796:	27 95       	ror	r18
     798:	35 95       	asr	r19
     79a:	27 95       	ror	r18
     79c:	35 95       	asr	r19
     79e:	27 95       	ror	r18
     7a0:	20 61       	ori	r18, 0x10	; 16
     7a2:	20 83       	st	Z, r18
	current_col = column;
     7a4:	80 93 82 01 	sts	0x0182, r24
     7a8:	08 95       	ret

000007aa <oled_pos>:

int oled_return_page(void){
	return current_page;
}

void oled_pos(int row,int column){
     7aa:	cf 93       	push	r28
     7ac:	df 93       	push	r29
     7ae:	eb 01       	movw	r28, r22
	oled_goto_page(row);
     7b0:	0e 94 b0 03 	call	0x760	; 0x760 <oled_goto_page>
	oled_goto_column(column);
     7b4:	ce 01       	movw	r24, r28
     7b6:	0e 94 ba 03 	call	0x774	; 0x774 <oled_goto_column>
}
     7ba:	df 91       	pop	r29
     7bc:	cf 91       	pop	r28
     7be:	08 95       	ret

000007c0 <oled_reset>:
	*OLED_c = 0xaf;

	
}

void oled_reset(){
     7c0:	0f 93       	push	r16
     7c2:	1f 93       	push	r17
     7c4:	cf 93       	push	r28
     7c6:	df 93       	push	r29
     7c8:	c0 e0       	ldi	r28, 0x00	; 0
     7ca:	d0 e0       	ldi	r29, 0x00	; 0
	
	for (uint8_t i = 0 ; i < 8; i++){
		oled_pos(i, 0);
     7cc:	00 e8       	ldi	r16, 0x80	; 128
     7ce:	10 e0       	ldi	r17, 0x00	; 0
     7d0:	60 e0       	ldi	r22, 0x00	; 0
     7d2:	70 e0       	ldi	r23, 0x00	; 0
     7d4:	ce 01       	movw	r24, r28
     7d6:	0e 94 d5 03 	call	0x7aa	; 0x7aa <oled_pos>
     7da:	20 2f       	mov	r18, r16
     7dc:	31 2f       	mov	r19, r17
		for (uint16_t i = 0 ; i < 128; i++){
			*OLED_d = 0x00;
     7de:	e0 91 06 01 	lds	r30, 0x0106
     7e2:	f0 91 07 01 	lds	r31, 0x0107
     7e6:	10 82       	st	Z, r1
     7e8:	21 50       	subi	r18, 0x01	; 1
     7ea:	31 09       	sbc	r19, r1

void oled_reset(){
	
	for (uint8_t i = 0 ; i < 8; i++){
		oled_pos(i, 0);
		for (uint16_t i = 0 ; i < 128; i++){
     7ec:	21 15       	cp	r18, r1
     7ee:	31 05       	cpc	r19, r1
     7f0:	b1 f7       	brne	.-20     	; 0x7de <oled_reset+0x1e>
     7f2:	21 96       	adiw	r28, 0x01	; 1
	
}

void oled_reset(){
	
	for (uint8_t i = 0 ; i < 8; i++){
     7f4:	c8 30       	cpi	r28, 0x08	; 8
     7f6:	d1 05       	cpc	r29, r1
     7f8:	59 f7       	brne	.-42     	; 0x7d0 <oled_reset+0x10>
		oled_pos(i, 0);
		for (uint16_t i = 0 ; i < 128; i++){
			*OLED_d = 0x00;
		}
	}
}
     7fa:	df 91       	pop	r29
     7fc:	cf 91       	pop	r28
     7fe:	1f 91       	pop	r17
     800:	0f 91       	pop	r16
     802:	08 95       	ret

00000804 <oled_home>:
}


void oled_home(){
	
	oled_pos(0,0);
     804:	60 e0       	ldi	r22, 0x00	; 0
     806:	70 e0       	ldi	r23, 0x00	; 0
     808:	80 e0       	ldi	r24, 0x00	; 0
     80a:	90 e0       	ldi	r25, 0x00	; 0
     80c:	0e 94 d5 03 	call	0x7aa	; 0x7aa <oled_pos>
     810:	08 95       	ret

00000812 <oled_print_char>:
	for (uint16_t i = 0 ; i < 128; i++){
		*OLED_d = 0xff;
	}
}

void oled_print_char(char c){
     812:	28 e0       	ldi	r18, 0x08	; 8
     814:	82 9f       	mul	r24, r18
     816:	c0 01       	movw	r24, r0
     818:	11 24       	eor	r1, r1
     81a:	fc 01       	movw	r30, r24
     81c:	e0 59       	subi	r30, 0x90	; 144
     81e:	f0 40       	sbci	r31, 0x00	; 0
	for (uint8_t i = 0 ; i < 8 ; i++){  //i < 8 fordi vi bruker font8
     820:	80 e0       	ldi	r24, 0x00	; 0
		*OLED_d = pgm_read_byte(&(font8[c - ASCII_OFFSET][i]));
     822:	a0 91 06 01 	lds	r26, 0x0106
     826:	b0 91 07 01 	lds	r27, 0x0107
     82a:	94 91       	lpm	r25, Z
     82c:	9c 93       	st	X, r25
		*OLED_d = 0xff;
	}
}

void oled_print_char(char c){
	for (uint8_t i = 0 ; i < 8 ; i++){  //i < 8 fordi vi bruker font8
     82e:	8f 5f       	subi	r24, 0xFF	; 255
     830:	31 96       	adiw	r30, 0x01	; 1
     832:	88 30       	cpi	r24, 0x08	; 8
     834:	b1 f7       	brne	.-20     	; 0x822 <oled_print_char+0x10>
		*OLED_d = pgm_read_byte(&(font8[c - ASCII_OFFSET][i]));
	}
}
     836:	08 95       	ret

00000838 <oled_print_string>:

void oled_print_string(char* string){
     838:	ff 92       	push	r15
     83a:	0f 93       	push	r16
     83c:	1f 93       	push	r17
     83e:	cf 93       	push	r28
     840:	df 93       	push	r29
     842:	ec 01       	movw	r28, r24
	
	for(uint8_t i = 0 ; i < strlen(string) ; i++){
     844:	f1 2c       	mov	r15, r1
     846:	19 c0       	rjmp	.+50     	; 0x87a <oled_print_string+0x42>
		if (i == 16){
     848:	80 e1       	ldi	r24, 0x10	; 16
     84a:	f8 12       	cpse	r15, r24
     84c:	0f c0       	rjmp	.+30     	; 0x86c <oled_print_string+0x34>
			//16 char per column, linjeskift						
			current_page = (current_page+1)%8;
     84e:	80 91 83 01 	lds	r24, 0x0183
     852:	90 e0       	ldi	r25, 0x00	; 0
     854:	01 96       	adiw	r24, 0x01	; 1
     856:	87 70       	andi	r24, 0x07	; 7
     858:	90 78       	andi	r25, 0x80	; 128
     85a:	80 93 83 01 	sts	0x0183, r24
			current_col = 0; 
     85e:	10 92 82 01 	sts	0x0182, r1
			oled_pos(current_page,current_col);
     862:	60 e0       	ldi	r22, 0x00	; 0
     864:	70 e0       	ldi	r23, 0x00	; 0
     866:	90 e0       	ldi	r25, 0x00	; 0
     868:	0e 94 d5 03 	call	0x7aa	; 0x7aa <oled_pos>
		}
		oled_print_char(string[i]);
     86c:	fe 01       	movw	r30, r28
     86e:	e0 0f       	add	r30, r16
     870:	f1 1f       	adc	r31, r17
     872:	80 81       	ld	r24, Z
     874:	0e 94 09 04 	call	0x812	; 0x812 <oled_print_char>
	}
}

void oled_print_string(char* string){
	
	for(uint8_t i = 0 ; i < strlen(string) ; i++){
     878:	f3 94       	inc	r15
     87a:	0f 2d       	mov	r16, r15
     87c:	10 e0       	ldi	r17, 0x00	; 0
     87e:	fe 01       	movw	r30, r28
     880:	01 90       	ld	r0, Z+
     882:	00 20       	and	r0, r0
     884:	e9 f7       	brne	.-6      	; 0x880 <oled_print_string+0x48>
     886:	31 97       	sbiw	r30, 0x01	; 1
     888:	ec 1b       	sub	r30, r28
     88a:	fd 0b       	sbc	r31, r29
     88c:	0e 17       	cp	r16, r30
     88e:	1f 07       	cpc	r17, r31
     890:	d8 f2       	brcs	.-74     	; 0x848 <oled_print_string+0x10>
			oled_pos(current_page,current_col);
		}
		oled_print_char(string[i]);
		
	}
}
     892:	df 91       	pop	r29
     894:	cf 91       	pop	r28
     896:	1f 91       	pop	r17
     898:	0f 91       	pop	r16
     89a:	ff 90       	pop	r15
     89c:	08 95       	ret

0000089e <register_init>:
#define REGISTER_INIT_H_
void register_init(void);

void register_init(void){
	//enabler externt minne i MCU
	set_bit(MCUCR, SRE);
     89e:	85 b7       	in	r24, 0x35	; 53
     8a0:	80 68       	ori	r24, 0x80	; 128
     8a2:	85 bf       	out	0x35, r24	; 53
	set_bit(SFIOR, XMM2);
     8a4:	80 b7       	in	r24, 0x30	; 48
     8a6:	80 62       	ori	r24, 0x20	; 32
     8a8:	80 bf       	out	0x30, r24	; 48
     8aa:	08 95       	ret

000008ac <main>:
volatile uint8_t* a = 0x1400;




int main(void) {
     8ac:	cf 93       	push	r28
     8ae:	df 93       	push	r29
     8b0:	1f 92       	push	r1
     8b2:	cd b7       	in	r28, 0x3d	; 61
     8b4:	de b7       	in	r29, 0x3e	; 62
	// Disable global interrupts
	cli();
     8b6:	f8 94       	cli
	UART_init(31);
     8b8:	8f e1       	ldi	r24, 0x1F	; 31
     8ba:	90 e0       	ldi	r25, 0x00	; 0
     8bc:	0e 94 fb 01 	call	0x3f6	; 0x3f6 <UART_init>
	register_init();
     8c0:	0e 94 4f 04 	call	0x89e	; 0x89e <register_init>
	oled_init();
     8c4:	0e 94 2c 03 	call	0x658	; 0x658 <oled_init>
	ADC_init();
     8c8:	0e 94 d3 01 	call	0x3a6	; 0x3a6 <ADC_init>
	// Enable global interrupts
	sei();
     8cc:	78 94       	sei
	
	
	//deklarere alle structs
	menu* main_menu = create_menu("Main Menu");
     8ce:	84 e3       	ldi	r24, 0x34	; 52
     8d0:	91 e0       	ldi	r25, 0x01	; 1
     8d2:	0e 94 7d 02 	call	0x4fa	; 0x4fa <create_menu>
     8d6:	8c 01       	movw	r16, r24
	display_menu = main_menu; 
     8d8:	90 93 88 01 	sts	0x0188, r25
     8dc:	80 93 87 01 	sts	0x0187, r24
	menu* julie = create_menu("Julie");
     8e0:	8e e3       	ldi	r24, 0x3E	; 62
     8e2:	91 e0       	ldi	r25, 0x01	; 1
     8e4:	0e 94 7d 02 	call	0x4fa	; 0x4fa <create_menu>
     8e8:	7c 01       	movw	r14, r24
	menu* andrea = create_menu("Andrea");
     8ea:	84 e4       	ldi	r24, 0x44	; 68
     8ec:	91 e0       	ldi	r25, 0x01	; 1
     8ee:	0e 94 7d 02 	call	0x4fa	; 0x4fa <create_menu>
     8f2:	4c 01       	movw	r8, r24
	menu* johanne = create_menu("Johanne");
     8f4:	8b e4       	ldi	r24, 0x4B	; 75
     8f6:	91 e0       	ldi	r25, 0x01	; 1
     8f8:	0e 94 7d 02 	call	0x4fa	; 0x4fa <create_menu>
     8fc:	5c 01       	movw	r10, r24
	menu* red = create_menu("Red");
     8fe:	83 e5       	ldi	r24, 0x53	; 83
     900:	91 e0       	ldi	r25, 0x01	; 1
     902:	0e 94 7d 02 	call	0x4fa	; 0x4fa <create_menu>
     906:	6c 01       	movw	r12, r24
	menu* blue = create_menu("Blue");
     908:	87 e5       	ldi	r24, 0x57	; 87
     90a:	91 e0       	ldi	r25, 0x01	; 1
     90c:	0e 94 7d 02 	call	0x4fa	; 0x4fa <create_menu>
	menu* green = create_menu("Green");
     910:	8c e5       	ldi	r24, 0x5C	; 92
     912:	91 e0       	ldi	r25, 0x01	; 1
     914:	0e 94 7d 02 	call	0x4fa	; 0x4fa <create_menu>
	menu* black = create_menu("Black");
     918:	82 e6       	ldi	r24, 0x62	; 98
     91a:	91 e0       	ldi	r25, 0x01	; 1
     91c:	0e 94 7d 02 	call	0x4fa	; 0x4fa <create_menu>
	menu* white = create_menu("White");
     920:	88 e6       	ldi	r24, 0x68	; 104
     922:	91 e0       	ldi	r25, 0x01	; 1
     924:	0e 94 7d 02 	call	0x4fa	; 0x4fa <create_menu>
	
	create_submenu(main_menu, julie);
     928:	b7 01       	movw	r22, r14
     92a:	c8 01       	movw	r24, r16
     92c:	0e 94 a0 02 	call	0x540	; 0x540 <create_submenu>
	create_submenu(main_menu, andrea);
     930:	b4 01       	movw	r22, r8
     932:	c8 01       	movw	r24, r16
     934:	0e 94 a0 02 	call	0x540	; 0x540 <create_submenu>
	create_submenu(main_menu, johanne);
     938:	b5 01       	movw	r22, r10
     93a:	c8 01       	movw	r24, r16
     93c:	0e 94 a0 02 	call	0x540	; 0x540 <create_submenu>
	create_submenu(julie, red);
     940:	b6 01       	movw	r22, r12
     942:	c7 01       	movw	r24, r14
     944:	0e 94 a0 02 	call	0x540	; 0x540 <create_submenu>




	oled_reset();
     948:	0e 94 e0 03 	call	0x7c0	; 0x7c0 <oled_reset>
	print_menu_oled(main_menu, current_page);
     94c:	60 91 0b 01 	lds	r22, 0x010B
     950:	70 91 0c 01 	lds	r23, 0x010C
     954:	c8 01       	movw	r24, r16
     956:	0e 94 f9 02 	call	0x5f2	; 0x5f2 <print_menu_oled>



	volatile uint8_t ADC_ready = 0;
     95a:	19 82       	std	Y+1, r1	; 0x01
					print_menu_oled(display_menu, current_page);
					printf("down\n");
					break;
				case RIGHT:
					display_menu = update_display_menu(display_menu, current_page, RIGHT);
					current_page = 1;
     95c:	ee 24       	eor	r14, r14
     95e:	e3 94       	inc	r14
     960:	f1 2c       	mov	r15, r1

	

	while(1){
	
		if(ADC_ready){
     962:	89 81       	ldd	r24, Y+1	; 0x01
     964:	81 11       	cpse	r24, r1
			ADC_ready = 0;
     966:	19 82       	std	Y+1, r1	; 0x01
		}
		
		joystick_dir joy_dir = find_joystick_dir();
     968:	0e 94 5a 02 	call	0x4b4	; 0x4b4 <find_joystick_dir>
     96c:	18 2f       	mov	r17, r24
		if(joy_dir != last_joy_dir){
     96e:	80 91 0a 01 	lds	r24, 0x010A
     972:	18 17       	cp	r17, r24
     974:	b1 f3       	breq	.-20     	; 0x962 <main+0xb6>
		
		

			switch(joy_dir){
     976:	11 30       	cpi	r17, 0x01	; 1
     978:	21 f1       	breq	.+72     	; 0x9c2 <main+0x116>
     97a:	38 f0       	brcs	.+14     	; 0x98a <main+0xde>
     97c:	12 30       	cpi	r17, 0x02	; 2
     97e:	09 f4       	brne	.+2      	; 0x982 <main+0xd6>
     980:	3f c0       	rjmp	.+126    	; 0xa00 <main+0x154>
     982:	13 30       	cpi	r17, 0x03	; 3
     984:	09 f4       	brne	.+2      	; 0x988 <main+0xdc>
     986:	57 c0       	rjmp	.+174    	; 0xa36 <main+0x18a>
     988:	70 c0       	rjmp	.+224    	; 0xa6a <main+0x1be>
				case UP:
					if(current_page > 1){
     98a:	20 91 0b 01 	lds	r18, 0x010B
     98e:	30 91 0c 01 	lds	r19, 0x010C
     992:	22 30       	cpi	r18, 0x02	; 2
     994:	31 05       	cpc	r19, r1
     996:	34 f0       	brlt	.+12     	; 0x9a4 <main+0xf8>
						current_page--;
     998:	21 50       	subi	r18, 0x01	; 1
     99a:	31 09       	sbc	r19, r1
     99c:	30 93 0c 01 	sts	0x010C, r19
     9a0:	20 93 0b 01 	sts	0x010B, r18
					}
					print_menu_oled(display_menu, current_page);
     9a4:	60 91 0b 01 	lds	r22, 0x010B
     9a8:	70 91 0c 01 	lds	r23, 0x010C
     9ac:	80 91 87 01 	lds	r24, 0x0187
     9b0:	90 91 88 01 	lds	r25, 0x0188
     9b4:	0e 94 f9 02 	call	0x5f2	; 0x5f2 <print_menu_oled>
					printf("up\n");
     9b8:	8e e6       	ldi	r24, 0x6E	; 110
     9ba:	91 e0       	ldi	r25, 0x01	; 1
     9bc:	0e 94 e4 08 	call	0x11c8	; 0x11c8 <puts>
					break;
     9c0:	54 c0       	rjmp	.+168    	; 0xa6a <main+0x1be>
				case DOWN:
					if(current_page < display_menu->number_of_childs){
     9c2:	e0 91 87 01 	lds	r30, 0x0187
     9c6:	f0 91 88 01 	lds	r31, 0x0188
     9ca:	20 91 0b 01 	lds	r18, 0x010B
     9ce:	30 91 0c 01 	lds	r19, 0x010C
     9d2:	82 85       	ldd	r24, Z+10	; 0x0a
     9d4:	93 85       	ldd	r25, Z+11	; 0x0b
     9d6:	28 17       	cp	r18, r24
     9d8:	39 07       	cpc	r19, r25
     9da:	34 f4       	brge	.+12     	; 0x9e8 <main+0x13c>
						current_page++;
     9dc:	2f 5f       	subi	r18, 0xFF	; 255
     9de:	3f 4f       	sbci	r19, 0xFF	; 255
     9e0:	30 93 0c 01 	sts	0x010C, r19
     9e4:	20 93 0b 01 	sts	0x010B, r18
					}
					print_menu_oled(display_menu, current_page);
     9e8:	60 91 0b 01 	lds	r22, 0x010B
     9ec:	70 91 0c 01 	lds	r23, 0x010C
     9f0:	cf 01       	movw	r24, r30
     9f2:	0e 94 f9 02 	call	0x5f2	; 0x5f2 <print_menu_oled>
					printf("down\n");
     9f6:	81 e7       	ldi	r24, 0x71	; 113
     9f8:	91 e0       	ldi	r25, 0x01	; 1
     9fa:	0e 94 e4 08 	call	0x11c8	; 0x11c8 <puts>
					break;
     9fe:	35 c0       	rjmp	.+106    	; 0xa6a <main+0x1be>
				case RIGHT:
					display_menu = update_display_menu(display_menu, current_page, RIGHT);
     a00:	60 91 0b 01 	lds	r22, 0x010B
     a04:	70 91 0c 01 	lds	r23, 0x010C
     a08:	42 e0       	ldi	r20, 0x02	; 2
     a0a:	80 91 87 01 	lds	r24, 0x0187
     a0e:	90 91 88 01 	lds	r25, 0x0188
     a12:	0e 94 c7 02 	call	0x58e	; 0x58e <update_display_menu>
     a16:	90 93 88 01 	sts	0x0188, r25
     a1a:	80 93 87 01 	sts	0x0187, r24
					current_page = 1;
     a1e:	f0 92 0c 01 	sts	0x010C, r15
     a22:	e0 92 0b 01 	sts	0x010B, r14
					print_menu_oled(display_menu, current_page);
     a26:	b7 01       	movw	r22, r14
     a28:	0e 94 f9 02 	call	0x5f2	; 0x5f2 <print_menu_oled>
					printf("right\n");
     a2c:	86 e7       	ldi	r24, 0x76	; 118
     a2e:	91 e0       	ldi	r25, 0x01	; 1
     a30:	0e 94 e4 08 	call	0x11c8	; 0x11c8 <puts>
					break;
     a34:	1a c0       	rjmp	.+52     	; 0xa6a <main+0x1be>
				case LEFT:
					display_menu = update_display_menu(display_menu, current_page, LEFT);
     a36:	60 91 0b 01 	lds	r22, 0x010B
     a3a:	70 91 0c 01 	lds	r23, 0x010C
     a3e:	43 e0       	ldi	r20, 0x03	; 3
     a40:	80 91 87 01 	lds	r24, 0x0187
     a44:	90 91 88 01 	lds	r25, 0x0188
     a48:	0e 94 c7 02 	call	0x58e	; 0x58e <update_display_menu>
     a4c:	90 93 88 01 	sts	0x0188, r25
     a50:	80 93 87 01 	sts	0x0187, r24
					current_page = 1; 
     a54:	f0 92 0c 01 	sts	0x010C, r15
     a58:	e0 92 0b 01 	sts	0x010B, r14
					print_menu_oled(display_menu, current_page);
     a5c:	b7 01       	movw	r22, r14
     a5e:	0e 94 f9 02 	call	0x5f2	; 0x5f2 <print_menu_oled>
					printf("left\n");
     a62:	8c e7       	ldi	r24, 0x7C	; 124
     a64:	91 e0       	ldi	r25, 0x01	; 1
     a66:	0e 94 e4 08 	call	0x11c8	; 0x11c8 <puts>
					break;
			
				default:
					break;
			}
			last_joy_dir = joy_dir;
     a6a:	10 93 0a 01 	sts	0x010A, r17
     a6e:	79 cf       	rjmp	.-270    	; 0x962 <main+0xb6>

00000a70 <__vector_3>:


	return 0;
}

ISR(INT2_vect){
     a70:	1f 92       	push	r1
     a72:	0f 92       	push	r0
     a74:	0f b6       	in	r0, 0x3f	; 63
     a76:	0f 92       	push	r0
     a78:	11 24       	eor	r1, r1
     a7a:	8f 93       	push	r24
	ADC_ready = 1; 
     a7c:	81 e0       	ldi	r24, 0x01	; 1
     a7e:	80 93 84 01 	sts	0x0184, r24
	//wake up the CPU
}
     a82:	8f 91       	pop	r24
     a84:	0f 90       	pop	r0
     a86:	0f be       	out	0x3f, r0	; 63
     a88:	0f 90       	pop	r0
     a8a:	1f 90       	pop	r1
     a8c:	18 95       	reti

00000a8e <__subsf3>:
     a8e:	50 58       	subi	r21, 0x80	; 128

00000a90 <__addsf3>:
     a90:	bb 27       	eor	r27, r27
     a92:	aa 27       	eor	r26, r26
     a94:	0e d0       	rcall	.+28     	; 0xab2 <__addsf3x>
     a96:	75 c1       	rjmp	.+746    	; 0xd82 <__fp_round>
     a98:	66 d1       	rcall	.+716    	; 0xd66 <__fp_pscA>
     a9a:	30 f0       	brcs	.+12     	; 0xaa8 <__addsf3+0x18>
     a9c:	6b d1       	rcall	.+726    	; 0xd74 <__fp_pscB>
     a9e:	20 f0       	brcs	.+8      	; 0xaa8 <__addsf3+0x18>
     aa0:	31 f4       	brne	.+12     	; 0xaae <__addsf3+0x1e>
     aa2:	9f 3f       	cpi	r25, 0xFF	; 255
     aa4:	11 f4       	brne	.+4      	; 0xaaa <__addsf3+0x1a>
     aa6:	1e f4       	brtc	.+6      	; 0xaae <__addsf3+0x1e>
     aa8:	5b c1       	rjmp	.+694    	; 0xd60 <__fp_nan>
     aaa:	0e f4       	brtc	.+2      	; 0xaae <__addsf3+0x1e>
     aac:	e0 95       	com	r30
     aae:	e7 fb       	bst	r30, 7
     ab0:	51 c1       	rjmp	.+674    	; 0xd54 <__fp_inf>

00000ab2 <__addsf3x>:
     ab2:	e9 2f       	mov	r30, r25
     ab4:	77 d1       	rcall	.+750    	; 0xda4 <__fp_split3>
     ab6:	80 f3       	brcs	.-32     	; 0xa98 <__addsf3+0x8>
     ab8:	ba 17       	cp	r27, r26
     aba:	62 07       	cpc	r22, r18
     abc:	73 07       	cpc	r23, r19
     abe:	84 07       	cpc	r24, r20
     ac0:	95 07       	cpc	r25, r21
     ac2:	18 f0       	brcs	.+6      	; 0xaca <__addsf3x+0x18>
     ac4:	71 f4       	brne	.+28     	; 0xae2 <__addsf3x+0x30>
     ac6:	9e f5       	brtc	.+102    	; 0xb2e <__addsf3x+0x7c>
     ac8:	8f c1       	rjmp	.+798    	; 0xde8 <__fp_zero>
     aca:	0e f4       	brtc	.+2      	; 0xace <__addsf3x+0x1c>
     acc:	e0 95       	com	r30
     ace:	0b 2e       	mov	r0, r27
     ad0:	ba 2f       	mov	r27, r26
     ad2:	a0 2d       	mov	r26, r0
     ad4:	0b 01       	movw	r0, r22
     ad6:	b9 01       	movw	r22, r18
     ad8:	90 01       	movw	r18, r0
     ada:	0c 01       	movw	r0, r24
     adc:	ca 01       	movw	r24, r20
     ade:	a0 01       	movw	r20, r0
     ae0:	11 24       	eor	r1, r1
     ae2:	ff 27       	eor	r31, r31
     ae4:	59 1b       	sub	r21, r25
     ae6:	99 f0       	breq	.+38     	; 0xb0e <__addsf3x+0x5c>
     ae8:	59 3f       	cpi	r21, 0xF9	; 249
     aea:	50 f4       	brcc	.+20     	; 0xb00 <__addsf3x+0x4e>
     aec:	50 3e       	cpi	r21, 0xE0	; 224
     aee:	68 f1       	brcs	.+90     	; 0xb4a <__addsf3x+0x98>
     af0:	1a 16       	cp	r1, r26
     af2:	f0 40       	sbci	r31, 0x00	; 0
     af4:	a2 2f       	mov	r26, r18
     af6:	23 2f       	mov	r18, r19
     af8:	34 2f       	mov	r19, r20
     afa:	44 27       	eor	r20, r20
     afc:	58 5f       	subi	r21, 0xF8	; 248
     afe:	f3 cf       	rjmp	.-26     	; 0xae6 <__addsf3x+0x34>
     b00:	46 95       	lsr	r20
     b02:	37 95       	ror	r19
     b04:	27 95       	ror	r18
     b06:	a7 95       	ror	r26
     b08:	f0 40       	sbci	r31, 0x00	; 0
     b0a:	53 95       	inc	r21
     b0c:	c9 f7       	brne	.-14     	; 0xb00 <__addsf3x+0x4e>
     b0e:	7e f4       	brtc	.+30     	; 0xb2e <__addsf3x+0x7c>
     b10:	1f 16       	cp	r1, r31
     b12:	ba 0b       	sbc	r27, r26
     b14:	62 0b       	sbc	r22, r18
     b16:	73 0b       	sbc	r23, r19
     b18:	84 0b       	sbc	r24, r20
     b1a:	ba f0       	brmi	.+46     	; 0xb4a <__addsf3x+0x98>
     b1c:	91 50       	subi	r25, 0x01	; 1
     b1e:	a1 f0       	breq	.+40     	; 0xb48 <__addsf3x+0x96>
     b20:	ff 0f       	add	r31, r31
     b22:	bb 1f       	adc	r27, r27
     b24:	66 1f       	adc	r22, r22
     b26:	77 1f       	adc	r23, r23
     b28:	88 1f       	adc	r24, r24
     b2a:	c2 f7       	brpl	.-16     	; 0xb1c <__addsf3x+0x6a>
     b2c:	0e c0       	rjmp	.+28     	; 0xb4a <__addsf3x+0x98>
     b2e:	ba 0f       	add	r27, r26
     b30:	62 1f       	adc	r22, r18
     b32:	73 1f       	adc	r23, r19
     b34:	84 1f       	adc	r24, r20
     b36:	48 f4       	brcc	.+18     	; 0xb4a <__addsf3x+0x98>
     b38:	87 95       	ror	r24
     b3a:	77 95       	ror	r23
     b3c:	67 95       	ror	r22
     b3e:	b7 95       	ror	r27
     b40:	f7 95       	ror	r31
     b42:	9e 3f       	cpi	r25, 0xFE	; 254
     b44:	08 f0       	brcs	.+2      	; 0xb48 <__addsf3x+0x96>
     b46:	b3 cf       	rjmp	.-154    	; 0xaae <__addsf3+0x1e>
     b48:	93 95       	inc	r25
     b4a:	88 0f       	add	r24, r24
     b4c:	08 f0       	brcs	.+2      	; 0xb50 <__addsf3x+0x9e>
     b4e:	99 27       	eor	r25, r25
     b50:	ee 0f       	add	r30, r30
     b52:	97 95       	ror	r25
     b54:	87 95       	ror	r24
     b56:	08 95       	ret

00000b58 <__cmpsf2>:
     b58:	d9 d0       	rcall	.+434    	; 0xd0c <__fp_cmp>
     b5a:	08 f4       	brcc	.+2      	; 0xb5e <__cmpsf2+0x6>
     b5c:	81 e0       	ldi	r24, 0x01	; 1
     b5e:	08 95       	ret

00000b60 <__divsf3>:
     b60:	0c d0       	rcall	.+24     	; 0xb7a <__divsf3x>
     b62:	0f c1       	rjmp	.+542    	; 0xd82 <__fp_round>
     b64:	07 d1       	rcall	.+526    	; 0xd74 <__fp_pscB>
     b66:	40 f0       	brcs	.+16     	; 0xb78 <__divsf3+0x18>
     b68:	fe d0       	rcall	.+508    	; 0xd66 <__fp_pscA>
     b6a:	30 f0       	brcs	.+12     	; 0xb78 <__divsf3+0x18>
     b6c:	21 f4       	brne	.+8      	; 0xb76 <__divsf3+0x16>
     b6e:	5f 3f       	cpi	r21, 0xFF	; 255
     b70:	19 f0       	breq	.+6      	; 0xb78 <__divsf3+0x18>
     b72:	f0 c0       	rjmp	.+480    	; 0xd54 <__fp_inf>
     b74:	51 11       	cpse	r21, r1
     b76:	39 c1       	rjmp	.+626    	; 0xdea <__fp_szero>
     b78:	f3 c0       	rjmp	.+486    	; 0xd60 <__fp_nan>

00000b7a <__divsf3x>:
     b7a:	14 d1       	rcall	.+552    	; 0xda4 <__fp_split3>
     b7c:	98 f3       	brcs	.-26     	; 0xb64 <__divsf3+0x4>

00000b7e <__divsf3_pse>:
     b7e:	99 23       	and	r25, r25
     b80:	c9 f3       	breq	.-14     	; 0xb74 <__divsf3+0x14>
     b82:	55 23       	and	r21, r21
     b84:	b1 f3       	breq	.-20     	; 0xb72 <__divsf3+0x12>
     b86:	95 1b       	sub	r25, r21
     b88:	55 0b       	sbc	r21, r21
     b8a:	bb 27       	eor	r27, r27
     b8c:	aa 27       	eor	r26, r26
     b8e:	62 17       	cp	r22, r18
     b90:	73 07       	cpc	r23, r19
     b92:	84 07       	cpc	r24, r20
     b94:	38 f0       	brcs	.+14     	; 0xba4 <__divsf3_pse+0x26>
     b96:	9f 5f       	subi	r25, 0xFF	; 255
     b98:	5f 4f       	sbci	r21, 0xFF	; 255
     b9a:	22 0f       	add	r18, r18
     b9c:	33 1f       	adc	r19, r19
     b9e:	44 1f       	adc	r20, r20
     ba0:	aa 1f       	adc	r26, r26
     ba2:	a9 f3       	breq	.-22     	; 0xb8e <__divsf3_pse+0x10>
     ba4:	33 d0       	rcall	.+102    	; 0xc0c <__divsf3_pse+0x8e>
     ba6:	0e 2e       	mov	r0, r30
     ba8:	3a f0       	brmi	.+14     	; 0xbb8 <__divsf3_pse+0x3a>
     baa:	e0 e8       	ldi	r30, 0x80	; 128
     bac:	30 d0       	rcall	.+96     	; 0xc0e <__divsf3_pse+0x90>
     bae:	91 50       	subi	r25, 0x01	; 1
     bb0:	50 40       	sbci	r21, 0x00	; 0
     bb2:	e6 95       	lsr	r30
     bb4:	00 1c       	adc	r0, r0
     bb6:	ca f7       	brpl	.-14     	; 0xbaa <__divsf3_pse+0x2c>
     bb8:	29 d0       	rcall	.+82     	; 0xc0c <__divsf3_pse+0x8e>
     bba:	fe 2f       	mov	r31, r30
     bbc:	27 d0       	rcall	.+78     	; 0xc0c <__divsf3_pse+0x8e>
     bbe:	66 0f       	add	r22, r22
     bc0:	77 1f       	adc	r23, r23
     bc2:	88 1f       	adc	r24, r24
     bc4:	bb 1f       	adc	r27, r27
     bc6:	26 17       	cp	r18, r22
     bc8:	37 07       	cpc	r19, r23
     bca:	48 07       	cpc	r20, r24
     bcc:	ab 07       	cpc	r26, r27
     bce:	b0 e8       	ldi	r27, 0x80	; 128
     bd0:	09 f0       	breq	.+2      	; 0xbd4 <__divsf3_pse+0x56>
     bd2:	bb 0b       	sbc	r27, r27
     bd4:	80 2d       	mov	r24, r0
     bd6:	bf 01       	movw	r22, r30
     bd8:	ff 27       	eor	r31, r31
     bda:	93 58       	subi	r25, 0x83	; 131
     bdc:	5f 4f       	sbci	r21, 0xFF	; 255
     bde:	2a f0       	brmi	.+10     	; 0xbea <__divsf3_pse+0x6c>
     be0:	9e 3f       	cpi	r25, 0xFE	; 254
     be2:	51 05       	cpc	r21, r1
     be4:	68 f0       	brcs	.+26     	; 0xc00 <__divsf3_pse+0x82>
     be6:	b6 c0       	rjmp	.+364    	; 0xd54 <__fp_inf>
     be8:	00 c1       	rjmp	.+512    	; 0xdea <__fp_szero>
     bea:	5f 3f       	cpi	r21, 0xFF	; 255
     bec:	ec f3       	brlt	.-6      	; 0xbe8 <__divsf3_pse+0x6a>
     bee:	98 3e       	cpi	r25, 0xE8	; 232
     bf0:	dc f3       	brlt	.-10     	; 0xbe8 <__divsf3_pse+0x6a>
     bf2:	86 95       	lsr	r24
     bf4:	77 95       	ror	r23
     bf6:	67 95       	ror	r22
     bf8:	b7 95       	ror	r27
     bfa:	f7 95       	ror	r31
     bfc:	9f 5f       	subi	r25, 0xFF	; 255
     bfe:	c9 f7       	brne	.-14     	; 0xbf2 <__divsf3_pse+0x74>
     c00:	88 0f       	add	r24, r24
     c02:	91 1d       	adc	r25, r1
     c04:	96 95       	lsr	r25
     c06:	87 95       	ror	r24
     c08:	97 f9       	bld	r25, 7
     c0a:	08 95       	ret
     c0c:	e1 e0       	ldi	r30, 0x01	; 1
     c0e:	66 0f       	add	r22, r22
     c10:	77 1f       	adc	r23, r23
     c12:	88 1f       	adc	r24, r24
     c14:	bb 1f       	adc	r27, r27
     c16:	62 17       	cp	r22, r18
     c18:	73 07       	cpc	r23, r19
     c1a:	84 07       	cpc	r24, r20
     c1c:	ba 07       	cpc	r27, r26
     c1e:	20 f0       	brcs	.+8      	; 0xc28 <__divsf3_pse+0xaa>
     c20:	62 1b       	sub	r22, r18
     c22:	73 0b       	sbc	r23, r19
     c24:	84 0b       	sbc	r24, r20
     c26:	ba 0b       	sbc	r27, r26
     c28:	ee 1f       	adc	r30, r30
     c2a:	88 f7       	brcc	.-30     	; 0xc0e <__divsf3_pse+0x90>
     c2c:	e0 95       	com	r30
     c2e:	08 95       	ret

00000c30 <__fixsfsi>:
     c30:	04 d0       	rcall	.+8      	; 0xc3a <__fixunssfsi>
     c32:	68 94       	set
     c34:	b1 11       	cpse	r27, r1
     c36:	d9 c0       	rjmp	.+434    	; 0xdea <__fp_szero>
     c38:	08 95       	ret

00000c3a <__fixunssfsi>:
     c3a:	bc d0       	rcall	.+376    	; 0xdb4 <__fp_splitA>
     c3c:	88 f0       	brcs	.+34     	; 0xc60 <__fixunssfsi+0x26>
     c3e:	9f 57       	subi	r25, 0x7F	; 127
     c40:	90 f0       	brcs	.+36     	; 0xc66 <__fixunssfsi+0x2c>
     c42:	b9 2f       	mov	r27, r25
     c44:	99 27       	eor	r25, r25
     c46:	b7 51       	subi	r27, 0x17	; 23
     c48:	a0 f0       	brcs	.+40     	; 0xc72 <__fixunssfsi+0x38>
     c4a:	d1 f0       	breq	.+52     	; 0xc80 <__fixunssfsi+0x46>
     c4c:	66 0f       	add	r22, r22
     c4e:	77 1f       	adc	r23, r23
     c50:	88 1f       	adc	r24, r24
     c52:	99 1f       	adc	r25, r25
     c54:	1a f0       	brmi	.+6      	; 0xc5c <__fixunssfsi+0x22>
     c56:	ba 95       	dec	r27
     c58:	c9 f7       	brne	.-14     	; 0xc4c <__fixunssfsi+0x12>
     c5a:	12 c0       	rjmp	.+36     	; 0xc80 <__fixunssfsi+0x46>
     c5c:	b1 30       	cpi	r27, 0x01	; 1
     c5e:	81 f0       	breq	.+32     	; 0xc80 <__fixunssfsi+0x46>
     c60:	c3 d0       	rcall	.+390    	; 0xde8 <__fp_zero>
     c62:	b1 e0       	ldi	r27, 0x01	; 1
     c64:	08 95       	ret
     c66:	c0 c0       	rjmp	.+384    	; 0xde8 <__fp_zero>
     c68:	67 2f       	mov	r22, r23
     c6a:	78 2f       	mov	r23, r24
     c6c:	88 27       	eor	r24, r24
     c6e:	b8 5f       	subi	r27, 0xF8	; 248
     c70:	39 f0       	breq	.+14     	; 0xc80 <__fixunssfsi+0x46>
     c72:	b9 3f       	cpi	r27, 0xF9	; 249
     c74:	cc f3       	brlt	.-14     	; 0xc68 <__fixunssfsi+0x2e>
     c76:	86 95       	lsr	r24
     c78:	77 95       	ror	r23
     c7a:	67 95       	ror	r22
     c7c:	b3 95       	inc	r27
     c7e:	d9 f7       	brne	.-10     	; 0xc76 <__fixunssfsi+0x3c>
     c80:	3e f4       	brtc	.+14     	; 0xc90 <__fixunssfsi+0x56>
     c82:	90 95       	com	r25
     c84:	80 95       	com	r24
     c86:	70 95       	com	r23
     c88:	61 95       	neg	r22
     c8a:	7f 4f       	sbci	r23, 0xFF	; 255
     c8c:	8f 4f       	sbci	r24, 0xFF	; 255
     c8e:	9f 4f       	sbci	r25, 0xFF	; 255
     c90:	08 95       	ret

00000c92 <__floatunsisf>:
     c92:	e8 94       	clt
     c94:	09 c0       	rjmp	.+18     	; 0xca8 <__floatsisf+0x12>

00000c96 <__floatsisf>:
     c96:	97 fb       	bst	r25, 7
     c98:	3e f4       	brtc	.+14     	; 0xca8 <__floatsisf+0x12>
     c9a:	90 95       	com	r25
     c9c:	80 95       	com	r24
     c9e:	70 95       	com	r23
     ca0:	61 95       	neg	r22
     ca2:	7f 4f       	sbci	r23, 0xFF	; 255
     ca4:	8f 4f       	sbci	r24, 0xFF	; 255
     ca6:	9f 4f       	sbci	r25, 0xFF	; 255
     ca8:	99 23       	and	r25, r25
     caa:	a9 f0       	breq	.+42     	; 0xcd6 <__floatsisf+0x40>
     cac:	f9 2f       	mov	r31, r25
     cae:	96 e9       	ldi	r25, 0x96	; 150
     cb0:	bb 27       	eor	r27, r27
     cb2:	93 95       	inc	r25
     cb4:	f6 95       	lsr	r31
     cb6:	87 95       	ror	r24
     cb8:	77 95       	ror	r23
     cba:	67 95       	ror	r22
     cbc:	b7 95       	ror	r27
     cbe:	f1 11       	cpse	r31, r1
     cc0:	f8 cf       	rjmp	.-16     	; 0xcb2 <__floatsisf+0x1c>
     cc2:	fa f4       	brpl	.+62     	; 0xd02 <__floatsisf+0x6c>
     cc4:	bb 0f       	add	r27, r27
     cc6:	11 f4       	brne	.+4      	; 0xccc <__floatsisf+0x36>
     cc8:	60 ff       	sbrs	r22, 0
     cca:	1b c0       	rjmp	.+54     	; 0xd02 <__floatsisf+0x6c>
     ccc:	6f 5f       	subi	r22, 0xFF	; 255
     cce:	7f 4f       	sbci	r23, 0xFF	; 255
     cd0:	8f 4f       	sbci	r24, 0xFF	; 255
     cd2:	9f 4f       	sbci	r25, 0xFF	; 255
     cd4:	16 c0       	rjmp	.+44     	; 0xd02 <__floatsisf+0x6c>
     cd6:	88 23       	and	r24, r24
     cd8:	11 f0       	breq	.+4      	; 0xcde <__floatsisf+0x48>
     cda:	96 e9       	ldi	r25, 0x96	; 150
     cdc:	11 c0       	rjmp	.+34     	; 0xd00 <__floatsisf+0x6a>
     cde:	77 23       	and	r23, r23
     ce0:	21 f0       	breq	.+8      	; 0xcea <__floatsisf+0x54>
     ce2:	9e e8       	ldi	r25, 0x8E	; 142
     ce4:	87 2f       	mov	r24, r23
     ce6:	76 2f       	mov	r23, r22
     ce8:	05 c0       	rjmp	.+10     	; 0xcf4 <__floatsisf+0x5e>
     cea:	66 23       	and	r22, r22
     cec:	71 f0       	breq	.+28     	; 0xd0a <__floatsisf+0x74>
     cee:	96 e8       	ldi	r25, 0x86	; 134
     cf0:	86 2f       	mov	r24, r22
     cf2:	70 e0       	ldi	r23, 0x00	; 0
     cf4:	60 e0       	ldi	r22, 0x00	; 0
     cf6:	2a f0       	brmi	.+10     	; 0xd02 <__floatsisf+0x6c>
     cf8:	9a 95       	dec	r25
     cfa:	66 0f       	add	r22, r22
     cfc:	77 1f       	adc	r23, r23
     cfe:	88 1f       	adc	r24, r24
     d00:	da f7       	brpl	.-10     	; 0xcf8 <__floatsisf+0x62>
     d02:	88 0f       	add	r24, r24
     d04:	96 95       	lsr	r25
     d06:	87 95       	ror	r24
     d08:	97 f9       	bld	r25, 7
     d0a:	08 95       	ret

00000d0c <__fp_cmp>:
     d0c:	99 0f       	add	r25, r25
     d0e:	00 08       	sbc	r0, r0
     d10:	55 0f       	add	r21, r21
     d12:	aa 0b       	sbc	r26, r26
     d14:	e0 e8       	ldi	r30, 0x80	; 128
     d16:	fe ef       	ldi	r31, 0xFE	; 254
     d18:	16 16       	cp	r1, r22
     d1a:	17 06       	cpc	r1, r23
     d1c:	e8 07       	cpc	r30, r24
     d1e:	f9 07       	cpc	r31, r25
     d20:	c0 f0       	brcs	.+48     	; 0xd52 <__fp_cmp+0x46>
     d22:	12 16       	cp	r1, r18
     d24:	13 06       	cpc	r1, r19
     d26:	e4 07       	cpc	r30, r20
     d28:	f5 07       	cpc	r31, r21
     d2a:	98 f0       	brcs	.+38     	; 0xd52 <__fp_cmp+0x46>
     d2c:	62 1b       	sub	r22, r18
     d2e:	73 0b       	sbc	r23, r19
     d30:	84 0b       	sbc	r24, r20
     d32:	95 0b       	sbc	r25, r21
     d34:	39 f4       	brne	.+14     	; 0xd44 <__fp_cmp+0x38>
     d36:	0a 26       	eor	r0, r26
     d38:	61 f0       	breq	.+24     	; 0xd52 <__fp_cmp+0x46>
     d3a:	23 2b       	or	r18, r19
     d3c:	24 2b       	or	r18, r20
     d3e:	25 2b       	or	r18, r21
     d40:	21 f4       	brne	.+8      	; 0xd4a <__fp_cmp+0x3e>
     d42:	08 95       	ret
     d44:	0a 26       	eor	r0, r26
     d46:	09 f4       	brne	.+2      	; 0xd4a <__fp_cmp+0x3e>
     d48:	a1 40       	sbci	r26, 0x01	; 1
     d4a:	a6 95       	lsr	r26
     d4c:	8f ef       	ldi	r24, 0xFF	; 255
     d4e:	81 1d       	adc	r24, r1
     d50:	81 1d       	adc	r24, r1
     d52:	08 95       	ret

00000d54 <__fp_inf>:
     d54:	97 f9       	bld	r25, 7
     d56:	9f 67       	ori	r25, 0x7F	; 127
     d58:	80 e8       	ldi	r24, 0x80	; 128
     d5a:	70 e0       	ldi	r23, 0x00	; 0
     d5c:	60 e0       	ldi	r22, 0x00	; 0
     d5e:	08 95       	ret

00000d60 <__fp_nan>:
     d60:	9f ef       	ldi	r25, 0xFF	; 255
     d62:	80 ec       	ldi	r24, 0xC0	; 192
     d64:	08 95       	ret

00000d66 <__fp_pscA>:
     d66:	00 24       	eor	r0, r0
     d68:	0a 94       	dec	r0
     d6a:	16 16       	cp	r1, r22
     d6c:	17 06       	cpc	r1, r23
     d6e:	18 06       	cpc	r1, r24
     d70:	09 06       	cpc	r0, r25
     d72:	08 95       	ret

00000d74 <__fp_pscB>:
     d74:	00 24       	eor	r0, r0
     d76:	0a 94       	dec	r0
     d78:	12 16       	cp	r1, r18
     d7a:	13 06       	cpc	r1, r19
     d7c:	14 06       	cpc	r1, r20
     d7e:	05 06       	cpc	r0, r21
     d80:	08 95       	ret

00000d82 <__fp_round>:
     d82:	09 2e       	mov	r0, r25
     d84:	03 94       	inc	r0
     d86:	00 0c       	add	r0, r0
     d88:	11 f4       	brne	.+4      	; 0xd8e <__fp_round+0xc>
     d8a:	88 23       	and	r24, r24
     d8c:	52 f0       	brmi	.+20     	; 0xda2 <__fp_round+0x20>
     d8e:	bb 0f       	add	r27, r27
     d90:	40 f4       	brcc	.+16     	; 0xda2 <__fp_round+0x20>
     d92:	bf 2b       	or	r27, r31
     d94:	11 f4       	brne	.+4      	; 0xd9a <__fp_round+0x18>
     d96:	60 ff       	sbrs	r22, 0
     d98:	04 c0       	rjmp	.+8      	; 0xda2 <__fp_round+0x20>
     d9a:	6f 5f       	subi	r22, 0xFF	; 255
     d9c:	7f 4f       	sbci	r23, 0xFF	; 255
     d9e:	8f 4f       	sbci	r24, 0xFF	; 255
     da0:	9f 4f       	sbci	r25, 0xFF	; 255
     da2:	08 95       	ret

00000da4 <__fp_split3>:
     da4:	57 fd       	sbrc	r21, 7
     da6:	90 58       	subi	r25, 0x80	; 128
     da8:	44 0f       	add	r20, r20
     daa:	55 1f       	adc	r21, r21
     dac:	59 f0       	breq	.+22     	; 0xdc4 <__fp_splitA+0x10>
     dae:	5f 3f       	cpi	r21, 0xFF	; 255
     db0:	71 f0       	breq	.+28     	; 0xdce <__fp_splitA+0x1a>
     db2:	47 95       	ror	r20

00000db4 <__fp_splitA>:
     db4:	88 0f       	add	r24, r24
     db6:	97 fb       	bst	r25, 7
     db8:	99 1f       	adc	r25, r25
     dba:	61 f0       	breq	.+24     	; 0xdd4 <__fp_splitA+0x20>
     dbc:	9f 3f       	cpi	r25, 0xFF	; 255
     dbe:	79 f0       	breq	.+30     	; 0xdde <__fp_splitA+0x2a>
     dc0:	87 95       	ror	r24
     dc2:	08 95       	ret
     dc4:	12 16       	cp	r1, r18
     dc6:	13 06       	cpc	r1, r19
     dc8:	14 06       	cpc	r1, r20
     dca:	55 1f       	adc	r21, r21
     dcc:	f2 cf       	rjmp	.-28     	; 0xdb2 <__fp_split3+0xe>
     dce:	46 95       	lsr	r20
     dd0:	f1 df       	rcall	.-30     	; 0xdb4 <__fp_splitA>
     dd2:	08 c0       	rjmp	.+16     	; 0xde4 <__fp_splitA+0x30>
     dd4:	16 16       	cp	r1, r22
     dd6:	17 06       	cpc	r1, r23
     dd8:	18 06       	cpc	r1, r24
     dda:	99 1f       	adc	r25, r25
     ddc:	f1 cf       	rjmp	.-30     	; 0xdc0 <__fp_splitA+0xc>
     dde:	86 95       	lsr	r24
     de0:	71 05       	cpc	r23, r1
     de2:	61 05       	cpc	r22, r1
     de4:	08 94       	sec
     de6:	08 95       	ret

00000de8 <__fp_zero>:
     de8:	e8 94       	clt

00000dea <__fp_szero>:
     dea:	bb 27       	eor	r27, r27
     dec:	66 27       	eor	r22, r22
     dee:	77 27       	eor	r23, r23
     df0:	cb 01       	movw	r24, r22
     df2:	97 f9       	bld	r25, 7
     df4:	08 95       	ret

00000df6 <__mulsf3>:
     df6:	0b d0       	rcall	.+22     	; 0xe0e <__mulsf3x>
     df8:	c4 cf       	rjmp	.-120    	; 0xd82 <__fp_round>
     dfa:	b5 df       	rcall	.-150    	; 0xd66 <__fp_pscA>
     dfc:	28 f0       	brcs	.+10     	; 0xe08 <__mulsf3+0x12>
     dfe:	ba df       	rcall	.-140    	; 0xd74 <__fp_pscB>
     e00:	18 f0       	brcs	.+6      	; 0xe08 <__mulsf3+0x12>
     e02:	95 23       	and	r25, r21
     e04:	09 f0       	breq	.+2      	; 0xe08 <__mulsf3+0x12>
     e06:	a6 cf       	rjmp	.-180    	; 0xd54 <__fp_inf>
     e08:	ab cf       	rjmp	.-170    	; 0xd60 <__fp_nan>
     e0a:	11 24       	eor	r1, r1
     e0c:	ee cf       	rjmp	.-36     	; 0xdea <__fp_szero>

00000e0e <__mulsf3x>:
     e0e:	ca df       	rcall	.-108    	; 0xda4 <__fp_split3>
     e10:	a0 f3       	brcs	.-24     	; 0xdfa <__mulsf3+0x4>

00000e12 <__mulsf3_pse>:
     e12:	95 9f       	mul	r25, r21
     e14:	d1 f3       	breq	.-12     	; 0xe0a <__mulsf3+0x14>
     e16:	95 0f       	add	r25, r21
     e18:	50 e0       	ldi	r21, 0x00	; 0
     e1a:	55 1f       	adc	r21, r21
     e1c:	62 9f       	mul	r22, r18
     e1e:	f0 01       	movw	r30, r0
     e20:	72 9f       	mul	r23, r18
     e22:	bb 27       	eor	r27, r27
     e24:	f0 0d       	add	r31, r0
     e26:	b1 1d       	adc	r27, r1
     e28:	63 9f       	mul	r22, r19
     e2a:	aa 27       	eor	r26, r26
     e2c:	f0 0d       	add	r31, r0
     e2e:	b1 1d       	adc	r27, r1
     e30:	aa 1f       	adc	r26, r26
     e32:	64 9f       	mul	r22, r20
     e34:	66 27       	eor	r22, r22
     e36:	b0 0d       	add	r27, r0
     e38:	a1 1d       	adc	r26, r1
     e3a:	66 1f       	adc	r22, r22
     e3c:	82 9f       	mul	r24, r18
     e3e:	22 27       	eor	r18, r18
     e40:	b0 0d       	add	r27, r0
     e42:	a1 1d       	adc	r26, r1
     e44:	62 1f       	adc	r22, r18
     e46:	73 9f       	mul	r23, r19
     e48:	b0 0d       	add	r27, r0
     e4a:	a1 1d       	adc	r26, r1
     e4c:	62 1f       	adc	r22, r18
     e4e:	83 9f       	mul	r24, r19
     e50:	a0 0d       	add	r26, r0
     e52:	61 1d       	adc	r22, r1
     e54:	22 1f       	adc	r18, r18
     e56:	74 9f       	mul	r23, r20
     e58:	33 27       	eor	r19, r19
     e5a:	a0 0d       	add	r26, r0
     e5c:	61 1d       	adc	r22, r1
     e5e:	23 1f       	adc	r18, r19
     e60:	84 9f       	mul	r24, r20
     e62:	60 0d       	add	r22, r0
     e64:	21 1d       	adc	r18, r1
     e66:	82 2f       	mov	r24, r18
     e68:	76 2f       	mov	r23, r22
     e6a:	6a 2f       	mov	r22, r26
     e6c:	11 24       	eor	r1, r1
     e6e:	9f 57       	subi	r25, 0x7F	; 127
     e70:	50 40       	sbci	r21, 0x00	; 0
     e72:	8a f0       	brmi	.+34     	; 0xe96 <__mulsf3_pse+0x84>
     e74:	e1 f0       	breq	.+56     	; 0xeae <__mulsf3_pse+0x9c>
     e76:	88 23       	and	r24, r24
     e78:	4a f0       	brmi	.+18     	; 0xe8c <__mulsf3_pse+0x7a>
     e7a:	ee 0f       	add	r30, r30
     e7c:	ff 1f       	adc	r31, r31
     e7e:	bb 1f       	adc	r27, r27
     e80:	66 1f       	adc	r22, r22
     e82:	77 1f       	adc	r23, r23
     e84:	88 1f       	adc	r24, r24
     e86:	91 50       	subi	r25, 0x01	; 1
     e88:	50 40       	sbci	r21, 0x00	; 0
     e8a:	a9 f7       	brne	.-22     	; 0xe76 <__mulsf3_pse+0x64>
     e8c:	9e 3f       	cpi	r25, 0xFE	; 254
     e8e:	51 05       	cpc	r21, r1
     e90:	70 f0       	brcs	.+28     	; 0xeae <__mulsf3_pse+0x9c>
     e92:	60 cf       	rjmp	.-320    	; 0xd54 <__fp_inf>
     e94:	aa cf       	rjmp	.-172    	; 0xdea <__fp_szero>
     e96:	5f 3f       	cpi	r21, 0xFF	; 255
     e98:	ec f3       	brlt	.-6      	; 0xe94 <__mulsf3_pse+0x82>
     e9a:	98 3e       	cpi	r25, 0xE8	; 232
     e9c:	dc f3       	brlt	.-10     	; 0xe94 <__mulsf3_pse+0x82>
     e9e:	86 95       	lsr	r24
     ea0:	77 95       	ror	r23
     ea2:	67 95       	ror	r22
     ea4:	b7 95       	ror	r27
     ea6:	f7 95       	ror	r31
     ea8:	e7 95       	ror	r30
     eaa:	9f 5f       	subi	r25, 0xFF	; 255
     eac:	c1 f7       	brne	.-16     	; 0xe9e <__mulsf3_pse+0x8c>
     eae:	fe 2b       	or	r31, r30
     eb0:	88 0f       	add	r24, r24
     eb2:	91 1d       	adc	r25, r1
     eb4:	96 95       	lsr	r25
     eb6:	87 95       	ror	r24
     eb8:	97 f9       	bld	r25, 7
     eba:	08 95       	ret

00000ebc <malloc>:
     ebc:	cf 93       	push	r28
     ebe:	df 93       	push	r29
     ec0:	82 30       	cpi	r24, 0x02	; 2
     ec2:	91 05       	cpc	r25, r1
     ec4:	10 f4       	brcc	.+4      	; 0xeca <malloc+0xe>
     ec6:	82 e0       	ldi	r24, 0x02	; 2
     ec8:	90 e0       	ldi	r25, 0x00	; 0
     eca:	e0 91 8b 01 	lds	r30, 0x018B
     ece:	f0 91 8c 01 	lds	r31, 0x018C
     ed2:	20 e0       	ldi	r18, 0x00	; 0
     ed4:	30 e0       	ldi	r19, 0x00	; 0
     ed6:	a0 e0       	ldi	r26, 0x00	; 0
     ed8:	b0 e0       	ldi	r27, 0x00	; 0
     eda:	30 97       	sbiw	r30, 0x00	; 0
     edc:	39 f1       	breq	.+78     	; 0xf2c <malloc+0x70>
     ede:	40 81       	ld	r20, Z
     ee0:	51 81       	ldd	r21, Z+1	; 0x01
     ee2:	48 17       	cp	r20, r24
     ee4:	59 07       	cpc	r21, r25
     ee6:	b8 f0       	brcs	.+46     	; 0xf16 <malloc+0x5a>
     ee8:	48 17       	cp	r20, r24
     eea:	59 07       	cpc	r21, r25
     eec:	71 f4       	brne	.+28     	; 0xf0a <malloc+0x4e>
     eee:	82 81       	ldd	r24, Z+2	; 0x02
     ef0:	93 81       	ldd	r25, Z+3	; 0x03
     ef2:	10 97       	sbiw	r26, 0x00	; 0
     ef4:	29 f0       	breq	.+10     	; 0xf00 <malloc+0x44>
     ef6:	13 96       	adiw	r26, 0x03	; 3
     ef8:	9c 93       	st	X, r25
     efa:	8e 93       	st	-X, r24
     efc:	12 97       	sbiw	r26, 0x02	; 2
     efe:	2c c0       	rjmp	.+88     	; 0xf58 <malloc+0x9c>
     f00:	90 93 8c 01 	sts	0x018C, r25
     f04:	80 93 8b 01 	sts	0x018B, r24
     f08:	27 c0       	rjmp	.+78     	; 0xf58 <malloc+0x9c>
     f0a:	21 15       	cp	r18, r1
     f0c:	31 05       	cpc	r19, r1
     f0e:	31 f0       	breq	.+12     	; 0xf1c <malloc+0x60>
     f10:	42 17       	cp	r20, r18
     f12:	53 07       	cpc	r21, r19
     f14:	18 f0       	brcs	.+6      	; 0xf1c <malloc+0x60>
     f16:	a9 01       	movw	r20, r18
     f18:	db 01       	movw	r26, r22
     f1a:	01 c0       	rjmp	.+2      	; 0xf1e <malloc+0x62>
     f1c:	ef 01       	movw	r28, r30
     f1e:	9a 01       	movw	r18, r20
     f20:	bd 01       	movw	r22, r26
     f22:	df 01       	movw	r26, r30
     f24:	02 80       	ldd	r0, Z+2	; 0x02
     f26:	f3 81       	ldd	r31, Z+3	; 0x03
     f28:	e0 2d       	mov	r30, r0
     f2a:	d7 cf       	rjmp	.-82     	; 0xeda <malloc+0x1e>
     f2c:	21 15       	cp	r18, r1
     f2e:	31 05       	cpc	r19, r1
     f30:	f9 f0       	breq	.+62     	; 0xf70 <malloc+0xb4>
     f32:	28 1b       	sub	r18, r24
     f34:	39 0b       	sbc	r19, r25
     f36:	24 30       	cpi	r18, 0x04	; 4
     f38:	31 05       	cpc	r19, r1
     f3a:	80 f4       	brcc	.+32     	; 0xf5c <malloc+0xa0>
     f3c:	8a 81       	ldd	r24, Y+2	; 0x02
     f3e:	9b 81       	ldd	r25, Y+3	; 0x03
     f40:	61 15       	cp	r22, r1
     f42:	71 05       	cpc	r23, r1
     f44:	21 f0       	breq	.+8      	; 0xf4e <malloc+0x92>
     f46:	fb 01       	movw	r30, r22
     f48:	93 83       	std	Z+3, r25	; 0x03
     f4a:	82 83       	std	Z+2, r24	; 0x02
     f4c:	04 c0       	rjmp	.+8      	; 0xf56 <malloc+0x9a>
     f4e:	90 93 8c 01 	sts	0x018C, r25
     f52:	80 93 8b 01 	sts	0x018B, r24
     f56:	fe 01       	movw	r30, r28
     f58:	32 96       	adiw	r30, 0x02	; 2
     f5a:	44 c0       	rjmp	.+136    	; 0xfe4 <malloc+0x128>
     f5c:	fe 01       	movw	r30, r28
     f5e:	e2 0f       	add	r30, r18
     f60:	f3 1f       	adc	r31, r19
     f62:	81 93       	st	Z+, r24
     f64:	91 93       	st	Z+, r25
     f66:	22 50       	subi	r18, 0x02	; 2
     f68:	31 09       	sbc	r19, r1
     f6a:	39 83       	std	Y+1, r19	; 0x01
     f6c:	28 83       	st	Y, r18
     f6e:	3a c0       	rjmp	.+116    	; 0xfe4 <malloc+0x128>
     f70:	20 91 89 01 	lds	r18, 0x0189
     f74:	30 91 8a 01 	lds	r19, 0x018A
     f78:	23 2b       	or	r18, r19
     f7a:	41 f4       	brne	.+16     	; 0xf8c <malloc+0xd0>
     f7c:	20 91 02 01 	lds	r18, 0x0102
     f80:	30 91 03 01 	lds	r19, 0x0103
     f84:	30 93 8a 01 	sts	0x018A, r19
     f88:	20 93 89 01 	sts	0x0189, r18
     f8c:	20 91 00 01 	lds	r18, 0x0100
     f90:	30 91 01 01 	lds	r19, 0x0101
     f94:	21 15       	cp	r18, r1
     f96:	31 05       	cpc	r19, r1
     f98:	41 f4       	brne	.+16     	; 0xfaa <malloc+0xee>
     f9a:	2d b7       	in	r18, 0x3d	; 61
     f9c:	3e b7       	in	r19, 0x3e	; 62
     f9e:	40 91 04 01 	lds	r20, 0x0104
     fa2:	50 91 05 01 	lds	r21, 0x0105
     fa6:	24 1b       	sub	r18, r20
     fa8:	35 0b       	sbc	r19, r21
     faa:	e0 91 89 01 	lds	r30, 0x0189
     fae:	f0 91 8a 01 	lds	r31, 0x018A
     fb2:	e2 17       	cp	r30, r18
     fb4:	f3 07       	cpc	r31, r19
     fb6:	a0 f4       	brcc	.+40     	; 0xfe0 <malloc+0x124>
     fb8:	2e 1b       	sub	r18, r30
     fba:	3f 0b       	sbc	r19, r31
     fbc:	28 17       	cp	r18, r24
     fbe:	39 07       	cpc	r19, r25
     fc0:	78 f0       	brcs	.+30     	; 0xfe0 <malloc+0x124>
     fc2:	ac 01       	movw	r20, r24
     fc4:	4e 5f       	subi	r20, 0xFE	; 254
     fc6:	5f 4f       	sbci	r21, 0xFF	; 255
     fc8:	24 17       	cp	r18, r20
     fca:	35 07       	cpc	r19, r21
     fcc:	48 f0       	brcs	.+18     	; 0xfe0 <malloc+0x124>
     fce:	4e 0f       	add	r20, r30
     fd0:	5f 1f       	adc	r21, r31
     fd2:	50 93 8a 01 	sts	0x018A, r21
     fd6:	40 93 89 01 	sts	0x0189, r20
     fda:	81 93       	st	Z+, r24
     fdc:	91 93       	st	Z+, r25
     fde:	02 c0       	rjmp	.+4      	; 0xfe4 <malloc+0x128>
     fe0:	e0 e0       	ldi	r30, 0x00	; 0
     fe2:	f0 e0       	ldi	r31, 0x00	; 0
     fe4:	cf 01       	movw	r24, r30
     fe6:	df 91       	pop	r29
     fe8:	cf 91       	pop	r28
     fea:	08 95       	ret

00000fec <free>:
     fec:	cf 93       	push	r28
     fee:	df 93       	push	r29
     ff0:	00 97       	sbiw	r24, 0x00	; 0
     ff2:	09 f4       	brne	.+2      	; 0xff6 <free+0xa>
     ff4:	87 c0       	rjmp	.+270    	; 0x1104 <free+0x118>
     ff6:	fc 01       	movw	r30, r24
     ff8:	32 97       	sbiw	r30, 0x02	; 2
     ffa:	13 82       	std	Z+3, r1	; 0x03
     ffc:	12 82       	std	Z+2, r1	; 0x02
     ffe:	c0 91 8b 01 	lds	r28, 0x018B
    1002:	d0 91 8c 01 	lds	r29, 0x018C
    1006:	20 97       	sbiw	r28, 0x00	; 0
    1008:	81 f4       	brne	.+32     	; 0x102a <free+0x3e>
    100a:	20 81       	ld	r18, Z
    100c:	31 81       	ldd	r19, Z+1	; 0x01
    100e:	28 0f       	add	r18, r24
    1010:	39 1f       	adc	r19, r25
    1012:	80 91 89 01 	lds	r24, 0x0189
    1016:	90 91 8a 01 	lds	r25, 0x018A
    101a:	82 17       	cp	r24, r18
    101c:	93 07       	cpc	r25, r19
    101e:	79 f5       	brne	.+94     	; 0x107e <free+0x92>
    1020:	f0 93 8a 01 	sts	0x018A, r31
    1024:	e0 93 89 01 	sts	0x0189, r30
    1028:	6d c0       	rjmp	.+218    	; 0x1104 <free+0x118>
    102a:	de 01       	movw	r26, r28
    102c:	20 e0       	ldi	r18, 0x00	; 0
    102e:	30 e0       	ldi	r19, 0x00	; 0
    1030:	ae 17       	cp	r26, r30
    1032:	bf 07       	cpc	r27, r31
    1034:	50 f4       	brcc	.+20     	; 0x104a <free+0x5e>
    1036:	12 96       	adiw	r26, 0x02	; 2
    1038:	4d 91       	ld	r20, X+
    103a:	5c 91       	ld	r21, X
    103c:	13 97       	sbiw	r26, 0x03	; 3
    103e:	9d 01       	movw	r18, r26
    1040:	41 15       	cp	r20, r1
    1042:	51 05       	cpc	r21, r1
    1044:	09 f1       	breq	.+66     	; 0x1088 <free+0x9c>
    1046:	da 01       	movw	r26, r20
    1048:	f3 cf       	rjmp	.-26     	; 0x1030 <free+0x44>
    104a:	b3 83       	std	Z+3, r27	; 0x03
    104c:	a2 83       	std	Z+2, r26	; 0x02
    104e:	40 81       	ld	r20, Z
    1050:	51 81       	ldd	r21, Z+1	; 0x01
    1052:	84 0f       	add	r24, r20
    1054:	95 1f       	adc	r25, r21
    1056:	8a 17       	cp	r24, r26
    1058:	9b 07       	cpc	r25, r27
    105a:	71 f4       	brne	.+28     	; 0x1078 <free+0x8c>
    105c:	8d 91       	ld	r24, X+
    105e:	9c 91       	ld	r25, X
    1060:	11 97       	sbiw	r26, 0x01	; 1
    1062:	84 0f       	add	r24, r20
    1064:	95 1f       	adc	r25, r21
    1066:	02 96       	adiw	r24, 0x02	; 2
    1068:	91 83       	std	Z+1, r25	; 0x01
    106a:	80 83       	st	Z, r24
    106c:	12 96       	adiw	r26, 0x02	; 2
    106e:	8d 91       	ld	r24, X+
    1070:	9c 91       	ld	r25, X
    1072:	13 97       	sbiw	r26, 0x03	; 3
    1074:	93 83       	std	Z+3, r25	; 0x03
    1076:	82 83       	std	Z+2, r24	; 0x02
    1078:	21 15       	cp	r18, r1
    107a:	31 05       	cpc	r19, r1
    107c:	29 f4       	brne	.+10     	; 0x1088 <free+0x9c>
    107e:	f0 93 8c 01 	sts	0x018C, r31
    1082:	e0 93 8b 01 	sts	0x018B, r30
    1086:	3e c0       	rjmp	.+124    	; 0x1104 <free+0x118>
    1088:	d9 01       	movw	r26, r18
    108a:	13 96       	adiw	r26, 0x03	; 3
    108c:	fc 93       	st	X, r31
    108e:	ee 93       	st	-X, r30
    1090:	12 97       	sbiw	r26, 0x02	; 2
    1092:	4d 91       	ld	r20, X+
    1094:	5d 91       	ld	r21, X+
    1096:	a4 0f       	add	r26, r20
    1098:	b5 1f       	adc	r27, r21
    109a:	ea 17       	cp	r30, r26
    109c:	fb 07       	cpc	r31, r27
    109e:	79 f4       	brne	.+30     	; 0x10be <free+0xd2>
    10a0:	80 81       	ld	r24, Z
    10a2:	91 81       	ldd	r25, Z+1	; 0x01
    10a4:	84 0f       	add	r24, r20
    10a6:	95 1f       	adc	r25, r21
    10a8:	02 96       	adiw	r24, 0x02	; 2
    10aa:	d9 01       	movw	r26, r18
    10ac:	11 96       	adiw	r26, 0x01	; 1
    10ae:	9c 93       	st	X, r25
    10b0:	8e 93       	st	-X, r24
    10b2:	82 81       	ldd	r24, Z+2	; 0x02
    10b4:	93 81       	ldd	r25, Z+3	; 0x03
    10b6:	13 96       	adiw	r26, 0x03	; 3
    10b8:	9c 93       	st	X, r25
    10ba:	8e 93       	st	-X, r24
    10bc:	12 97       	sbiw	r26, 0x02	; 2
    10be:	e0 e0       	ldi	r30, 0x00	; 0
    10c0:	f0 e0       	ldi	r31, 0x00	; 0
    10c2:	8a 81       	ldd	r24, Y+2	; 0x02
    10c4:	9b 81       	ldd	r25, Y+3	; 0x03
    10c6:	00 97       	sbiw	r24, 0x00	; 0
    10c8:	19 f0       	breq	.+6      	; 0x10d0 <free+0xe4>
    10ca:	fe 01       	movw	r30, r28
    10cc:	ec 01       	movw	r28, r24
    10ce:	f9 cf       	rjmp	.-14     	; 0x10c2 <free+0xd6>
    10d0:	ce 01       	movw	r24, r28
    10d2:	02 96       	adiw	r24, 0x02	; 2
    10d4:	28 81       	ld	r18, Y
    10d6:	39 81       	ldd	r19, Y+1	; 0x01
    10d8:	82 0f       	add	r24, r18
    10da:	93 1f       	adc	r25, r19
    10dc:	20 91 89 01 	lds	r18, 0x0189
    10e0:	30 91 8a 01 	lds	r19, 0x018A
    10e4:	28 17       	cp	r18, r24
    10e6:	39 07       	cpc	r19, r25
    10e8:	69 f4       	brne	.+26     	; 0x1104 <free+0x118>
    10ea:	30 97       	sbiw	r30, 0x00	; 0
    10ec:	29 f4       	brne	.+10     	; 0x10f8 <free+0x10c>
    10ee:	10 92 8c 01 	sts	0x018C, r1
    10f2:	10 92 8b 01 	sts	0x018B, r1
    10f6:	02 c0       	rjmp	.+4      	; 0x10fc <free+0x110>
    10f8:	13 82       	std	Z+3, r1	; 0x03
    10fa:	12 82       	std	Z+2, r1	; 0x02
    10fc:	d0 93 8a 01 	sts	0x018A, r29
    1100:	c0 93 89 01 	sts	0x0189, r28
    1104:	df 91       	pop	r29
    1106:	cf 91       	pop	r28
    1108:	08 95       	ret

0000110a <fdevopen>:
    110a:	0f 93       	push	r16
    110c:	1f 93       	push	r17
    110e:	cf 93       	push	r28
    1110:	df 93       	push	r29
    1112:	ec 01       	movw	r28, r24
    1114:	8b 01       	movw	r16, r22
    1116:	00 97       	sbiw	r24, 0x00	; 0
    1118:	31 f4       	brne	.+12     	; 0x1126 <fdevopen+0x1c>
    111a:	61 15       	cp	r22, r1
    111c:	71 05       	cpc	r23, r1
    111e:	19 f4       	brne	.+6      	; 0x1126 <fdevopen+0x1c>
    1120:	80 e0       	ldi	r24, 0x00	; 0
    1122:	90 e0       	ldi	r25, 0x00	; 0
    1124:	38 c0       	rjmp	.+112    	; 0x1196 <fdevopen+0x8c>
    1126:	6e e0       	ldi	r22, 0x0E	; 14
    1128:	70 e0       	ldi	r23, 0x00	; 0
    112a:	81 e0       	ldi	r24, 0x01	; 1
    112c:	90 e0       	ldi	r25, 0x00	; 0
    112e:	0e 94 e3 0a 	call	0x15c6	; 0x15c6 <calloc>
    1132:	fc 01       	movw	r30, r24
    1134:	00 97       	sbiw	r24, 0x00	; 0
    1136:	a1 f3       	breq	.-24     	; 0x1120 <fdevopen+0x16>
    1138:	80 e8       	ldi	r24, 0x80	; 128
    113a:	83 83       	std	Z+3, r24	; 0x03
    113c:	01 15       	cp	r16, r1
    113e:	11 05       	cpc	r17, r1
    1140:	71 f0       	breq	.+28     	; 0x115e <fdevopen+0x54>
    1142:	13 87       	std	Z+11, r17	; 0x0b
    1144:	02 87       	std	Z+10, r16	; 0x0a
    1146:	81 e8       	ldi	r24, 0x81	; 129
    1148:	83 83       	std	Z+3, r24	; 0x03
    114a:	80 91 8d 01 	lds	r24, 0x018D
    114e:	90 91 8e 01 	lds	r25, 0x018E
    1152:	89 2b       	or	r24, r25
    1154:	21 f4       	brne	.+8      	; 0x115e <fdevopen+0x54>
    1156:	f0 93 8e 01 	sts	0x018E, r31
    115a:	e0 93 8d 01 	sts	0x018D, r30
    115e:	20 97       	sbiw	r28, 0x00	; 0
    1160:	c9 f0       	breq	.+50     	; 0x1194 <fdevopen+0x8a>
    1162:	d1 87       	std	Z+9, r29	; 0x09
    1164:	c0 87       	std	Z+8, r28	; 0x08
    1166:	83 81       	ldd	r24, Z+3	; 0x03
    1168:	82 60       	ori	r24, 0x02	; 2
    116a:	83 83       	std	Z+3, r24	; 0x03
    116c:	80 91 8f 01 	lds	r24, 0x018F
    1170:	90 91 90 01 	lds	r25, 0x0190
    1174:	89 2b       	or	r24, r25
    1176:	71 f4       	brne	.+28     	; 0x1194 <fdevopen+0x8a>
    1178:	f0 93 90 01 	sts	0x0190, r31
    117c:	e0 93 8f 01 	sts	0x018F, r30
    1180:	80 91 91 01 	lds	r24, 0x0191
    1184:	90 91 92 01 	lds	r25, 0x0192
    1188:	89 2b       	or	r24, r25
    118a:	21 f4       	brne	.+8      	; 0x1194 <fdevopen+0x8a>
    118c:	f0 93 92 01 	sts	0x0192, r31
    1190:	e0 93 91 01 	sts	0x0191, r30
    1194:	cf 01       	movw	r24, r30
    1196:	df 91       	pop	r29
    1198:	cf 91       	pop	r28
    119a:	1f 91       	pop	r17
    119c:	0f 91       	pop	r16
    119e:	08 95       	ret

000011a0 <printf>:
    11a0:	a0 e0       	ldi	r26, 0x00	; 0
    11a2:	b0 e0       	ldi	r27, 0x00	; 0
    11a4:	e6 ed       	ldi	r30, 0xD6	; 214
    11a6:	f8 e0       	ldi	r31, 0x08	; 8
    11a8:	0c 94 bc 0b 	jmp	0x1778	; 0x1778 <__prologue_saves__+0x20>
    11ac:	fe 01       	movw	r30, r28
    11ae:	35 96       	adiw	r30, 0x05	; 5
    11b0:	61 91       	ld	r22, Z+
    11b2:	71 91       	ld	r23, Z+
    11b4:	af 01       	movw	r20, r30
    11b6:	80 91 8f 01 	lds	r24, 0x018F
    11ba:	90 91 90 01 	lds	r25, 0x0190
    11be:	0e 94 11 09 	call	0x1222	; 0x1222 <vfprintf>
    11c2:	e2 e0       	ldi	r30, 0x02	; 2
    11c4:	0c 94 d8 0b 	jmp	0x17b0	; 0x17b0 <__epilogue_restores__+0x20>

000011c8 <puts>:
    11c8:	0f 93       	push	r16
    11ca:	1f 93       	push	r17
    11cc:	cf 93       	push	r28
    11ce:	df 93       	push	r29
    11d0:	e0 91 8f 01 	lds	r30, 0x018F
    11d4:	f0 91 90 01 	lds	r31, 0x0190
    11d8:	23 81       	ldd	r18, Z+3	; 0x03
    11da:	21 ff       	sbrs	r18, 1
    11dc:	1b c0       	rjmp	.+54     	; 0x1214 <puts+0x4c>
    11de:	ec 01       	movw	r28, r24
    11e0:	00 e0       	ldi	r16, 0x00	; 0
    11e2:	10 e0       	ldi	r17, 0x00	; 0
    11e4:	89 91       	ld	r24, Y+
    11e6:	60 91 8f 01 	lds	r22, 0x018F
    11ea:	70 91 90 01 	lds	r23, 0x0190
    11ee:	db 01       	movw	r26, r22
    11f0:	18 96       	adiw	r26, 0x08	; 8
    11f2:	ed 91       	ld	r30, X+
    11f4:	fc 91       	ld	r31, X
    11f6:	19 97       	sbiw	r26, 0x09	; 9
    11f8:	88 23       	and	r24, r24
    11fa:	31 f0       	breq	.+12     	; 0x1208 <puts+0x40>
    11fc:	09 95       	icall
    11fe:	89 2b       	or	r24, r25
    1200:	89 f3       	breq	.-30     	; 0x11e4 <puts+0x1c>
    1202:	0f ef       	ldi	r16, 0xFF	; 255
    1204:	1f ef       	ldi	r17, 0xFF	; 255
    1206:	ee cf       	rjmp	.-36     	; 0x11e4 <puts+0x1c>
    1208:	8a e0       	ldi	r24, 0x0A	; 10
    120a:	09 95       	icall
    120c:	89 2b       	or	r24, r25
    120e:	11 f4       	brne	.+4      	; 0x1214 <puts+0x4c>
    1210:	c8 01       	movw	r24, r16
    1212:	02 c0       	rjmp	.+4      	; 0x1218 <puts+0x50>
    1214:	8f ef       	ldi	r24, 0xFF	; 255
    1216:	9f ef       	ldi	r25, 0xFF	; 255
    1218:	df 91       	pop	r29
    121a:	cf 91       	pop	r28
    121c:	1f 91       	pop	r17
    121e:	0f 91       	pop	r16
    1220:	08 95       	ret

00001222 <vfprintf>:
    1222:	ac e0       	ldi	r26, 0x0C	; 12
    1224:	b0 e0       	ldi	r27, 0x00	; 0
    1226:	e7 e1       	ldi	r30, 0x17	; 23
    1228:	f9 e0       	ldi	r31, 0x09	; 9
    122a:	0c 94 ac 0b 	jmp	0x1758	; 0x1758 <__prologue_saves__>
    122e:	7c 01       	movw	r14, r24
    1230:	6b 01       	movw	r12, r22
    1232:	8a 01       	movw	r16, r20
    1234:	fc 01       	movw	r30, r24
    1236:	17 82       	std	Z+7, r1	; 0x07
    1238:	16 82       	std	Z+6, r1	; 0x06
    123a:	83 81       	ldd	r24, Z+3	; 0x03
    123c:	81 ff       	sbrs	r24, 1
    123e:	bd c1       	rjmp	.+890    	; 0x15ba <vfprintf+0x398>
    1240:	ce 01       	movw	r24, r28
    1242:	01 96       	adiw	r24, 0x01	; 1
    1244:	4c 01       	movw	r8, r24
    1246:	f7 01       	movw	r30, r14
    1248:	93 81       	ldd	r25, Z+3	; 0x03
    124a:	f6 01       	movw	r30, r12
    124c:	93 fd       	sbrc	r25, 3
    124e:	85 91       	lpm	r24, Z+
    1250:	93 ff       	sbrs	r25, 3
    1252:	81 91       	ld	r24, Z+
    1254:	6f 01       	movw	r12, r30
    1256:	88 23       	and	r24, r24
    1258:	09 f4       	brne	.+2      	; 0x125c <vfprintf+0x3a>
    125a:	ab c1       	rjmp	.+854    	; 0x15b2 <vfprintf+0x390>
    125c:	85 32       	cpi	r24, 0x25	; 37
    125e:	39 f4       	brne	.+14     	; 0x126e <vfprintf+0x4c>
    1260:	93 fd       	sbrc	r25, 3
    1262:	85 91       	lpm	r24, Z+
    1264:	93 ff       	sbrs	r25, 3
    1266:	81 91       	ld	r24, Z+
    1268:	6f 01       	movw	r12, r30
    126a:	85 32       	cpi	r24, 0x25	; 37
    126c:	29 f4       	brne	.+10     	; 0x1278 <vfprintf+0x56>
    126e:	b7 01       	movw	r22, r14
    1270:	90 e0       	ldi	r25, 0x00	; 0
    1272:	0e 94 1c 0b 	call	0x1638	; 0x1638 <fputc>
    1276:	e7 cf       	rjmp	.-50     	; 0x1246 <vfprintf+0x24>
    1278:	51 2c       	mov	r5, r1
    127a:	31 2c       	mov	r3, r1
    127c:	20 e0       	ldi	r18, 0x00	; 0
    127e:	20 32       	cpi	r18, 0x20	; 32
    1280:	a0 f4       	brcc	.+40     	; 0x12aa <vfprintf+0x88>
    1282:	8b 32       	cpi	r24, 0x2B	; 43
    1284:	69 f0       	breq	.+26     	; 0x12a0 <vfprintf+0x7e>
    1286:	30 f4       	brcc	.+12     	; 0x1294 <vfprintf+0x72>
    1288:	80 32       	cpi	r24, 0x20	; 32
    128a:	59 f0       	breq	.+22     	; 0x12a2 <vfprintf+0x80>
    128c:	83 32       	cpi	r24, 0x23	; 35
    128e:	69 f4       	brne	.+26     	; 0x12aa <vfprintf+0x88>
    1290:	20 61       	ori	r18, 0x10	; 16
    1292:	2c c0       	rjmp	.+88     	; 0x12ec <vfprintf+0xca>
    1294:	8d 32       	cpi	r24, 0x2D	; 45
    1296:	39 f0       	breq	.+14     	; 0x12a6 <vfprintf+0x84>
    1298:	80 33       	cpi	r24, 0x30	; 48
    129a:	39 f4       	brne	.+14     	; 0x12aa <vfprintf+0x88>
    129c:	21 60       	ori	r18, 0x01	; 1
    129e:	26 c0       	rjmp	.+76     	; 0x12ec <vfprintf+0xca>
    12a0:	22 60       	ori	r18, 0x02	; 2
    12a2:	24 60       	ori	r18, 0x04	; 4
    12a4:	23 c0       	rjmp	.+70     	; 0x12ec <vfprintf+0xca>
    12a6:	28 60       	ori	r18, 0x08	; 8
    12a8:	21 c0       	rjmp	.+66     	; 0x12ec <vfprintf+0xca>
    12aa:	27 fd       	sbrc	r18, 7
    12ac:	27 c0       	rjmp	.+78     	; 0x12fc <vfprintf+0xda>
    12ae:	30 ed       	ldi	r19, 0xD0	; 208
    12b0:	38 0f       	add	r19, r24
    12b2:	3a 30       	cpi	r19, 0x0A	; 10
    12b4:	78 f4       	brcc	.+30     	; 0x12d4 <vfprintf+0xb2>
    12b6:	26 ff       	sbrs	r18, 6
    12b8:	06 c0       	rjmp	.+12     	; 0x12c6 <vfprintf+0xa4>
    12ba:	fa e0       	ldi	r31, 0x0A	; 10
    12bc:	5f 9e       	mul	r5, r31
    12be:	30 0d       	add	r19, r0
    12c0:	11 24       	eor	r1, r1
    12c2:	53 2e       	mov	r5, r19
    12c4:	13 c0       	rjmp	.+38     	; 0x12ec <vfprintf+0xca>
    12c6:	8a e0       	ldi	r24, 0x0A	; 10
    12c8:	38 9e       	mul	r3, r24
    12ca:	30 0d       	add	r19, r0
    12cc:	11 24       	eor	r1, r1
    12ce:	33 2e       	mov	r3, r19
    12d0:	20 62       	ori	r18, 0x20	; 32
    12d2:	0c c0       	rjmp	.+24     	; 0x12ec <vfprintf+0xca>
    12d4:	8e 32       	cpi	r24, 0x2E	; 46
    12d6:	21 f4       	brne	.+8      	; 0x12e0 <vfprintf+0xbe>
    12d8:	26 fd       	sbrc	r18, 6
    12da:	6b c1       	rjmp	.+726    	; 0x15b2 <vfprintf+0x390>
    12dc:	20 64       	ori	r18, 0x40	; 64
    12de:	06 c0       	rjmp	.+12     	; 0x12ec <vfprintf+0xca>
    12e0:	8c 36       	cpi	r24, 0x6C	; 108
    12e2:	11 f4       	brne	.+4      	; 0x12e8 <vfprintf+0xc6>
    12e4:	20 68       	ori	r18, 0x80	; 128
    12e6:	02 c0       	rjmp	.+4      	; 0x12ec <vfprintf+0xca>
    12e8:	88 36       	cpi	r24, 0x68	; 104
    12ea:	41 f4       	brne	.+16     	; 0x12fc <vfprintf+0xda>
    12ec:	f6 01       	movw	r30, r12
    12ee:	93 fd       	sbrc	r25, 3
    12f0:	85 91       	lpm	r24, Z+
    12f2:	93 ff       	sbrs	r25, 3
    12f4:	81 91       	ld	r24, Z+
    12f6:	6f 01       	movw	r12, r30
    12f8:	81 11       	cpse	r24, r1
    12fa:	c1 cf       	rjmp	.-126    	; 0x127e <vfprintf+0x5c>
    12fc:	98 2f       	mov	r25, r24
    12fe:	9f 7d       	andi	r25, 0xDF	; 223
    1300:	95 54       	subi	r25, 0x45	; 69
    1302:	93 30       	cpi	r25, 0x03	; 3
    1304:	28 f4       	brcc	.+10     	; 0x1310 <vfprintf+0xee>
    1306:	0c 5f       	subi	r16, 0xFC	; 252
    1308:	1f 4f       	sbci	r17, 0xFF	; 255
    130a:	ff e3       	ldi	r31, 0x3F	; 63
    130c:	f9 83       	std	Y+1, r31	; 0x01
    130e:	0d c0       	rjmp	.+26     	; 0x132a <vfprintf+0x108>
    1310:	83 36       	cpi	r24, 0x63	; 99
    1312:	31 f0       	breq	.+12     	; 0x1320 <vfprintf+0xfe>
    1314:	83 37       	cpi	r24, 0x73	; 115
    1316:	71 f0       	breq	.+28     	; 0x1334 <vfprintf+0x112>
    1318:	83 35       	cpi	r24, 0x53	; 83
    131a:	09 f0       	breq	.+2      	; 0x131e <vfprintf+0xfc>
    131c:	5b c0       	rjmp	.+182    	; 0x13d4 <vfprintf+0x1b2>
    131e:	22 c0       	rjmp	.+68     	; 0x1364 <vfprintf+0x142>
    1320:	f8 01       	movw	r30, r16
    1322:	80 81       	ld	r24, Z
    1324:	89 83       	std	Y+1, r24	; 0x01
    1326:	0e 5f       	subi	r16, 0xFE	; 254
    1328:	1f 4f       	sbci	r17, 0xFF	; 255
    132a:	44 24       	eor	r4, r4
    132c:	43 94       	inc	r4
    132e:	51 2c       	mov	r5, r1
    1330:	54 01       	movw	r10, r8
    1332:	15 c0       	rjmp	.+42     	; 0x135e <vfprintf+0x13c>
    1334:	38 01       	movw	r6, r16
    1336:	f2 e0       	ldi	r31, 0x02	; 2
    1338:	6f 0e       	add	r6, r31
    133a:	71 1c       	adc	r7, r1
    133c:	f8 01       	movw	r30, r16
    133e:	a0 80       	ld	r10, Z
    1340:	b1 80       	ldd	r11, Z+1	; 0x01
    1342:	26 ff       	sbrs	r18, 6
    1344:	03 c0       	rjmp	.+6      	; 0x134c <vfprintf+0x12a>
    1346:	65 2d       	mov	r22, r5
    1348:	70 e0       	ldi	r23, 0x00	; 0
    134a:	02 c0       	rjmp	.+4      	; 0x1350 <vfprintf+0x12e>
    134c:	6f ef       	ldi	r22, 0xFF	; 255
    134e:	7f ef       	ldi	r23, 0xFF	; 255
    1350:	c5 01       	movw	r24, r10
    1352:	2c 87       	std	Y+12, r18	; 0x0c
    1354:	0e 94 11 0b 	call	0x1622	; 0x1622 <strnlen>
    1358:	2c 01       	movw	r4, r24
    135a:	83 01       	movw	r16, r6
    135c:	2c 85       	ldd	r18, Y+12	; 0x0c
    135e:	2f 77       	andi	r18, 0x7F	; 127
    1360:	22 2e       	mov	r2, r18
    1362:	17 c0       	rjmp	.+46     	; 0x1392 <vfprintf+0x170>
    1364:	38 01       	movw	r6, r16
    1366:	f2 e0       	ldi	r31, 0x02	; 2
    1368:	6f 0e       	add	r6, r31
    136a:	71 1c       	adc	r7, r1
    136c:	f8 01       	movw	r30, r16
    136e:	a0 80       	ld	r10, Z
    1370:	b1 80       	ldd	r11, Z+1	; 0x01
    1372:	26 ff       	sbrs	r18, 6
    1374:	03 c0       	rjmp	.+6      	; 0x137c <vfprintf+0x15a>
    1376:	65 2d       	mov	r22, r5
    1378:	70 e0       	ldi	r23, 0x00	; 0
    137a:	02 c0       	rjmp	.+4      	; 0x1380 <vfprintf+0x15e>
    137c:	6f ef       	ldi	r22, 0xFF	; 255
    137e:	7f ef       	ldi	r23, 0xFF	; 255
    1380:	c5 01       	movw	r24, r10
    1382:	2c 87       	std	Y+12, r18	; 0x0c
    1384:	0e 94 ff 0a 	call	0x15fe	; 0x15fe <strnlen_P>
    1388:	2c 01       	movw	r4, r24
    138a:	2c 85       	ldd	r18, Y+12	; 0x0c
    138c:	20 68       	ori	r18, 0x80	; 128
    138e:	22 2e       	mov	r2, r18
    1390:	83 01       	movw	r16, r6
    1392:	23 fc       	sbrc	r2, 3
    1394:	1b c0       	rjmp	.+54     	; 0x13cc <vfprintf+0x1aa>
    1396:	83 2d       	mov	r24, r3
    1398:	90 e0       	ldi	r25, 0x00	; 0
    139a:	48 16       	cp	r4, r24
    139c:	59 06       	cpc	r5, r25
    139e:	b0 f4       	brcc	.+44     	; 0x13cc <vfprintf+0x1aa>
    13a0:	b7 01       	movw	r22, r14
    13a2:	80 e2       	ldi	r24, 0x20	; 32
    13a4:	90 e0       	ldi	r25, 0x00	; 0
    13a6:	0e 94 1c 0b 	call	0x1638	; 0x1638 <fputc>
    13aa:	3a 94       	dec	r3
    13ac:	f4 cf       	rjmp	.-24     	; 0x1396 <vfprintf+0x174>
    13ae:	f5 01       	movw	r30, r10
    13b0:	27 fc       	sbrc	r2, 7
    13b2:	85 91       	lpm	r24, Z+
    13b4:	27 fe       	sbrs	r2, 7
    13b6:	81 91       	ld	r24, Z+
    13b8:	5f 01       	movw	r10, r30
    13ba:	b7 01       	movw	r22, r14
    13bc:	90 e0       	ldi	r25, 0x00	; 0
    13be:	0e 94 1c 0b 	call	0x1638	; 0x1638 <fputc>
    13c2:	31 10       	cpse	r3, r1
    13c4:	3a 94       	dec	r3
    13c6:	f1 e0       	ldi	r31, 0x01	; 1
    13c8:	4f 1a       	sub	r4, r31
    13ca:	51 08       	sbc	r5, r1
    13cc:	41 14       	cp	r4, r1
    13ce:	51 04       	cpc	r5, r1
    13d0:	71 f7       	brne	.-36     	; 0x13ae <vfprintf+0x18c>
    13d2:	e5 c0       	rjmp	.+458    	; 0x159e <vfprintf+0x37c>
    13d4:	84 36       	cpi	r24, 0x64	; 100
    13d6:	11 f0       	breq	.+4      	; 0x13dc <vfprintf+0x1ba>
    13d8:	89 36       	cpi	r24, 0x69	; 105
    13da:	39 f5       	brne	.+78     	; 0x142a <vfprintf+0x208>
    13dc:	f8 01       	movw	r30, r16
    13de:	27 ff       	sbrs	r18, 7
    13e0:	07 c0       	rjmp	.+14     	; 0x13f0 <vfprintf+0x1ce>
    13e2:	60 81       	ld	r22, Z
    13e4:	71 81       	ldd	r23, Z+1	; 0x01
    13e6:	82 81       	ldd	r24, Z+2	; 0x02
    13e8:	93 81       	ldd	r25, Z+3	; 0x03
    13ea:	0c 5f       	subi	r16, 0xFC	; 252
    13ec:	1f 4f       	sbci	r17, 0xFF	; 255
    13ee:	08 c0       	rjmp	.+16     	; 0x1400 <vfprintf+0x1de>
    13f0:	60 81       	ld	r22, Z
    13f2:	71 81       	ldd	r23, Z+1	; 0x01
    13f4:	88 27       	eor	r24, r24
    13f6:	77 fd       	sbrc	r23, 7
    13f8:	80 95       	com	r24
    13fa:	98 2f       	mov	r25, r24
    13fc:	0e 5f       	subi	r16, 0xFE	; 254
    13fe:	1f 4f       	sbci	r17, 0xFF	; 255
    1400:	2f 76       	andi	r18, 0x6F	; 111
    1402:	b2 2e       	mov	r11, r18
    1404:	97 ff       	sbrs	r25, 7
    1406:	09 c0       	rjmp	.+18     	; 0x141a <vfprintf+0x1f8>
    1408:	90 95       	com	r25
    140a:	80 95       	com	r24
    140c:	70 95       	com	r23
    140e:	61 95       	neg	r22
    1410:	7f 4f       	sbci	r23, 0xFF	; 255
    1412:	8f 4f       	sbci	r24, 0xFF	; 255
    1414:	9f 4f       	sbci	r25, 0xFF	; 255
    1416:	20 68       	ori	r18, 0x80	; 128
    1418:	b2 2e       	mov	r11, r18
    141a:	2a e0       	ldi	r18, 0x0A	; 10
    141c:	30 e0       	ldi	r19, 0x00	; 0
    141e:	a4 01       	movw	r20, r8
    1420:	0e 94 4e 0b 	call	0x169c	; 0x169c <__ultoa_invert>
    1424:	a8 2e       	mov	r10, r24
    1426:	a8 18       	sub	r10, r8
    1428:	44 c0       	rjmp	.+136    	; 0x14b2 <vfprintf+0x290>
    142a:	85 37       	cpi	r24, 0x75	; 117
    142c:	29 f4       	brne	.+10     	; 0x1438 <vfprintf+0x216>
    142e:	2f 7e       	andi	r18, 0xEF	; 239
    1430:	b2 2e       	mov	r11, r18
    1432:	2a e0       	ldi	r18, 0x0A	; 10
    1434:	30 e0       	ldi	r19, 0x00	; 0
    1436:	25 c0       	rjmp	.+74     	; 0x1482 <vfprintf+0x260>
    1438:	f2 2f       	mov	r31, r18
    143a:	f9 7f       	andi	r31, 0xF9	; 249
    143c:	bf 2e       	mov	r11, r31
    143e:	8f 36       	cpi	r24, 0x6F	; 111
    1440:	c1 f0       	breq	.+48     	; 0x1472 <vfprintf+0x250>
    1442:	18 f4       	brcc	.+6      	; 0x144a <vfprintf+0x228>
    1444:	88 35       	cpi	r24, 0x58	; 88
    1446:	79 f0       	breq	.+30     	; 0x1466 <vfprintf+0x244>
    1448:	b4 c0       	rjmp	.+360    	; 0x15b2 <vfprintf+0x390>
    144a:	80 37       	cpi	r24, 0x70	; 112
    144c:	19 f0       	breq	.+6      	; 0x1454 <vfprintf+0x232>
    144e:	88 37       	cpi	r24, 0x78	; 120
    1450:	21 f0       	breq	.+8      	; 0x145a <vfprintf+0x238>
    1452:	af c0       	rjmp	.+350    	; 0x15b2 <vfprintf+0x390>
    1454:	2f 2f       	mov	r18, r31
    1456:	20 61       	ori	r18, 0x10	; 16
    1458:	b2 2e       	mov	r11, r18
    145a:	b4 fe       	sbrs	r11, 4
    145c:	0d c0       	rjmp	.+26     	; 0x1478 <vfprintf+0x256>
    145e:	8b 2d       	mov	r24, r11
    1460:	84 60       	ori	r24, 0x04	; 4
    1462:	b8 2e       	mov	r11, r24
    1464:	09 c0       	rjmp	.+18     	; 0x1478 <vfprintf+0x256>
    1466:	24 ff       	sbrs	r18, 4
    1468:	0a c0       	rjmp	.+20     	; 0x147e <vfprintf+0x25c>
    146a:	9f 2f       	mov	r25, r31
    146c:	96 60       	ori	r25, 0x06	; 6
    146e:	b9 2e       	mov	r11, r25
    1470:	06 c0       	rjmp	.+12     	; 0x147e <vfprintf+0x25c>
    1472:	28 e0       	ldi	r18, 0x08	; 8
    1474:	30 e0       	ldi	r19, 0x00	; 0
    1476:	05 c0       	rjmp	.+10     	; 0x1482 <vfprintf+0x260>
    1478:	20 e1       	ldi	r18, 0x10	; 16
    147a:	30 e0       	ldi	r19, 0x00	; 0
    147c:	02 c0       	rjmp	.+4      	; 0x1482 <vfprintf+0x260>
    147e:	20 e1       	ldi	r18, 0x10	; 16
    1480:	32 e0       	ldi	r19, 0x02	; 2
    1482:	f8 01       	movw	r30, r16
    1484:	b7 fe       	sbrs	r11, 7
    1486:	07 c0       	rjmp	.+14     	; 0x1496 <vfprintf+0x274>
    1488:	60 81       	ld	r22, Z
    148a:	71 81       	ldd	r23, Z+1	; 0x01
    148c:	82 81       	ldd	r24, Z+2	; 0x02
    148e:	93 81       	ldd	r25, Z+3	; 0x03
    1490:	0c 5f       	subi	r16, 0xFC	; 252
    1492:	1f 4f       	sbci	r17, 0xFF	; 255
    1494:	06 c0       	rjmp	.+12     	; 0x14a2 <vfprintf+0x280>
    1496:	60 81       	ld	r22, Z
    1498:	71 81       	ldd	r23, Z+1	; 0x01
    149a:	80 e0       	ldi	r24, 0x00	; 0
    149c:	90 e0       	ldi	r25, 0x00	; 0
    149e:	0e 5f       	subi	r16, 0xFE	; 254
    14a0:	1f 4f       	sbci	r17, 0xFF	; 255
    14a2:	a4 01       	movw	r20, r8
    14a4:	0e 94 4e 0b 	call	0x169c	; 0x169c <__ultoa_invert>
    14a8:	a8 2e       	mov	r10, r24
    14aa:	a8 18       	sub	r10, r8
    14ac:	fb 2d       	mov	r31, r11
    14ae:	ff 77       	andi	r31, 0x7F	; 127
    14b0:	bf 2e       	mov	r11, r31
    14b2:	b6 fe       	sbrs	r11, 6
    14b4:	0b c0       	rjmp	.+22     	; 0x14cc <vfprintf+0x2aa>
    14b6:	2b 2d       	mov	r18, r11
    14b8:	2e 7f       	andi	r18, 0xFE	; 254
    14ba:	a5 14       	cp	r10, r5
    14bc:	50 f4       	brcc	.+20     	; 0x14d2 <vfprintf+0x2b0>
    14be:	b4 fe       	sbrs	r11, 4
    14c0:	0a c0       	rjmp	.+20     	; 0x14d6 <vfprintf+0x2b4>
    14c2:	b2 fc       	sbrc	r11, 2
    14c4:	08 c0       	rjmp	.+16     	; 0x14d6 <vfprintf+0x2b4>
    14c6:	2b 2d       	mov	r18, r11
    14c8:	2e 7e       	andi	r18, 0xEE	; 238
    14ca:	05 c0       	rjmp	.+10     	; 0x14d6 <vfprintf+0x2b4>
    14cc:	7a 2c       	mov	r7, r10
    14ce:	2b 2d       	mov	r18, r11
    14d0:	03 c0       	rjmp	.+6      	; 0x14d8 <vfprintf+0x2b6>
    14d2:	7a 2c       	mov	r7, r10
    14d4:	01 c0       	rjmp	.+2      	; 0x14d8 <vfprintf+0x2b6>
    14d6:	75 2c       	mov	r7, r5
    14d8:	24 ff       	sbrs	r18, 4
    14da:	0d c0       	rjmp	.+26     	; 0x14f6 <vfprintf+0x2d4>
    14dc:	fe 01       	movw	r30, r28
    14de:	ea 0d       	add	r30, r10
    14e0:	f1 1d       	adc	r31, r1
    14e2:	80 81       	ld	r24, Z
    14e4:	80 33       	cpi	r24, 0x30	; 48
    14e6:	11 f4       	brne	.+4      	; 0x14ec <vfprintf+0x2ca>
    14e8:	29 7e       	andi	r18, 0xE9	; 233
    14ea:	09 c0       	rjmp	.+18     	; 0x14fe <vfprintf+0x2dc>
    14ec:	22 ff       	sbrs	r18, 2
    14ee:	06 c0       	rjmp	.+12     	; 0x14fc <vfprintf+0x2da>
    14f0:	73 94       	inc	r7
    14f2:	73 94       	inc	r7
    14f4:	04 c0       	rjmp	.+8      	; 0x14fe <vfprintf+0x2dc>
    14f6:	82 2f       	mov	r24, r18
    14f8:	86 78       	andi	r24, 0x86	; 134
    14fa:	09 f0       	breq	.+2      	; 0x14fe <vfprintf+0x2dc>
    14fc:	73 94       	inc	r7
    14fe:	23 fd       	sbrc	r18, 3
    1500:	13 c0       	rjmp	.+38     	; 0x1528 <vfprintf+0x306>
    1502:	20 ff       	sbrs	r18, 0
    1504:	06 c0       	rjmp	.+12     	; 0x1512 <vfprintf+0x2f0>
    1506:	5a 2c       	mov	r5, r10
    1508:	73 14       	cp	r7, r3
    150a:	18 f4       	brcc	.+6      	; 0x1512 <vfprintf+0x2f0>
    150c:	53 0c       	add	r5, r3
    150e:	57 18       	sub	r5, r7
    1510:	73 2c       	mov	r7, r3
    1512:	73 14       	cp	r7, r3
    1514:	68 f4       	brcc	.+26     	; 0x1530 <vfprintf+0x30e>
    1516:	b7 01       	movw	r22, r14
    1518:	80 e2       	ldi	r24, 0x20	; 32
    151a:	90 e0       	ldi	r25, 0x00	; 0
    151c:	2c 87       	std	Y+12, r18	; 0x0c
    151e:	0e 94 1c 0b 	call	0x1638	; 0x1638 <fputc>
    1522:	73 94       	inc	r7
    1524:	2c 85       	ldd	r18, Y+12	; 0x0c
    1526:	f5 cf       	rjmp	.-22     	; 0x1512 <vfprintf+0x2f0>
    1528:	73 14       	cp	r7, r3
    152a:	10 f4       	brcc	.+4      	; 0x1530 <vfprintf+0x30e>
    152c:	37 18       	sub	r3, r7
    152e:	01 c0       	rjmp	.+2      	; 0x1532 <vfprintf+0x310>
    1530:	31 2c       	mov	r3, r1
    1532:	24 ff       	sbrs	r18, 4
    1534:	12 c0       	rjmp	.+36     	; 0x155a <vfprintf+0x338>
    1536:	b7 01       	movw	r22, r14
    1538:	80 e3       	ldi	r24, 0x30	; 48
    153a:	90 e0       	ldi	r25, 0x00	; 0
    153c:	2c 87       	std	Y+12, r18	; 0x0c
    153e:	0e 94 1c 0b 	call	0x1638	; 0x1638 <fputc>
    1542:	2c 85       	ldd	r18, Y+12	; 0x0c
    1544:	22 ff       	sbrs	r18, 2
    1546:	17 c0       	rjmp	.+46     	; 0x1576 <vfprintf+0x354>
    1548:	21 ff       	sbrs	r18, 1
    154a:	03 c0       	rjmp	.+6      	; 0x1552 <vfprintf+0x330>
    154c:	88 e5       	ldi	r24, 0x58	; 88
    154e:	90 e0       	ldi	r25, 0x00	; 0
    1550:	02 c0       	rjmp	.+4      	; 0x1556 <vfprintf+0x334>
    1552:	88 e7       	ldi	r24, 0x78	; 120
    1554:	90 e0       	ldi	r25, 0x00	; 0
    1556:	b7 01       	movw	r22, r14
    1558:	0c c0       	rjmp	.+24     	; 0x1572 <vfprintf+0x350>
    155a:	82 2f       	mov	r24, r18
    155c:	86 78       	andi	r24, 0x86	; 134
    155e:	59 f0       	breq	.+22     	; 0x1576 <vfprintf+0x354>
    1560:	21 fd       	sbrc	r18, 1
    1562:	02 c0       	rjmp	.+4      	; 0x1568 <vfprintf+0x346>
    1564:	80 e2       	ldi	r24, 0x20	; 32
    1566:	01 c0       	rjmp	.+2      	; 0x156a <vfprintf+0x348>
    1568:	8b e2       	ldi	r24, 0x2B	; 43
    156a:	27 fd       	sbrc	r18, 7
    156c:	8d e2       	ldi	r24, 0x2D	; 45
    156e:	b7 01       	movw	r22, r14
    1570:	90 e0       	ldi	r25, 0x00	; 0
    1572:	0e 94 1c 0b 	call	0x1638	; 0x1638 <fputc>
    1576:	a5 14       	cp	r10, r5
    1578:	38 f4       	brcc	.+14     	; 0x1588 <vfprintf+0x366>
    157a:	b7 01       	movw	r22, r14
    157c:	80 e3       	ldi	r24, 0x30	; 48
    157e:	90 e0       	ldi	r25, 0x00	; 0
    1580:	0e 94 1c 0b 	call	0x1638	; 0x1638 <fputc>
    1584:	5a 94       	dec	r5
    1586:	f7 cf       	rjmp	.-18     	; 0x1576 <vfprintf+0x354>
    1588:	aa 94       	dec	r10
    158a:	f4 01       	movw	r30, r8
    158c:	ea 0d       	add	r30, r10
    158e:	f1 1d       	adc	r31, r1
    1590:	80 81       	ld	r24, Z
    1592:	b7 01       	movw	r22, r14
    1594:	90 e0       	ldi	r25, 0x00	; 0
    1596:	0e 94 1c 0b 	call	0x1638	; 0x1638 <fputc>
    159a:	a1 10       	cpse	r10, r1
    159c:	f5 cf       	rjmp	.-22     	; 0x1588 <vfprintf+0x366>
    159e:	33 20       	and	r3, r3
    15a0:	09 f4       	brne	.+2      	; 0x15a4 <vfprintf+0x382>
    15a2:	51 ce       	rjmp	.-862    	; 0x1246 <vfprintf+0x24>
    15a4:	b7 01       	movw	r22, r14
    15a6:	80 e2       	ldi	r24, 0x20	; 32
    15a8:	90 e0       	ldi	r25, 0x00	; 0
    15aa:	0e 94 1c 0b 	call	0x1638	; 0x1638 <fputc>
    15ae:	3a 94       	dec	r3
    15b0:	f6 cf       	rjmp	.-20     	; 0x159e <vfprintf+0x37c>
    15b2:	f7 01       	movw	r30, r14
    15b4:	86 81       	ldd	r24, Z+6	; 0x06
    15b6:	97 81       	ldd	r25, Z+7	; 0x07
    15b8:	02 c0       	rjmp	.+4      	; 0x15be <vfprintf+0x39c>
    15ba:	8f ef       	ldi	r24, 0xFF	; 255
    15bc:	9f ef       	ldi	r25, 0xFF	; 255
    15be:	2c 96       	adiw	r28, 0x0c	; 12
    15c0:	e2 e1       	ldi	r30, 0x12	; 18
    15c2:	0c 94 c8 0b 	jmp	0x1790	; 0x1790 <__epilogue_restores__>

000015c6 <calloc>:
    15c6:	0f 93       	push	r16
    15c8:	1f 93       	push	r17
    15ca:	cf 93       	push	r28
    15cc:	df 93       	push	r29
    15ce:	86 9f       	mul	r24, r22
    15d0:	80 01       	movw	r16, r0
    15d2:	87 9f       	mul	r24, r23
    15d4:	10 0d       	add	r17, r0
    15d6:	96 9f       	mul	r25, r22
    15d8:	10 0d       	add	r17, r0
    15da:	11 24       	eor	r1, r1
    15dc:	c8 01       	movw	r24, r16
    15de:	0e 94 5e 07 	call	0xebc	; 0xebc <malloc>
    15e2:	ec 01       	movw	r28, r24
    15e4:	00 97       	sbiw	r24, 0x00	; 0
    15e6:	29 f0       	breq	.+10     	; 0x15f2 <calloc+0x2c>
    15e8:	a8 01       	movw	r20, r16
    15ea:	60 e0       	ldi	r22, 0x00	; 0
    15ec:	70 e0       	ldi	r23, 0x00	; 0
    15ee:	0e 94 0a 0b 	call	0x1614	; 0x1614 <memset>
    15f2:	ce 01       	movw	r24, r28
    15f4:	df 91       	pop	r29
    15f6:	cf 91       	pop	r28
    15f8:	1f 91       	pop	r17
    15fa:	0f 91       	pop	r16
    15fc:	08 95       	ret

000015fe <strnlen_P>:
    15fe:	fc 01       	movw	r30, r24
    1600:	05 90       	lpm	r0, Z+
    1602:	61 50       	subi	r22, 0x01	; 1
    1604:	70 40       	sbci	r23, 0x00	; 0
    1606:	01 10       	cpse	r0, r1
    1608:	d8 f7       	brcc	.-10     	; 0x1600 <strnlen_P+0x2>
    160a:	80 95       	com	r24
    160c:	90 95       	com	r25
    160e:	8e 0f       	add	r24, r30
    1610:	9f 1f       	adc	r25, r31
    1612:	08 95       	ret

00001614 <memset>:
    1614:	dc 01       	movw	r26, r24
    1616:	01 c0       	rjmp	.+2      	; 0x161a <memset+0x6>
    1618:	6d 93       	st	X+, r22
    161a:	41 50       	subi	r20, 0x01	; 1
    161c:	50 40       	sbci	r21, 0x00	; 0
    161e:	e0 f7       	brcc	.-8      	; 0x1618 <memset+0x4>
    1620:	08 95       	ret

00001622 <strnlen>:
    1622:	fc 01       	movw	r30, r24
    1624:	61 50       	subi	r22, 0x01	; 1
    1626:	70 40       	sbci	r23, 0x00	; 0
    1628:	01 90       	ld	r0, Z+
    162a:	01 10       	cpse	r0, r1
    162c:	d8 f7       	brcc	.-10     	; 0x1624 <strnlen+0x2>
    162e:	80 95       	com	r24
    1630:	90 95       	com	r25
    1632:	8e 0f       	add	r24, r30
    1634:	9f 1f       	adc	r25, r31
    1636:	08 95       	ret

00001638 <fputc>:
    1638:	0f 93       	push	r16
    163a:	1f 93       	push	r17
    163c:	cf 93       	push	r28
    163e:	df 93       	push	r29
    1640:	18 2f       	mov	r17, r24
    1642:	09 2f       	mov	r16, r25
    1644:	eb 01       	movw	r28, r22
    1646:	8b 81       	ldd	r24, Y+3	; 0x03
    1648:	81 fd       	sbrc	r24, 1
    164a:	03 c0       	rjmp	.+6      	; 0x1652 <fputc+0x1a>
    164c:	8f ef       	ldi	r24, 0xFF	; 255
    164e:	9f ef       	ldi	r25, 0xFF	; 255
    1650:	20 c0       	rjmp	.+64     	; 0x1692 <fputc+0x5a>
    1652:	82 ff       	sbrs	r24, 2
    1654:	10 c0       	rjmp	.+32     	; 0x1676 <fputc+0x3e>
    1656:	4e 81       	ldd	r20, Y+6	; 0x06
    1658:	5f 81       	ldd	r21, Y+7	; 0x07
    165a:	2c 81       	ldd	r18, Y+4	; 0x04
    165c:	3d 81       	ldd	r19, Y+5	; 0x05
    165e:	42 17       	cp	r20, r18
    1660:	53 07       	cpc	r21, r19
    1662:	7c f4       	brge	.+30     	; 0x1682 <fputc+0x4a>
    1664:	e8 81       	ld	r30, Y
    1666:	f9 81       	ldd	r31, Y+1	; 0x01
    1668:	9f 01       	movw	r18, r30
    166a:	2f 5f       	subi	r18, 0xFF	; 255
    166c:	3f 4f       	sbci	r19, 0xFF	; 255
    166e:	39 83       	std	Y+1, r19	; 0x01
    1670:	28 83       	st	Y, r18
    1672:	10 83       	st	Z, r17
    1674:	06 c0       	rjmp	.+12     	; 0x1682 <fputc+0x4a>
    1676:	e8 85       	ldd	r30, Y+8	; 0x08
    1678:	f9 85       	ldd	r31, Y+9	; 0x09
    167a:	81 2f       	mov	r24, r17
    167c:	09 95       	icall
    167e:	89 2b       	or	r24, r25
    1680:	29 f7       	brne	.-54     	; 0x164c <fputc+0x14>
    1682:	2e 81       	ldd	r18, Y+6	; 0x06
    1684:	3f 81       	ldd	r19, Y+7	; 0x07
    1686:	2f 5f       	subi	r18, 0xFF	; 255
    1688:	3f 4f       	sbci	r19, 0xFF	; 255
    168a:	3f 83       	std	Y+7, r19	; 0x07
    168c:	2e 83       	std	Y+6, r18	; 0x06
    168e:	81 2f       	mov	r24, r17
    1690:	90 2f       	mov	r25, r16
    1692:	df 91       	pop	r29
    1694:	cf 91       	pop	r28
    1696:	1f 91       	pop	r17
    1698:	0f 91       	pop	r16
    169a:	08 95       	ret

0000169c <__ultoa_invert>:
    169c:	fa 01       	movw	r30, r20
    169e:	aa 27       	eor	r26, r26
    16a0:	28 30       	cpi	r18, 0x08	; 8
    16a2:	51 f1       	breq	.+84     	; 0x16f8 <__ultoa_invert+0x5c>
    16a4:	20 31       	cpi	r18, 0x10	; 16
    16a6:	81 f1       	breq	.+96     	; 0x1708 <__ultoa_invert+0x6c>
    16a8:	e8 94       	clt
    16aa:	6f 93       	push	r22
    16ac:	6e 7f       	andi	r22, 0xFE	; 254
    16ae:	6e 5f       	subi	r22, 0xFE	; 254
    16b0:	7f 4f       	sbci	r23, 0xFF	; 255
    16b2:	8f 4f       	sbci	r24, 0xFF	; 255
    16b4:	9f 4f       	sbci	r25, 0xFF	; 255
    16b6:	af 4f       	sbci	r26, 0xFF	; 255
    16b8:	b1 e0       	ldi	r27, 0x01	; 1
    16ba:	3e d0       	rcall	.+124    	; 0x1738 <__ultoa_invert+0x9c>
    16bc:	b4 e0       	ldi	r27, 0x04	; 4
    16be:	3c d0       	rcall	.+120    	; 0x1738 <__ultoa_invert+0x9c>
    16c0:	67 0f       	add	r22, r23
    16c2:	78 1f       	adc	r23, r24
    16c4:	89 1f       	adc	r24, r25
    16c6:	9a 1f       	adc	r25, r26
    16c8:	a1 1d       	adc	r26, r1
    16ca:	68 0f       	add	r22, r24
    16cc:	79 1f       	adc	r23, r25
    16ce:	8a 1f       	adc	r24, r26
    16d0:	91 1d       	adc	r25, r1
    16d2:	a1 1d       	adc	r26, r1
    16d4:	6a 0f       	add	r22, r26
    16d6:	71 1d       	adc	r23, r1
    16d8:	81 1d       	adc	r24, r1
    16da:	91 1d       	adc	r25, r1
    16dc:	a1 1d       	adc	r26, r1
    16de:	20 d0       	rcall	.+64     	; 0x1720 <__ultoa_invert+0x84>
    16e0:	09 f4       	brne	.+2      	; 0x16e4 <__ultoa_invert+0x48>
    16e2:	68 94       	set
    16e4:	3f 91       	pop	r19
    16e6:	2a e0       	ldi	r18, 0x0A	; 10
    16e8:	26 9f       	mul	r18, r22
    16ea:	11 24       	eor	r1, r1
    16ec:	30 19       	sub	r19, r0
    16ee:	30 5d       	subi	r19, 0xD0	; 208
    16f0:	31 93       	st	Z+, r19
    16f2:	de f6       	brtc	.-74     	; 0x16aa <__ultoa_invert+0xe>
    16f4:	cf 01       	movw	r24, r30
    16f6:	08 95       	ret
    16f8:	46 2f       	mov	r20, r22
    16fa:	47 70       	andi	r20, 0x07	; 7
    16fc:	40 5d       	subi	r20, 0xD0	; 208
    16fe:	41 93       	st	Z+, r20
    1700:	b3 e0       	ldi	r27, 0x03	; 3
    1702:	0f d0       	rcall	.+30     	; 0x1722 <__ultoa_invert+0x86>
    1704:	c9 f7       	brne	.-14     	; 0x16f8 <__ultoa_invert+0x5c>
    1706:	f6 cf       	rjmp	.-20     	; 0x16f4 <__ultoa_invert+0x58>
    1708:	46 2f       	mov	r20, r22
    170a:	4f 70       	andi	r20, 0x0F	; 15
    170c:	40 5d       	subi	r20, 0xD0	; 208
    170e:	4a 33       	cpi	r20, 0x3A	; 58
    1710:	18 f0       	brcs	.+6      	; 0x1718 <__ultoa_invert+0x7c>
    1712:	49 5d       	subi	r20, 0xD9	; 217
    1714:	31 fd       	sbrc	r19, 1
    1716:	40 52       	subi	r20, 0x20	; 32
    1718:	41 93       	st	Z+, r20
    171a:	02 d0       	rcall	.+4      	; 0x1720 <__ultoa_invert+0x84>
    171c:	a9 f7       	brne	.-22     	; 0x1708 <__ultoa_invert+0x6c>
    171e:	ea cf       	rjmp	.-44     	; 0x16f4 <__ultoa_invert+0x58>
    1720:	b4 e0       	ldi	r27, 0x04	; 4
    1722:	a6 95       	lsr	r26
    1724:	97 95       	ror	r25
    1726:	87 95       	ror	r24
    1728:	77 95       	ror	r23
    172a:	67 95       	ror	r22
    172c:	ba 95       	dec	r27
    172e:	c9 f7       	brne	.-14     	; 0x1722 <__ultoa_invert+0x86>
    1730:	00 97       	sbiw	r24, 0x00	; 0
    1732:	61 05       	cpc	r22, r1
    1734:	71 05       	cpc	r23, r1
    1736:	08 95       	ret
    1738:	9b 01       	movw	r18, r22
    173a:	ac 01       	movw	r20, r24
    173c:	0a 2e       	mov	r0, r26
    173e:	06 94       	lsr	r0
    1740:	57 95       	ror	r21
    1742:	47 95       	ror	r20
    1744:	37 95       	ror	r19
    1746:	27 95       	ror	r18
    1748:	ba 95       	dec	r27
    174a:	c9 f7       	brne	.-14     	; 0x173e <__ultoa_invert+0xa2>
    174c:	62 0f       	add	r22, r18
    174e:	73 1f       	adc	r23, r19
    1750:	84 1f       	adc	r24, r20
    1752:	95 1f       	adc	r25, r21
    1754:	a0 1d       	adc	r26, r0
    1756:	08 95       	ret

00001758 <__prologue_saves__>:
    1758:	2f 92       	push	r2
    175a:	3f 92       	push	r3
    175c:	4f 92       	push	r4
    175e:	5f 92       	push	r5
    1760:	6f 92       	push	r6
    1762:	7f 92       	push	r7
    1764:	8f 92       	push	r8
    1766:	9f 92       	push	r9
    1768:	af 92       	push	r10
    176a:	bf 92       	push	r11
    176c:	cf 92       	push	r12
    176e:	df 92       	push	r13
    1770:	ef 92       	push	r14
    1772:	ff 92       	push	r15
    1774:	0f 93       	push	r16
    1776:	1f 93       	push	r17
    1778:	cf 93       	push	r28
    177a:	df 93       	push	r29
    177c:	cd b7       	in	r28, 0x3d	; 61
    177e:	de b7       	in	r29, 0x3e	; 62
    1780:	ca 1b       	sub	r28, r26
    1782:	db 0b       	sbc	r29, r27
    1784:	0f b6       	in	r0, 0x3f	; 63
    1786:	f8 94       	cli
    1788:	de bf       	out	0x3e, r29	; 62
    178a:	0f be       	out	0x3f, r0	; 63
    178c:	cd bf       	out	0x3d, r28	; 61
    178e:	09 94       	ijmp

00001790 <__epilogue_restores__>:
    1790:	2a 88       	ldd	r2, Y+18	; 0x12
    1792:	39 88       	ldd	r3, Y+17	; 0x11
    1794:	48 88       	ldd	r4, Y+16	; 0x10
    1796:	5f 84       	ldd	r5, Y+15	; 0x0f
    1798:	6e 84       	ldd	r6, Y+14	; 0x0e
    179a:	7d 84       	ldd	r7, Y+13	; 0x0d
    179c:	8c 84       	ldd	r8, Y+12	; 0x0c
    179e:	9b 84       	ldd	r9, Y+11	; 0x0b
    17a0:	aa 84       	ldd	r10, Y+10	; 0x0a
    17a2:	b9 84       	ldd	r11, Y+9	; 0x09
    17a4:	c8 84       	ldd	r12, Y+8	; 0x08
    17a6:	df 80       	ldd	r13, Y+7	; 0x07
    17a8:	ee 80       	ldd	r14, Y+6	; 0x06
    17aa:	fd 80       	ldd	r15, Y+5	; 0x05
    17ac:	0c 81       	ldd	r16, Y+4	; 0x04
    17ae:	1b 81       	ldd	r17, Y+3	; 0x03
    17b0:	aa 81       	ldd	r26, Y+2	; 0x02
    17b2:	b9 81       	ldd	r27, Y+1	; 0x01
    17b4:	ce 0f       	add	r28, r30
    17b6:	d1 1d       	adc	r29, r1
    17b8:	0f b6       	in	r0, 0x3f	; 63
    17ba:	f8 94       	cli
    17bc:	de bf       	out	0x3e, r29	; 62
    17be:	0f be       	out	0x3f, r0	; 63
    17c0:	cd bf       	out	0x3d, r28	; 61
    17c2:	ed 01       	movw	r28, r26
    17c4:	08 95       	ret

000017c6 <_exit>:
    17c6:	f8 94       	cli

000017c8 <__stop_program>:
    17c8:	ff cf       	rjmp	.-2      	; 0x17c8 <__stop_program>
