
ping_pong.elf:     file format elf32-avr

Sections:
Idx Name          Size      VMA       LMA       File off  Algn
  0 .data         0000014c  00800100  00001cfa  00001d8e  2**0
                  CONTENTS, ALLOC, LOAD, DATA
  1 .text         00001cfa  00000000  00000000  00000094  2**1
                  CONTENTS, ALLOC, LOAD, READONLY, CODE
  2 .bss          00000012  0080024c  0080024c  00001eda  2**0
                  ALLOC
  3 .comment      0000005c  00000000  00000000  00001eda  2**0
                  CONTENTS, READONLY
  4 .debug_aranges 00000270  00000000  00000000  00001f36  2**0
                  CONTENTS, READONLY, DEBUGGING
  5 .debug_info   0000226d  00000000  00000000  000021a6  2**0
                  CONTENTS, READONLY, DEBUGGING
  6 .debug_abbrev 00000d1d  00000000  00000000  00004413  2**0
                  CONTENTS, READONLY, DEBUGGING
  7 .debug_line   00000c31  00000000  00000000  00005130  2**0
                  CONTENTS, READONLY, DEBUGGING
  8 .debug_frame  000005f8  00000000  00000000  00005d64  2**2
                  CONTENTS, READONLY, DEBUGGING
  9 .debug_str    00000709  00000000  00000000  0000635c  2**0
                  CONTENTS, READONLY, DEBUGGING
 10 .debug_loc    0000132d  00000000  00000000  00006a65  2**0
                  CONTENTS, READONLY, DEBUGGING
 11 .debug_ranges 00000210  00000000  00000000  00007d92  2**0
                  CONTENTS, READONLY, DEBUGGING

Disassembly of section .text:

00000000 <__vectors>:
       0:	0c 94 b4 01 	jmp	0x368	; 0x368 <__ctors_end>
       4:	0c 94 41 03 	jmp	0x682	; 0x682 <__vector_1>
       8:	0c 94 d1 01 	jmp	0x3a2	; 0x3a2 <__bad_interrupt>
       c:	0c 94 d0 07 	jmp	0xfa0	; 0xfa0 <__vector_3>
      10:	0c 94 d1 01 	jmp	0x3a2	; 0x3a2 <__bad_interrupt>
      14:	0c 94 d1 01 	jmp	0x3a2	; 0x3a2 <__bad_interrupt>
      18:	0c 94 d1 01 	jmp	0x3a2	; 0x3a2 <__bad_interrupt>
      1c:	0c 94 d1 01 	jmp	0x3a2	; 0x3a2 <__bad_interrupt>
      20:	0c 94 d1 01 	jmp	0x3a2	; 0x3a2 <__bad_interrupt>
      24:	0c 94 d1 01 	jmp	0x3a2	; 0x3a2 <__bad_interrupt>
      28:	0c 94 d1 01 	jmp	0x3a2	; 0x3a2 <__bad_interrupt>
      2c:	0c 94 d1 01 	jmp	0x3a2	; 0x3a2 <__bad_interrupt>
      30:	0c 94 d1 01 	jmp	0x3a2	; 0x3a2 <__bad_interrupt>
      34:	0c 94 d1 01 	jmp	0x3a2	; 0x3a2 <__bad_interrupt>
      38:	0c 94 d1 01 	jmp	0x3a2	; 0x3a2 <__bad_interrupt>
      3c:	0c 94 d1 01 	jmp	0x3a2	; 0x3a2 <__bad_interrupt>
      40:	0c 94 d1 01 	jmp	0x3a2	; 0x3a2 <__bad_interrupt>
      44:	0c 94 d1 01 	jmp	0x3a2	; 0x3a2 <__bad_interrupt>
      48:	0c 94 d1 01 	jmp	0x3a2	; 0x3a2 <__bad_interrupt>
      4c:	0c 94 d1 01 	jmp	0x3a2	; 0x3a2 <__bad_interrupt>
      50:	0c 94 d1 01 	jmp	0x3a2	; 0x3a2 <__bad_interrupt>
      54:	0c 94 d1 01 	jmp	0x3a2	; 0x3a2 <__bad_interrupt>
      58:	0c 94 d1 01 	jmp	0x3a2	; 0x3a2 <__bad_interrupt>
      5c:	0c 94 d1 01 	jmp	0x3a2	; 0x3a2 <__bad_interrupt>
      60:	0c 94 d1 01 	jmp	0x3a2	; 0x3a2 <__bad_interrupt>
      64:	0c 94 d1 01 	jmp	0x3a2	; 0x3a2 <__bad_interrupt>
      68:	0c 94 d1 01 	jmp	0x3a2	; 0x3a2 <__bad_interrupt>
      6c:	0c 94 d1 01 	jmp	0x3a2	; 0x3a2 <__bad_interrupt>

00000070 <__trampolines_end>:
	...
      78:	00 06       	cpc	r0, r16
      7a:	5f 5f       	subi	r21, 0xFF	; 255
      7c:	06 00       	.word	0x0006	; ????
      7e:	00 00       	nop
      80:	00 07       	cpc	r16, r16
      82:	07 00       	.word	0x0007	; ????
      84:	07 07       	cpc	r16, r23
      86:	00 00       	nop
      88:	14 7f       	andi	r17, 0xF4	; 244
      8a:	7f 14       	cp	r7, r15
      8c:	7f 7f       	andi	r23, 0xFF	; 255
      8e:	14 00       	.word	0x0014	; ????
      90:	24 2e       	mov	r2, r20
      92:	6b 6b       	ori	r22, 0xBB	; 187
      94:	3a 12       	cpse	r3, r26
      96:	00 00       	nop
      98:	46 66       	ori	r20, 0x66	; 102
      9a:	30 18       	sub	r3, r0
      9c:	0c 66       	ori	r16, 0x6C	; 108
      9e:	62 00       	.word	0x0062	; ????
      a0:	30 7a       	andi	r19, 0xA0	; 160
      a2:	4f 5d       	subi	r20, 0xDF	; 223
      a4:	37 7a       	andi	r19, 0xA7	; 167
      a6:	48 00       	.word	0x0048	; ????
      a8:	04 07       	cpc	r16, r20
      aa:	03 00       	.word	0x0003	; ????
      ac:	00 00       	nop
      ae:	00 00       	nop
      b0:	00 1c       	adc	r0, r0
      b2:	3e 63       	ori	r19, 0x3E	; 62
      b4:	41 00       	.word	0x0041	; ????
      b6:	00 00       	nop
      b8:	00 41       	sbci	r16, 0x10	; 16
      ba:	63 3e       	cpi	r22, 0xE3	; 227
      bc:	1c 00       	.word	0x001c	; ????
      be:	00 00       	nop
      c0:	08 2a       	or	r0, r24
      c2:	3e 1c       	adc	r3, r14
      c4:	1c 3e       	cpi	r17, 0xEC	; 236
      c6:	2a 08       	sbc	r2, r10
      c8:	08 08       	sbc	r0, r8
      ca:	3e 3e       	cpi	r19, 0xEE	; 238
      cc:	08 08       	sbc	r0, r8
      ce:	00 00       	nop
      d0:	00 a0       	ldd	r0, Z+32	; 0x20
      d2:	e0 60       	ori	r30, 0x00	; 0
      d4:	00 00       	nop
      d6:	00 00       	nop
      d8:	08 08       	sbc	r0, r8
      da:	08 08       	sbc	r0, r8
      dc:	08 08       	sbc	r0, r8
      de:	00 00       	nop
      e0:	00 00       	nop
      e2:	60 60       	ori	r22, 0x00	; 0
      e4:	00 00       	nop
      e6:	00 00       	nop
      e8:	60 30       	cpi	r22, 0x00	; 0
      ea:	18 0c       	add	r1, r8
      ec:	06 03       	mulsu	r16, r22
      ee:	01 00       	.word	0x0001	; ????
      f0:	3e 7f       	andi	r19, 0xFE	; 254
      f2:	59 4d       	sbci	r21, 0xD9	; 217
      f4:	7f 3e       	cpi	r23, 0xEF	; 239
      f6:	00 00       	nop
      f8:	42 42       	sbci	r20, 0x22	; 34
      fa:	7f 7f       	andi	r23, 0xFF	; 255
      fc:	40 40       	sbci	r20, 0x00	; 0
      fe:	00 00       	nop
     100:	62 73       	andi	r22, 0x32	; 50
     102:	59 49       	sbci	r21, 0x99	; 153
     104:	6f 66       	ori	r22, 0x6F	; 111
     106:	00 00       	nop
     108:	22 63       	ori	r18, 0x32	; 50
     10a:	49 49       	sbci	r20, 0x99	; 153
     10c:	7f 36       	cpi	r23, 0x6F	; 111
     10e:	00 00       	nop
     110:	18 1c       	adc	r1, r8
     112:	16 13       	cpse	r17, r22
     114:	7f 7f       	andi	r23, 0xFF	; 255
     116:	10 00       	.word	0x0010	; ????
     118:	27 67       	ori	r18, 0x77	; 119
     11a:	45 45       	sbci	r20, 0x55	; 85
     11c:	7d 39       	cpi	r23, 0x9D	; 157
     11e:	00 00       	nop
     120:	3c 7e       	andi	r19, 0xEC	; 236
     122:	4b 49       	sbci	r20, 0x9B	; 155
     124:	79 30       	cpi	r23, 0x09	; 9
     126:	00 00       	nop
     128:	03 63       	ori	r16, 0x33	; 51
     12a:	71 19       	sub	r23, r1
     12c:	0f 07       	cpc	r16, r31
     12e:	00 00       	nop
     130:	36 7f       	andi	r19, 0xF6	; 246
     132:	49 49       	sbci	r20, 0x99	; 153
     134:	7f 36       	cpi	r23, 0x6F	; 111
     136:	00 00       	nop
     138:	06 4f       	sbci	r16, 0xF6	; 246
     13a:	49 69       	ori	r20, 0x99	; 153
     13c:	3f 1e       	adc	r3, r31
     13e:	00 00       	nop
     140:	00 00       	nop
     142:	6c 6c       	ori	r22, 0xCC	; 204
     144:	00 00       	nop
     146:	00 00       	nop
     148:	00 a0       	ldd	r0, Z+32	; 0x20
     14a:	ec 6c       	ori	r30, 0xCC	; 204
     14c:	00 00       	nop
     14e:	00 00       	nop
     150:	08 1c       	adc	r0, r8
     152:	36 63       	ori	r19, 0x36	; 54
     154:	41 00       	.word	0x0041	; ????
     156:	00 00       	nop
     158:	14 14       	cp	r1, r4
     15a:	14 14       	cp	r1, r4
     15c:	14 14       	cp	r1, r4
     15e:	00 00       	nop
     160:	00 41       	sbci	r16, 0x10	; 16
     162:	63 36       	cpi	r22, 0x63	; 99
     164:	1c 08       	sbc	r1, r12
     166:	00 00       	nop
     168:	02 03       	mulsu	r16, r18
     16a:	51 59       	subi	r21, 0x91	; 145
     16c:	0f 06       	cpc	r0, r31
     16e:	00 00       	nop
     170:	3e 7f       	andi	r19, 0xFE	; 254
     172:	41 5d       	subi	r20, 0xD1	; 209
     174:	5d 1f       	adc	r21, r29
     176:	1e 00       	.word	0x001e	; ????
     178:	7c 7e       	andi	r23, 0xEC	; 236
     17a:	13 13       	cpse	r17, r19
     17c:	7e 7c       	andi	r23, 0xCE	; 206
     17e:	00 00       	nop
     180:	41 7f       	andi	r20, 0xF1	; 241
     182:	7f 49       	sbci	r23, 0x9F	; 159
     184:	49 7f       	andi	r20, 0xF9	; 249
     186:	36 00       	.word	0x0036	; ????
     188:	1c 3e       	cpi	r17, 0xEC	; 236
     18a:	63 41       	sbci	r22, 0x13	; 19
     18c:	41 63       	ori	r20, 0x31	; 49
     18e:	22 00       	.word	0x0022	; ????
     190:	41 7f       	andi	r20, 0xF1	; 241
     192:	7f 41       	sbci	r23, 0x1F	; 31
     194:	63 7f       	andi	r22, 0xF3	; 243
     196:	1c 00       	.word	0x001c	; ????
     198:	41 7f       	andi	r20, 0xF1	; 241
     19a:	7f 49       	sbci	r23, 0x9F	; 159
     19c:	5d 41       	sbci	r21, 0x1D	; 29
     19e:	63 00       	.word	0x0063	; ????
     1a0:	41 7f       	andi	r20, 0xF1	; 241
     1a2:	7f 49       	sbci	r23, 0x9F	; 159
     1a4:	1d 01       	movw	r2, r26
     1a6:	03 00       	.word	0x0003	; ????
     1a8:	1c 3e       	cpi	r17, 0xEC	; 236
     1aa:	63 41       	sbci	r22, 0x13	; 19
     1ac:	51 73       	andi	r21, 0x31	; 49
     1ae:	72 00       	.word	0x0072	; ????
     1b0:	7f 7f       	andi	r23, 0xFF	; 255
     1b2:	08 08       	sbc	r0, r8
     1b4:	7f 7f       	andi	r23, 0xFF	; 255
     1b6:	00 00       	nop
     1b8:	00 41       	sbci	r16, 0x10	; 16
     1ba:	7f 7f       	andi	r23, 0xFF	; 255
     1bc:	41 00       	.word	0x0041	; ????
     1be:	00 00       	nop
     1c0:	30 70       	andi	r19, 0x00	; 0
     1c2:	40 41       	sbci	r20, 0x10	; 16
     1c4:	7f 3f       	cpi	r23, 0xFF	; 255
     1c6:	01 00       	.word	0x0001	; ????
     1c8:	41 7f       	andi	r20, 0xF1	; 241
     1ca:	7f 08       	sbc	r7, r15
     1cc:	1c 77       	andi	r17, 0x7C	; 124
     1ce:	63 00       	.word	0x0063	; ????
     1d0:	41 7f       	andi	r20, 0xF1	; 241
     1d2:	7f 41       	sbci	r23, 0x1F	; 31
     1d4:	40 60       	ori	r20, 0x00	; 0
     1d6:	70 00       	.word	0x0070	; ????
     1d8:	7f 7f       	andi	r23, 0xFF	; 255
     1da:	06 0c       	add	r0, r6
     1dc:	06 7f       	andi	r16, 0xF6	; 246
     1de:	7f 00       	.word	0x007f	; ????
     1e0:	7f 7f       	andi	r23, 0xFF	; 255
     1e2:	06 0c       	add	r0, r6
     1e4:	18 7f       	andi	r17, 0xF8	; 248
     1e6:	7f 00       	.word	0x007f	; ????
     1e8:	1c 3e       	cpi	r17, 0xEC	; 236
     1ea:	63 41       	sbci	r22, 0x13	; 19
     1ec:	63 3e       	cpi	r22, 0xE3	; 227
     1ee:	1c 00       	.word	0x001c	; ????
     1f0:	41 7f       	andi	r20, 0xF1	; 241
     1f2:	7f 49       	sbci	r23, 0x9F	; 159
     1f4:	09 0f       	add	r16, r25
     1f6:	06 00       	.word	0x0006	; ????
     1f8:	1e 3f       	cpi	r17, 0xFE	; 254
     1fa:	21 71       	andi	r18, 0x11	; 17
     1fc:	7f 5e       	subi	r23, 0xEF	; 239
     1fe:	00 00       	nop
     200:	41 7f       	andi	r20, 0xF1	; 241
     202:	7f 19       	sub	r23, r15
     204:	39 6f       	ori	r19, 0xF9	; 249
     206:	46 00       	.word	0x0046	; ????
     208:	26 67       	ori	r18, 0x76	; 118
     20a:	4d 59       	subi	r20, 0x9D	; 157
     20c:	7b 32       	cpi	r23, 0x2B	; 43
     20e:	00 00       	nop
     210:	03 41       	sbci	r16, 0x13	; 19
     212:	7f 7f       	andi	r23, 0xFF	; 255
     214:	41 03       	mulsu	r20, r17
     216:	00 00       	nop
     218:	7f 7f       	andi	r23, 0xFF	; 255
     21a:	40 40       	sbci	r20, 0x00	; 0
     21c:	7f 7f       	andi	r23, 0xFF	; 255
     21e:	00 00       	nop
     220:	1f 3f       	cpi	r17, 0xFF	; 255
     222:	60 60       	ori	r22, 0x00	; 0
     224:	3f 1f       	adc	r19, r31
     226:	00 00       	nop
     228:	7f 7f       	andi	r23, 0xFF	; 255
     22a:	30 18       	sub	r3, r0
     22c:	30 7f       	andi	r19, 0xF0	; 240
     22e:	7f 00       	.word	0x007f	; ????
     230:	63 77       	andi	r22, 0x73	; 115
     232:	1c 08       	sbc	r1, r12
     234:	1c 77       	andi	r17, 0x7C	; 124
     236:	63 00       	.word	0x0063	; ????
     238:	07 4f       	sbci	r16, 0xF7	; 247
     23a:	78 78       	andi	r23, 0x88	; 136
     23c:	4f 07       	cpc	r20, r31
     23e:	00 00       	nop
     240:	67 73       	andi	r22, 0x37	; 55
     242:	59 4d       	sbci	r21, 0xD9	; 217
     244:	47 63       	ori	r20, 0x37	; 55
     246:	71 00       	.word	0x0071	; ????
     248:	00 7f       	andi	r16, 0xF0	; 240
     24a:	7f 41       	sbci	r23, 0x1F	; 31
     24c:	41 00       	.word	0x0041	; ????
     24e:	00 00       	nop
     250:	01 03       	mulsu	r16, r17
     252:	06 0c       	add	r0, r6
     254:	18 30       	cpi	r17, 0x08	; 8
     256:	60 00       	.word	0x0060	; ????
     258:	00 41       	sbci	r16, 0x10	; 16
     25a:	41 7f       	andi	r20, 0xF1	; 241
     25c:	7f 00       	.word	0x007f	; ????
     25e:	00 00       	nop
     260:	08 0c       	add	r0, r8
     262:	06 03       	mulsu	r16, r22
     264:	06 0c       	add	r0, r6
     266:	08 00       	.word	0x0008	; ????
     268:	80 80       	ld	r8, Z
     26a:	80 80       	ld	r8, Z
     26c:	80 80       	ld	r8, Z
     26e:	80 80       	ld	r8, Z
     270:	00 00       	nop
     272:	03 07       	cpc	r16, r19
     274:	04 00       	.word	0x0004	; ????
     276:	00 00       	nop
     278:	20 74       	andi	r18, 0x40	; 64
     27a:	54 54       	subi	r21, 0x44	; 68
     27c:	3c 78       	andi	r19, 0x8C	; 140
     27e:	40 00       	.word	0x0040	; ????
     280:	41 3f       	cpi	r20, 0xF1	; 241
     282:	7f 44       	sbci	r23, 0x4F	; 79
     284:	44 7c       	andi	r20, 0xC4	; 196
     286:	38 00       	.word	0x0038	; ????
     288:	38 7c       	andi	r19, 0xC8	; 200
     28a:	44 44       	sbci	r20, 0x44	; 68
     28c:	6c 28       	or	r6, r12
     28e:	00 00       	nop
     290:	30 78       	andi	r19, 0x80	; 128
     292:	48 49       	sbci	r20, 0x98	; 152
     294:	3f 7f       	andi	r19, 0xFF	; 255
     296:	40 00       	.word	0x0040	; ????
     298:	38 7c       	andi	r19, 0xC8	; 200
     29a:	54 54       	subi	r21, 0x44	; 68
     29c:	5c 18       	sub	r5, r12
     29e:	00 00       	nop
     2a0:	48 7e       	andi	r20, 0xE8	; 232
     2a2:	7f 49       	sbci	r23, 0x9F	; 159
     2a4:	03 02       	muls	r16, r19
     2a6:	00 00       	nop
     2a8:	98 bc       	out	0x28, r9	; 40
     2aa:	a4 a4       	ldd	r10, Z+44	; 0x2c
     2ac:	f8 7c       	andi	r31, 0xC8	; 200
     2ae:	04 00       	.word	0x0004	; ????
     2b0:	41 7f       	andi	r20, 0xF1	; 241
     2b2:	7f 08       	sbc	r7, r15
     2b4:	04 7c       	andi	r16, 0xC4	; 196
     2b6:	78 00       	.word	0x0078	; ????
     2b8:	00 44       	sbci	r16, 0x40	; 64
     2ba:	7d 7d       	andi	r23, 0xDD	; 221
     2bc:	40 00       	.word	0x0040	; ????
     2be:	00 00       	nop
     2c0:	40 c4       	rjmp	.+2176   	; 0xb42 <oled_goto_column+0x1e>
     2c2:	84 fd       	sbrc	r24, 4
     2c4:	7d 00       	.word	0x007d	; ????
     2c6:	00 00       	nop
     2c8:	41 7f       	andi	r20, 0xF1	; 241
     2ca:	7f 10       	cpse	r7, r15
     2cc:	38 6c       	ori	r19, 0xC8	; 200
     2ce:	44 00       	.word	0x0044	; ????
     2d0:	00 41       	sbci	r16, 0x10	; 16
     2d2:	7f 7f       	andi	r23, 0xFF	; 255
     2d4:	40 00       	.word	0x0040	; ????
     2d6:	00 00       	nop
     2d8:	7c 7c       	andi	r23, 0xCC	; 204
     2da:	0c 18       	sub	r0, r12
     2dc:	0c 7c       	andi	r16, 0xCC	; 204
     2de:	78 00       	.word	0x0078	; ????
     2e0:	7c 7c       	andi	r23, 0xCC	; 204
     2e2:	04 04       	cpc	r0, r4
     2e4:	7c 78       	andi	r23, 0x8C	; 140
     2e6:	00 00       	nop
     2e8:	38 7c       	andi	r19, 0xC8	; 200
     2ea:	44 44       	sbci	r20, 0x44	; 68
     2ec:	7c 38       	cpi	r23, 0x8C	; 140
     2ee:	00 00       	nop
     2f0:	84 fc       	sbrc	r8, 4
     2f2:	f8 a4       	ldd	r15, Y+40	; 0x28
     2f4:	24 3c       	cpi	r18, 0xC4	; 196
     2f6:	18 00       	.word	0x0018	; ????
     2f8:	18 3c       	cpi	r17, 0xC8	; 200
     2fa:	24 a4       	ldd	r2, Z+44	; 0x2c
     2fc:	f8 fc       	.word	0xfcf8	; ????
     2fe:	84 00       	.word	0x0084	; ????
     300:	44 7c       	andi	r20, 0xC4	; 196
     302:	78 44       	sbci	r23, 0x48	; 72
     304:	1c 18       	sub	r1, r12
     306:	00 00       	nop
     308:	48 5c       	subi	r20, 0xC8	; 200
     30a:	54 54       	subi	r21, 0x44	; 68
     30c:	74 24       	eor	r7, r4
     30e:	00 00       	nop
     310:	00 04       	cpc	r0, r0
     312:	3e 7f       	andi	r19, 0xFE	; 254
     314:	44 24       	eor	r4, r4
     316:	00 00       	nop
     318:	3c 7c       	andi	r19, 0xCC	; 204
     31a:	40 40       	sbci	r20, 0x00	; 0
     31c:	3c 7c       	andi	r19, 0xCC	; 204
     31e:	40 00       	.word	0x0040	; ????
     320:	1c 3c       	cpi	r17, 0xCC	; 204
     322:	60 60       	ori	r22, 0x00	; 0
     324:	3c 1c       	adc	r3, r12
     326:	00 00       	nop
     328:	3c 7c       	andi	r19, 0xCC	; 204
     32a:	60 30       	cpi	r22, 0x00	; 0
     32c:	60 7c       	andi	r22, 0xC0	; 192
     32e:	3c 00       	.word	0x003c	; ????
     330:	44 6c       	ori	r20, 0xC4	; 196
     332:	38 10       	cpse	r3, r8
     334:	38 6c       	ori	r19, 0xC8	; 200
     336:	44 00       	.word	0x0044	; ????
     338:	9c bc       	out	0x2c, r9	; 44
     33a:	a0 a0       	ldd	r10, Z+32	; 0x20
     33c:	fc 7c       	andi	r31, 0xCC	; 204
     33e:	00 00       	nop
     340:	4c 64       	ori	r20, 0x4C	; 76
     342:	74 5c       	subi	r23, 0xC4	; 196
     344:	4c 64       	ori	r20, 0x4C	; 76
     346:	00 00       	nop
     348:	08 08       	sbc	r0, r8
     34a:	3e 77       	andi	r19, 0x7E	; 126
     34c:	41 41       	sbci	r20, 0x11	; 17
     34e:	00 00       	nop
     350:	00 00       	nop
     352:	00 77       	andi	r16, 0x70	; 112
     354:	77 00       	.word	0x0077	; ????
     356:	00 00       	nop
     358:	41 41       	sbci	r20, 0x11	; 17
     35a:	77 3e       	cpi	r23, 0xE7	; 231
     35c:	08 08       	sbc	r0, r8
     35e:	00 00       	nop
     360:	02 03       	mulsu	r16, r18
     362:	01 03       	mulsu	r16, r17
     364:	02 03       	mulsu	r16, r18
     366:	01 00       	.word	0x0001	; ????

00000368 <__ctors_end>:
     368:	11 24       	eor	r1, r1
     36a:	1f be       	out	0x3f, r1	; 63
     36c:	cf ef       	ldi	r28, 0xFF	; 255
     36e:	d4 e0       	ldi	r29, 0x04	; 4
     370:	de bf       	out	0x3e, r29	; 62
     372:	cd bf       	out	0x3d, r28	; 61

00000374 <__do_copy_data>:
     374:	12 e0       	ldi	r17, 0x02	; 2
     376:	a0 e0       	ldi	r26, 0x00	; 0
     378:	b1 e0       	ldi	r27, 0x01	; 1
     37a:	ea ef       	ldi	r30, 0xFA	; 250
     37c:	fc e1       	ldi	r31, 0x1C	; 28
     37e:	02 c0       	rjmp	.+4      	; 0x384 <__do_copy_data+0x10>
     380:	05 90       	lpm	r0, Z+
     382:	0d 92       	st	X+, r0
     384:	ac 34       	cpi	r26, 0x4C	; 76
     386:	b1 07       	cpc	r27, r17
     388:	d9 f7       	brne	.-10     	; 0x380 <__do_copy_data+0xc>

0000038a <__do_clear_bss>:
     38a:	22 e0       	ldi	r18, 0x02	; 2
     38c:	ac e4       	ldi	r26, 0x4C	; 76
     38e:	b2 e0       	ldi	r27, 0x02	; 2
     390:	01 c0       	rjmp	.+2      	; 0x394 <.do_clear_bss_start>

00000392 <.do_clear_bss_loop>:
     392:	1d 92       	st	X+, r1

00000394 <.do_clear_bss_start>:
     394:	ae 35       	cpi	r26, 0x5E	; 94
     396:	b2 07       	cpc	r27, r18
     398:	e1 f7       	brne	.-8      	; 0x392 <.do_clear_bss_loop>
     39a:	0e 94 aa 06 	call	0xd54	; 0xd54 <main>
     39e:	0c 94 7b 0e 	jmp	0x1cf6	; 0x1cf6 <_exit>

000003a2 <__bad_interrupt>:
     3a2:	0c 94 00 00 	jmp	0	; 0x0 <__vectors>

000003a6 <ADC_init>:

extern volatile uint8_t ADC_ready;

int ADC_init(void) {
	// Interrupt on rising edge PE0
	EMCUCR |= (1<<ISC2);
     3a6:	86 b7       	in	r24, 0x36	; 54
     3a8:	81 60       	ori	r24, 0x01	; 1
     3aa:	86 bf       	out	0x36, r24	; 54

	// Enable interrupt on PE0
	GICR |= (1<<INT2);
     3ac:	8b b7       	in	r24, 0x3b	; 59
     3ae:	80 62       	ori	r24, 0x20	; 32
     3b0:	8b bf       	out	0x3b, r24	; 59
	
	// Button input
	clr_bit(DDRE, PE0);
     3b2:	30 98       	cbi	0x06, 0	; 6
	
	//Enable the external memory interface/4 bits address
	MCUCR |= (1<<SRE);
     3b4:	85 b7       	in	r24, 0x35	; 53
     3b6:	80 68       	ori	r24, 0x80	; 128
     3b8:	85 bf       	out	0x35, r24	; 53
	SFIOR |= (1<<XMM2);
     3ba:	80 b7       	in	r24, 0x30	; 48
     3bc:	80 62       	ori	r24, 0x20	; 32
     3be:	80 bf       	out	0x30, r24	; 48
	
	//Set the interrupt pin to input
	DDRE &= ~(1<<PINE0);
     3c0:	30 98       	cbi	0x06, 0	; 6

	//set button pins to input
	clr_bit(DDRB, DDB0);
     3c2:	b8 98       	cbi	0x17, 0	; 23
	clr_bit(DDRB, DDB1);
     3c4:	b9 98       	cbi	0x17, 1	; 23
	
	//set joystick button to input
	clr_bit(DDRB, DDB2);
     3c6:	ba 98       	cbi	0x17, 2	; 23
	return 0;
}
     3c8:	80 e0       	ldi	r24, 0x00	; 0
     3ca:	90 e0       	ldi	r25, 0x00	; 0
     3cc:	08 95       	ret

000003ce <ADC_read>:
uint8_t ADC_read(uint8_t channel) {
	//Address for the ADC
	volatile char *adc = (char *) 0x1400;
	
	//Choose channel in ADC
	*adc = 0x04 | channel;
     3ce:	84 60       	ori	r24, 0x04	; 4
     3d0:	80 93 00 14 	sts	0x1400, r24
	while(!ADC_ready);
     3d4:	80 91 4f 02 	lds	r24, 0x024F
     3d8:	88 23       	and	r24, r24
     3da:	e1 f3       	breq	.-8      	; 0x3d4 <ADC_read+0x6>
		
	return *adc;
     3dc:	80 91 00 14 	lds	r24, 0x1400
}
     3e0:	08 95       	ret

000003e2 <CAN_init>:
#include <util/delay.h>
#include <stdio.h>

extern volatile uint8_t rx_int_flag; 

int CAN_init(){
     3e2:	cf 93       	push	r28
     3e4:	df 93       	push	r29
     3e6:	1f 92       	push	r1
     3e8:	cd b7       	in	r28, 0x3d	; 61
     3ea:	de b7       	in	r29, 0x3e	; 62
	volatile uint8_t value;
	
	//config-mode
	MCP2515_init();
     3ec:	0e 94 71 03 	call	0x6e2	; 0x6e2 <MCP2515_init>
	#else
		//round up by default
		__ticks_dc = (uint32_t)(ceil(fabs(__tmp)));
	#endif

	__builtin_avr_delay_cycles(__ticks_dc);
     3f0:	89 ef       	ldi	r24, 0xF9	; 249
     3f2:	90 e0       	ldi	r25, 0x00	; 0
     3f4:	01 97       	sbiw	r24, 0x01	; 1
     3f6:	f1 f7       	brne	.-4      	; 0x3f4 <CAN_init+0x12>
     3f8:	00 c0       	rjmp	.+0      	; 0x3fa <CAN_init+0x18>
     3fa:	00 00       	nop
	//enable interrupts in MCP
	//Interrupt when message received in RXB0
		
	
	
	value = MCP2515_read(MCP_CANSTAT);
     3fc:	8e e0       	ldi	r24, 0x0E	; 14
     3fe:	0e 94 76 03 	call	0x6ec	; 0x6ec <MCP2515_read>
     402:	89 83       	std	Y+1, r24	; 0x01
	if ((value & MODE_MASK) != MODE_CONFIG) {
     404:	89 81       	ldd	r24, Y+1	; 0x01
     406:	80 7e       	andi	r24, 0xE0	; 224
     408:	80 38       	cpi	r24, 0x80	; 128
     40a:	39 f0       	breq	.+14     	; 0x41a <CAN_init+0x38>
		printf("MCP2515 is NOT in config mode after reset!\n");
     40c:	8f e0       	ldi	r24, 0x0F	; 15
     40e:	91 e0       	ldi	r25, 0x01	; 1
     410:	0e 94 7c 0b 	call	0x16f8	; 0x16f8 <puts>
		return 1;
     414:	81 e0       	ldi	r24, 0x01	; 1
     416:	90 e0       	ldi	r25, 0x00	; 0
     418:	24 c0       	rjmp	.+72     	; 0x462 <CAN_init+0x80>
	}
	
	MCP2515_bit_modify(MCP_CANINTE, 0x01, 0x01);
     41a:	41 e0       	ldi	r20, 0x01	; 1
     41c:	61 e0       	ldi	r22, 0x01	; 1
     41e:	8b e2       	ldi	r24, 0x2B	; 43
     420:	0e 94 af 03 	call	0x75e	; 0x75e <MCP2515_bit_modify>
	MCP2515_bit_modify(MCP_RXB0CTRL, 0x60, 0xFF);
     424:	4f ef       	ldi	r20, 0xFF	; 255
     426:	60 e6       	ldi	r22, 0x60	; 96
     428:	80 e6       	ldi	r24, 0x60	; 96
     42a:	0e 94 af 03 	call	0x75e	; 0x75e <MCP2515_bit_modify>
	
	//Set loopback-mode
	MCP2515_bit_modify(MCP_CANCTRL, MODE_MASK , MODE_LOOPBACK);
     42e:	40 e4       	ldi	r20, 0x40	; 64
     430:	60 ee       	ldi	r22, 0xE0	; 224
     432:	8f e0       	ldi	r24, 0x0F	; 15
     434:	0e 94 af 03 	call	0x75e	; 0x75e <MCP2515_bit_modify>
	value = MCP2515_read(MCP_CANSTAT);
     438:	8e e0       	ldi	r24, 0x0E	; 14
     43a:	0e 94 76 03 	call	0x6ec	; 0x6ec <MCP2515_read>
     43e:	89 83       	std	Y+1, r24	; 0x01
	if ((value & MODE_MASK) != MODE_LOOPBACK) {
     440:	89 81       	ldd	r24, Y+1	; 0x01
     442:	80 7e       	andi	r24, 0xE0	; 224
     444:	80 34       	cpi	r24, 0x40	; 64
     446:	39 f0       	breq	.+14     	; 0x456 <CAN_init+0x74>
		printf("MCP2515 is NOT in loopback mode!\n");
     448:	8a e3       	ldi	r24, 0x3A	; 58
     44a:	91 e0       	ldi	r25, 0x01	; 1
     44c:	0e 94 7c 0b 	call	0x16f8	; 0x16f8 <puts>
		return 1;
     450:	81 e0       	ldi	r24, 0x01	; 1
     452:	90 e0       	ldi	r25, 0x00	; 0
     454:	06 c0       	rjmp	.+12     	; 0x462 <CAN_init+0x80>
	}
	printf("Successfully initialize CAN\n");
     456:	8b e5       	ldi	r24, 0x5B	; 91
     458:	91 e0       	ldi	r25, 0x01	; 1
     45a:	0e 94 7c 0b 	call	0x16f8	; 0x16f8 <puts>
	return 0;
     45e:	80 e0       	ldi	r24, 0x00	; 0
     460:	90 e0       	ldi	r25, 0x00	; 0
}
     462:	0f 90       	pop	r0
     464:	df 91       	pop	r29
     466:	cf 91       	pop	r28
     468:	08 95       	ret

0000046a <CAN_transmit_complete>:
		
	}
}

int CAN_transmit_complete(){
	if ( test_bit(MCP2515_read(MCP_TXB0CTRL), 3)){
     46a:	80 e3       	ldi	r24, 0x30	; 48
     46c:	0e 94 76 03 	call	0x6ec	; 0x6ec <MCP2515_read>
     470:	86 95       	lsr	r24
     472:	86 95       	lsr	r24
     474:	86 95       	lsr	r24
     476:	91 e0       	ldi	r25, 0x01	; 1
     478:	89 27       	eor	r24, r25
		return 0;
	}
	return 1;
}
     47a:	81 70       	andi	r24, 0x01	; 1
     47c:	90 e0       	ldi	r25, 0x00	; 0
     47e:	08 95       	ret

00000480 <CAN_send>:
	printf("Successfully initialize CAN\n");
	return 0;
}


void CAN_send(Message* msg){
     480:	ef 92       	push	r14
     482:	ff 92       	push	r15
     484:	0f 93       	push	r16
     486:	1f 93       	push	r17
     488:	cf 93       	push	r28
     48a:	df 93       	push	r29
     48c:	7c 01       	movw	r14, r24
	if(CAN_transmit_complete()){
     48e:	0e 94 35 02 	call	0x46a	; 0x46a <CAN_transmit_complete>
     492:	89 2b       	or	r24, r25
     494:	d9 f1       	breq	.+118    	; 0x50c <__stack+0xd>
		
		//sending ID
		MCP2515_write(MCP_TXB0SIDH, (uint8_t)msg->ID >> 3);
     496:	f7 01       	movw	r30, r14
     498:	60 81       	ld	r22, Z
     49a:	66 95       	lsr	r22
     49c:	66 95       	lsr	r22
     49e:	66 95       	lsr	r22
     4a0:	81 e3       	ldi	r24, 0x31	; 49
     4a2:	0e 94 89 03 	call	0x712	; 0x712 <MCP2515_write>
		MCP2515_write(MCP_TXB0SIDL, (uint8_t)msg->ID << 5);
     4a6:	f7 01       	movw	r30, r14
     4a8:	60 81       	ld	r22, Z
     4aa:	62 95       	swap	r22
     4ac:	66 0f       	add	r22, r22
     4ae:	60 7e       	andi	r22, 0xE0	; 224
     4b0:	82 e3       	ldi	r24, 0x32	; 50
     4b2:	0e 94 89 03 	call	0x712	; 0x712 <MCP2515_write>
	
		//sending data length
		MCP2515_write(MCP_TXB0DLC, msg->length & 0x0F);
     4b6:	f7 01       	movw	r30, r14
     4b8:	62 81       	ldd	r22, Z+2	; 0x02
     4ba:	6f 70       	andi	r22, 0x0F	; 15
     4bc:	85 e3       	ldi	r24, 0x35	; 53
     4be:	0e 94 89 03 	call	0x712	; 0x712 <MCP2515_write>
	
		//Sending data, max 8 bytes
		if(msg->length > 8){
     4c2:	f7 01       	movw	r30, r14
     4c4:	82 81       	ldd	r24, Z+2	; 0x02
     4c6:	93 81       	ldd	r25, Z+3	; 0x03
     4c8:	89 30       	cpi	r24, 0x09	; 9
     4ca:	91 05       	cpc	r25, r1
     4cc:	54 f0       	brlt	.+20     	; 0x4e2 <CAN_send+0x62>
			msg->length = 8;
     4ce:	88 e0       	ldi	r24, 0x08	; 8
     4d0:	90 e0       	ldi	r25, 0x00	; 0
     4d2:	93 83       	std	Z+3, r25	; 0x03
     4d4:	82 83       	std	Z+2, r24	; 0x02
     4d6:	87 01       	movw	r16, r14
     4d8:	0c 5f       	subi	r16, 0xFC	; 252
     4da:	1f 4f       	sbci	r17, 0xFF	; 255
	printf("Successfully initialize CAN\n");
	return 0;
}


void CAN_send(Message* msg){
     4dc:	c0 e0       	ldi	r28, 0x00	; 0
     4de:	d0 e0       	ldi	r29, 0x00	; 0
     4e0:	04 c0       	rjmp	.+8      	; 0x4ea <CAN_send+0x6a>
	
		//Sending data, max 8 bytes
		if(msg->length > 8){
			msg->length = 8;
		}
		for (int i = 0; i < msg->length; i++){
     4e2:	18 16       	cp	r1, r24
     4e4:	19 06       	cpc	r1, r25
     4e6:	bc f3       	brlt	.-18     	; 0x4d6 <CAN_send+0x56>
     4e8:	0e c0       	rjmp	.+28     	; 0x506 <__stack+0x7>
			MCP2515_write(MCP_TXB0D0 + i, msg->data[i]);  
     4ea:	f8 01       	movw	r30, r16
     4ec:	61 91       	ld	r22, Z+
     4ee:	8f 01       	movw	r16, r30
     4f0:	8c 2f       	mov	r24, r28
     4f2:	8a 5c       	subi	r24, 0xCA	; 202
     4f4:	0e 94 89 03 	call	0x712	; 0x712 <MCP2515_write>
	
		//Sending data, max 8 bytes
		if(msg->length > 8){
			msg->length = 8;
		}
		for (int i = 0; i < msg->length; i++){
     4f8:	21 96       	adiw	r28, 0x01	; 1
     4fa:	f7 01       	movw	r30, r14
     4fc:	22 81       	ldd	r18, Z+2	; 0x02
     4fe:	33 81       	ldd	r19, Z+3	; 0x03
     500:	c2 17       	cp	r28, r18
     502:	d3 07       	cpc	r29, r19
     504:	94 f3       	brlt	.-28     	; 0x4ea <CAN_send+0x6a>
			MCP2515_write(MCP_TXB0D0 + i, msg->data[i]);  
		}
	
		//initiate message transmission
		
		MCP2515_request_to_send(1);
     506:	81 e0       	ldi	r24, 0x01	; 1
     508:	0e 94 9d 03 	call	0x73a	; 0x73a <MCP2515_request_to_send>
		
	}
}
     50c:	df 91       	pop	r29
     50e:	cf 91       	pop	r28
     510:	1f 91       	pop	r17
     512:	0f 91       	pop	r16
     514:	ff 90       	pop	r15
     516:	ef 90       	pop	r14
     518:	08 95       	ret

0000051a <CAN_recieve>:
		return 0;
	}
	return 1;
}

Message CAN_recieve(){
     51a:	3f 92       	push	r3
     51c:	4f 92       	push	r4
     51e:	5f 92       	push	r5
     520:	6f 92       	push	r6
     522:	7f 92       	push	r7
     524:	8f 92       	push	r8
     526:	9f 92       	push	r9
     528:	af 92       	push	r10
     52a:	bf 92       	push	r11
     52c:	cf 92       	push	r12
     52e:	df 92       	push	r13
     530:	ef 92       	push	r14
     532:	ff 92       	push	r15
     534:	0f 93       	push	r16
     536:	1f 93       	push	r17
     538:	cf 93       	push	r28
     53a:	df 93       	push	r29
     53c:	cd b7       	in	r28, 0x3d	; 61
     53e:	de b7       	in	r29, 0x3e	; 62
     540:	2c 97       	sbiw	r28, 0x0c	; 12
     542:	0f b6       	in	r0, 0x3f	; 63
     544:	f8 94       	cli
     546:	de bf       	out	0x3e, r29	; 62
     548:	0f be       	out	0x3f, r0	; 63
     54a:	cd bf       	out	0x3d, r28	; 61
     54c:	3c 01       	movw	r6, r24
	Message msg; 
		
	
	msg.ID = (MCP2515_read(MCP_RXB0SIDH) << 3 | MCP2515_read(MCP_RXB0SIDL) >> 5);
     54e:	81 e6       	ldi	r24, 0x61	; 97
     550:	0e 94 76 03 	call	0x6ec	; 0x6ec <MCP2515_read>
     554:	48 2e       	mov	r4, r24
     556:	82 e6       	ldi	r24, 0x62	; 98
     558:	0e 94 76 03 	call	0x6ec	; 0x6ec <MCP2515_read>
     55c:	82 95       	swap	r24
     55e:	86 95       	lsr	r24
     560:	87 70       	andi	r24, 0x07	; 7
     562:	51 2c       	mov	r5, r1
     564:	44 0c       	add	r4, r4
     566:	55 1c       	adc	r5, r5
     568:	44 0c       	add	r4, r4
     56a:	55 1c       	adc	r5, r5
     56c:	44 0c       	add	r4, r4
     56e:	55 1c       	adc	r5, r5
     570:	48 2a       	or	r4, r24
	msg.length = MCP2515_read(MCP_RXB0DLC) & 0x0F;
     572:	85 e6       	ldi	r24, 0x65	; 101
     574:	0e 94 76 03 	call	0x6ec	; 0x6ec <MCP2515_read>
     578:	8f 70       	andi	r24, 0x0F	; 15
     57a:	88 2e       	mov	r8, r24
     57c:	91 2c       	mov	r9, r1
	printf("length %d \n", msg.length);
     57e:	1f 92       	push	r1
     580:	8f 93       	push	r24
     582:	87 e7       	ldi	r24, 0x77	; 119
     584:	91 e0       	ldi	r25, 0x01	; 1
     586:	9f 93       	push	r25
     588:	8f 93       	push	r24
     58a:	0e 94 68 0b 	call	0x16d0	; 0x16d0 <printf>
     58e:	0f 90       	pop	r0
     590:	0f 90       	pop	r0
     592:	0f 90       	pop	r0
     594:	0f 90       	pop	r0
     596:	89 e0       	ldi	r24, 0x09	; 9
     598:	88 16       	cp	r8, r24
     59a:	91 04       	cpc	r9, r1
     59c:	24 f0       	brlt	.+8      	; 0x5a6 <CAN_recieve+0x8c>
     59e:	68 94       	set
     5a0:	88 24       	eor	r8, r8
     5a2:	83 f8       	bld	r8, 3
     5a4:	91 2c       	mov	r9, r1
	if(msg.length > 8){
		msg.length = 8;
	}
	for (int i = 0; i < msg.length ; i++){
     5a6:	18 14       	cp	r1, r8
     5a8:	19 04       	cpc	r1, r9
     5aa:	94 f5       	brge	.+100    	; 0x610 <CAN_recieve+0xf6>
     5ac:	8e 01       	movw	r16, r28
     5ae:	0b 5f       	subi	r16, 0xFB	; 251
     5b0:	1f 4f       	sbci	r17, 0xFF	; 255
     5b2:	58 01       	movw	r10, r16
     5b4:	a8 0c       	add	r10, r8
     5b6:	b9 1c       	adc	r11, r9
     5b8:	0f 2e       	mov	r0, r31
     5ba:	f6 e6       	ldi	r31, 0x66	; 102
     5bc:	3f 2e       	mov	r3, r31
     5be:	f0 2d       	mov	r31, r0
		msg.data[i] = MCP2515_read(MCP_RXB0DM + i);
		printf("Leser %c\n", msg.data[i]);
     5c0:	0f 2e       	mov	r0, r31
     5c2:	f3 e8       	ldi	r31, 0x83	; 131
     5c4:	cf 2e       	mov	r12, r31
     5c6:	f1 e0       	ldi	r31, 0x01	; 1
     5c8:	df 2e       	mov	r13, r31
     5ca:	f0 2d       	mov	r31, r0
		printf("msg.data = %c \n", msg.data[1]);
     5cc:	0f 2e       	mov	r0, r31
     5ce:	fd e8       	ldi	r31, 0x8D	; 141
     5d0:	ef 2e       	mov	r14, r31
     5d2:	f1 e0       	ldi	r31, 0x01	; 1
     5d4:	ff 2e       	mov	r15, r31
     5d6:	f0 2d       	mov	r31, r0
	printf("length %d \n", msg.length);
	if(msg.length > 8){
		msg.length = 8;
	}
	for (int i = 0; i < msg.length ; i++){
		msg.data[i] = MCP2515_read(MCP_RXB0DM + i);
     5d8:	83 2d       	mov	r24, r3
     5da:	0e 94 76 03 	call	0x6ec	; 0x6ec <MCP2515_read>
     5de:	f8 01       	movw	r30, r16
     5e0:	81 93       	st	Z+, r24
     5e2:	8f 01       	movw	r16, r30
		printf("Leser %c\n", msg.data[i]);
     5e4:	1f 92       	push	r1
     5e6:	8f 93       	push	r24
     5e8:	df 92       	push	r13
     5ea:	cf 92       	push	r12
     5ec:	0e 94 68 0b 	call	0x16d0	; 0x16d0 <printf>
		printf("msg.data = %c \n", msg.data[1]);
     5f0:	8e 81       	ldd	r24, Y+6	; 0x06
     5f2:	1f 92       	push	r1
     5f4:	8f 93       	push	r24
     5f6:	ff 92       	push	r15
     5f8:	ef 92       	push	r14
     5fa:	0e 94 68 0b 	call	0x16d0	; 0x16d0 <printf>
     5fe:	33 94       	inc	r3
	msg.length = MCP2515_read(MCP_RXB0DLC) & 0x0F;
	printf("length %d \n", msg.length);
	if(msg.length > 8){
		msg.length = 8;
	}
	for (int i = 0; i < msg.length ; i++){
     600:	0f b6       	in	r0, 0x3f	; 63
     602:	f8 94       	cli
     604:	de bf       	out	0x3e, r29	; 62
     606:	0f be       	out	0x3f, r0	; 63
     608:	cd bf       	out	0x3d, r28	; 61
     60a:	0a 15       	cp	r16, r10
     60c:	1b 05       	cpc	r17, r11
     60e:	21 f7       	brne	.-56     	; 0x5d8 <CAN_recieve+0xbe>
		msg.data[i] = MCP2515_read(MCP_RXB0DM + i);
		printf("Leser %c\n", msg.data[i]);
		printf("msg.data = %c \n", msg.data[1]);
	}
	rx_int_flag = 0;
     610:	10 92 4e 02 	sts	0x024E, r1
	
	return msg; 
     614:	5a 82       	std	Y+2, r5	; 0x02
     616:	49 82       	std	Y+1, r4	; 0x01
     618:	9c 82       	std	Y+4, r9	; 0x04
     61a:	8b 82       	std	Y+3, r8	; 0x03
     61c:	8c e0       	ldi	r24, 0x0C	; 12
     61e:	fe 01       	movw	r30, r28
     620:	31 96       	adiw	r30, 0x01	; 1
     622:	d3 01       	movw	r26, r6
     624:	01 90       	ld	r0, Z+
     626:	0d 92       	st	X+, r0
     628:	8a 95       	dec	r24
     62a:	e1 f7       	brne	.-8      	; 0x624 <CAN_recieve+0x10a>
}
     62c:	c3 01       	movw	r24, r6
     62e:	2c 96       	adiw	r28, 0x0c	; 12
     630:	0f b6       	in	r0, 0x3f	; 63
     632:	f8 94       	cli
     634:	de bf       	out	0x3e, r29	; 62
     636:	0f be       	out	0x3f, r0	; 63
     638:	cd bf       	out	0x3d, r28	; 61
     63a:	df 91       	pop	r29
     63c:	cf 91       	pop	r28
     63e:	1f 91       	pop	r17
     640:	0f 91       	pop	r16
     642:	ff 90       	pop	r15
     644:	ef 90       	pop	r14
     646:	df 90       	pop	r13
     648:	cf 90       	pop	r12
     64a:	bf 90       	pop	r11
     64c:	af 90       	pop	r10
     64e:	9f 90       	pop	r9
     650:	8f 90       	pop	r8
     652:	7f 90       	pop	r7
     654:	6f 90       	pop	r6
     656:	5f 90       	pop	r5
     658:	4f 90       	pop	r4
     65a:	3f 90       	pop	r3
     65c:	08 95       	ret

0000065e <CAN_int_vect>:
	return 0; 
}

void CAN_int_vect(){
	//set recieve flag to 0
	MCP2515_bit_modify(MCP_CANINTF, 0x01, 0x00);
     65e:	40 e0       	ldi	r20, 0x00	; 0
     660:	61 e0       	ldi	r22, 0x01	; 1
     662:	8c e2       	ldi	r24, 0x2C	; 44
     664:	0e 94 af 03 	call	0x75e	; 0x75e <MCP2515_bit_modify>
	//set transmit flag to 0 
	MCP2515_bit_modify(MCP_CANINTF, 0x04, 0x00);
     668:	40 e0       	ldi	r20, 0x00	; 0
     66a:	64 e0       	ldi	r22, 0x04	; 4
     66c:	8c e2       	ldi	r24, 0x2C	; 44
     66e:	0e 94 af 03 	call	0x75e	; 0x75e <MCP2515_bit_modify>
	rx_int_flag = 1;
     672:	81 e0       	ldi	r24, 0x01	; 1
     674:	80 93 4e 02 	sts	0x024E, r24
	printf("rx flag satt til 1\n");
     678:	8d e9       	ldi	r24, 0x9D	; 157
     67a:	91 e0       	ldi	r25, 0x01	; 1
     67c:	0e 94 7c 0b 	call	0x16f8	; 0x16f8 <puts>
     680:	08 95       	ret

00000682 <__vector_1>:
}

ISR(INT0_vect){
     682:	1f 92       	push	r1
     684:	0f 92       	push	r0
     686:	0f b6       	in	r0, 0x3f	; 63
     688:	0f 92       	push	r0
     68a:	11 24       	eor	r1, r1
     68c:	2f 93       	push	r18
     68e:	3f 93       	push	r19
     690:	4f 93       	push	r20
     692:	5f 93       	push	r21
     694:	6f 93       	push	r22
     696:	7f 93       	push	r23
     698:	8f 93       	push	r24
     69a:	9f 93       	push	r25
     69c:	af 93       	push	r26
     69e:	bf 93       	push	r27
     6a0:	ef 93       	push	r30
     6a2:	ff 93       	push	r31
	printf("int vektor\n");
     6a4:	80 eb       	ldi	r24, 0xB0	; 176
     6a6:	91 e0       	ldi	r25, 0x01	; 1
     6a8:	0e 94 7c 0b 	call	0x16f8	; 0x16f8 <puts>
	//RX0 interrupt flag set to 0
	CAN_int_vect();
     6ac:	0e 94 2f 03 	call	0x65e	; 0x65e <CAN_int_vect>
     6b0:	ff 91       	pop	r31
     6b2:	ef 91       	pop	r30
     6b4:	bf 91       	pop	r27
     6b6:	af 91       	pop	r26
     6b8:	9f 91       	pop	r25
     6ba:	8f 91       	pop	r24
     6bc:	7f 91       	pop	r23
     6be:	6f 91       	pop	r22
     6c0:	5f 91       	pop	r21
     6c2:	4f 91       	pop	r20
     6c4:	3f 91       	pop	r19
     6c6:	2f 91       	pop	r18
     6c8:	0f 90       	pop	r0
     6ca:	0f be       	out	0x3f, r0	; 63
     6cc:	0f 90       	pop	r0
     6ce:	1f 90       	pop	r1
     6d0:	18 95       	reti

000006d2 <MCP2515_reset>:
	//set MCP2515 in configuration mode
	MCP2515_reset(); 
}

void MCP2515_reset(void){
	SPI_activate_SS();
     6d2:	0e 94 8c 06 	call	0xd18	; 0xd18 <SPI_activate_SS>
	SPI_read_write(MCP_RESET);
     6d6:	80 ec       	ldi	r24, 0xC0	; 192
     6d8:	0e 94 87 06 	call	0xd0e	; 0xd0e <SPI_read_write>
	SPI_deactivate_SS();
     6dc:	0e 94 8e 06 	call	0xd1c	; 0xd1c <SPI_deactivate_SS>
     6e0:	08 95       	ret

000006e2 <MCP2515_init>:
#include "MCP2515.h"
#include "MCP2515_driver.h"
#include <string.h>

void MCP2515_init(void){
	SPI_init();
     6e2:	0e 94 90 06 	call	0xd20	; 0xd20 <SPI_init>
	//set MCP2515 in configuration mode
	MCP2515_reset(); 
     6e6:	0e 94 69 03 	call	0x6d2	; 0x6d2 <MCP2515_reset>
     6ea:	08 95       	ret

000006ec <MCP2515_read>:
	SPI_activate_SS();
	SPI_read_write(MCP_RESET);
	SPI_deactivate_SS();
}

uint8_t MCP2515_read(uint8_t address){
     6ec:	cf 93       	push	r28
     6ee:	c8 2f       	mov	r28, r24
	uint8_t data;
	SPI_activate_SS();
     6f0:	0e 94 8c 06 	call	0xd18	; 0xd18 <SPI_activate_SS>
	SPI_read_write(MCP_READ);
     6f4:	83 e0       	ldi	r24, 0x03	; 3
     6f6:	0e 94 87 06 	call	0xd0e	; 0xd0e <SPI_read_write>
	SPI_read_write(address);
     6fa:	8c 2f       	mov	r24, r28
     6fc:	0e 94 87 06 	call	0xd0e	; 0xd0e <SPI_read_write>
	data = SPI_read_write(0x00);
     700:	80 e0       	ldi	r24, 0x00	; 0
     702:	0e 94 87 06 	call	0xd0e	; 0xd0e <SPI_read_write>
     706:	c8 2f       	mov	r28, r24
	SPI_deactivate_SS();
     708:	0e 94 8e 06 	call	0xd1c	; 0xd1c <SPI_deactivate_SS>
	return data;
}
     70c:	8c 2f       	mov	r24, r28
     70e:	cf 91       	pop	r28
     710:	08 95       	ret

00000712 <MCP2515_write>:

void MCP2515_write(uint8_t address, char data){
     712:	cf 93       	push	r28
     714:	df 93       	push	r29
     716:	d8 2f       	mov	r29, r24
     718:	c6 2f       	mov	r28, r22
	SPI_activate_SS();
     71a:	0e 94 8c 06 	call	0xd18	; 0xd18 <SPI_activate_SS>
	SPI_read_write(MCP_WRITE);
     71e:	82 e0       	ldi	r24, 0x02	; 2
     720:	0e 94 87 06 	call	0xd0e	; 0xd0e <SPI_read_write>
	SPI_read_write(address);
     724:	8d 2f       	mov	r24, r29
     726:	0e 94 87 06 	call	0xd0e	; 0xd0e <SPI_read_write>
	SPI_read_write(data);
     72a:	8c 2f       	mov	r24, r28
     72c:	0e 94 87 06 	call	0xd0e	; 0xd0e <SPI_read_write>
	SPI_deactivate_SS();
     730:	0e 94 8e 06 	call	0xd1c	; 0xd1c <SPI_deactivate_SS>
}
     734:	df 91       	pop	r29
     736:	cf 91       	pop	r28
     738:	08 95       	ret

0000073a <MCP2515_request_to_send>:

 void MCP2515_request_to_send(uint8_t command){
     73a:	cf 93       	push	r28
     73c:	c8 2f       	mov	r28, r24
	SPI_activate_SS();
     73e:	0e 94 8c 06 	call	0xd18	; 0xd18 <SPI_activate_SS>
	if (command <= 7){
     742:	c8 30       	cpi	r28, 0x08	; 8
     744:	28 f4       	brcc	.+10     	; 0x750 <MCP2515_request_to_send+0x16>
		SPI_read_write(MCP_RTS | command);
     746:	8c 2f       	mov	r24, r28
     748:	80 68       	ori	r24, 0x80	; 128
     74a:	0e 94 87 06 	call	0xd0e	; 0xd0e <SPI_read_write>
     74e:	03 c0       	rjmp	.+6      	; 0x756 <MCP2515_request_to_send+0x1c>
	}
	else{
		SPI_read_write(MCP_RTS);
     750:	80 e8       	ldi	r24, 0x80	; 128
     752:	0e 94 87 06 	call	0xd0e	; 0xd0e <SPI_read_write>
	}
	SPI_deactivate_SS();
     756:	0e 94 8e 06 	call	0xd1c	; 0xd1c <SPI_deactivate_SS>
}
     75a:	cf 91       	pop	r28
     75c:	08 95       	ret

0000075e <MCP2515_bit_modify>:
	SPI_deactivate_SS();	
	return status;
}


void MCP2515_bit_modify(uint8_t address, uint8_t mask_byte, uint8_t data_byte){
     75e:	1f 93       	push	r17
     760:	cf 93       	push	r28
     762:	df 93       	push	r29
     764:	18 2f       	mov	r17, r24
     766:	d6 2f       	mov	r29, r22
     768:	c4 2f       	mov	r28, r20
	SPI_activate_SS();
     76a:	0e 94 8c 06 	call	0xd18	; 0xd18 <SPI_activate_SS>
	SPI_read_write(MCP_BITMOD);
     76e:	85 e0       	ldi	r24, 0x05	; 5
     770:	0e 94 87 06 	call	0xd0e	; 0xd0e <SPI_read_write>
	SPI_read_write(address);
     774:	81 2f       	mov	r24, r17
     776:	0e 94 87 06 	call	0xd0e	; 0xd0e <SPI_read_write>
	SPI_read_write(mask_byte);
     77a:	8d 2f       	mov	r24, r29
     77c:	0e 94 87 06 	call	0xd0e	; 0xd0e <SPI_read_write>
	SPI_read_write(data_byte);
     780:	8c 2f       	mov	r24, r28
     782:	0e 94 87 06 	call	0xd0e	; 0xd0e <SPI_read_write>
	SPI_deactivate_SS();
     786:	0e 94 8e 06 	call	0xd1c	; 0xd1c <SPI_deactivate_SS>
     78a:	df 91       	pop	r29
     78c:	cf 91       	pop	r28
     78e:	1f 91       	pop	r17
     790:	08 95       	ret

00000792 <UART_transmit>:

int UART_transmit(unsigned char data, FILE *stream){
	
	//Wait for empty transmit buffer
	
	while( !( UCSR0A & (1<<UDRE0)) );
     792:	5d 9b       	sbis	0x0b, 5	; 11
     794:	fe cf       	rjmp	.-4      	; 0x792 <UART_transmit>
 
	//Put data into buffer, sends the data
 
	UDR0 = data;
     796:	8c b9       	out	0x0c, r24	; 12
	return 0; 
}
     798:	80 e0       	ldi	r24, 0x00	; 0
     79a:	90 e0       	ldi	r25, 0x00	; 0
     79c:	08 95       	ret

0000079e <UART_receive>:

unsigned char UART_receive(){

	//Wait for data to be received

	while( !(UCSR0A & (1<<RXC0)) );
     79e:	5f 9b       	sbis	0x0b, 7	; 11
     7a0:	fe cf       	rjmp	.-4      	; 0x79e <UART_receive>
 
	//Get and return received data from buffer
 
	return UDR0;
     7a2:	8c b1       	in	r24, 0x0c	; 12
}
     7a4:	08 95       	ret

000007a6 <UART_init>:

int UART_init(unsigned int ubrr ){
/* 
Set baud rate
 */
	UBRR0L = ubrr;
     7a6:	89 b9       	out	0x09, r24	; 9

/* 
Enable receiver and transmitter
 */
	UCSR0B =(1<<RXEN0)|(1<<TXEN0);
     7a8:	88 e1       	ldi	r24, 0x18	; 24
     7aa:	8a b9       	out	0x0a, r24	; 10
	
	uart = fdevopen(&UART_transmit, &UART_receive);
     7ac:	6f ec       	ldi	r22, 0xCF	; 207
     7ae:	73 e0       	ldi	r23, 0x03	; 3
     7b0:	89 ec       	ldi	r24, 0xC9	; 201
     7b2:	93 e0       	ldi	r25, 0x03	; 3
     7b4:	0e 94 1d 0b 	call	0x163a	; 0x163a <fdevopen>
     7b8:	90 93 51 02 	sts	0x0251, r25
     7bc:	80 93 50 02 	sts	0x0250, r24
	
	return 0; 
}
     7c0:	80 e0       	ldi	r24, 0x00	; 0
     7c2:	90 e0       	ldi	r25, 0x00	; 0
     7c4:	08 95       	ret

000007c6 <joystick_read>:
#include <avr/io.h>
#include <avr/interrupt.h>
#include "bit_functions.h"


int joystick_read(int channel){
     7c6:	cf 92       	push	r12
     7c8:	df 92       	push	r13
     7ca:	ef 92       	push	r14
     7cc:	ff 92       	push	r15
	double pos = ADC_read(channel);
     7ce:	0e 94 e7 01 	call	0x3ce	; 0x3ce <ADC_read>
     7d2:	68 2f       	mov	r22, r24
     7d4:	70 e0       	ldi	r23, 0x00	; 0
     7d6:	80 e0       	ldi	r24, 0x00	; 0
     7d8:	90 e0       	ldi	r25, 0x00	; 0
     7da:	0e 94 e1 08 	call	0x11c2	; 0x11c2 <__floatunsisf>
     7de:	6b 01       	movw	r12, r22
     7e0:	7c 01       	movw	r14, r24

	if (pos < 132){
		double a = (100-(pos/(132)*100));
	}

	if (pos < 132){
     7e2:	20 e0       	ldi	r18, 0x00	; 0
     7e4:	30 e0       	ldi	r19, 0x00	; 0
     7e6:	44 e0       	ldi	r20, 0x04	; 4
     7e8:	53 e4       	ldi	r21, 0x43	; 67
     7ea:	0e 94 44 08 	call	0x1088	; 0x1088 <__cmpsf2>
     7ee:	88 23       	and	r24, r24
     7f0:	ec f4       	brge	.+58     	; 0x82c <joystick_read+0x66>
		double a = (100-(pos/(132)*100));
     7f2:	20 e0       	ldi	r18, 0x00	; 0
     7f4:	30 e0       	ldi	r19, 0x00	; 0
     7f6:	44 e0       	ldi	r20, 0x04	; 4
     7f8:	53 e4       	ldi	r21, 0x43	; 67
     7fa:	c7 01       	movw	r24, r14
     7fc:	b6 01       	movw	r22, r12
     7fe:	0e 94 48 08 	call	0x1090	; 0x1090 <__divsf3>
     802:	20 e0       	ldi	r18, 0x00	; 0
     804:	30 e0       	ldi	r19, 0x00	; 0
     806:	48 ec       	ldi	r20, 0xC8	; 200
     808:	52 e4       	ldi	r21, 0x42	; 66
     80a:	0e 94 93 09 	call	0x1326	; 0x1326 <__mulsf3>
     80e:	9b 01       	movw	r18, r22
     810:	ac 01       	movw	r20, r24
     812:	60 e0       	ldi	r22, 0x00	; 0
     814:	70 e0       	ldi	r23, 0x00	; 0
     816:	88 ec       	ldi	r24, 0xC8	; 200
     818:	92 e4       	ldi	r25, 0x42	; 66
     81a:	0e 94 df 07 	call	0xfbe	; 0xfbe <__subsf3>
	

		return -(int)a;
     81e:	0e 94 b0 08 	call	0x1160	; 0x1160 <__fixsfsi>
     822:	88 27       	eor	r24, r24
     824:	99 27       	eor	r25, r25
     826:	86 1b       	sub	r24, r22
     828:	97 0b       	sbc	r25, r23
     82a:	17 c0       	rjmp	.+46     	; 0x85a <joystick_read+0x94>
	}
	else{
		double a = (pos-132)/(255-132)*100;
     82c:	20 e0       	ldi	r18, 0x00	; 0
     82e:	30 e0       	ldi	r19, 0x00	; 0
     830:	44 e0       	ldi	r20, 0x04	; 4
     832:	53 e4       	ldi	r21, 0x43	; 67
     834:	c7 01       	movw	r24, r14
     836:	b6 01       	movw	r22, r12
     838:	0e 94 df 07 	call	0xfbe	; 0xfbe <__subsf3>
     83c:	20 e0       	ldi	r18, 0x00	; 0
     83e:	30 e0       	ldi	r19, 0x00	; 0
     840:	46 ef       	ldi	r20, 0xF6	; 246
     842:	52 e4       	ldi	r21, 0x42	; 66
     844:	0e 94 48 08 	call	0x1090	; 0x1090 <__divsf3>
     848:	20 e0       	ldi	r18, 0x00	; 0
     84a:	30 e0       	ldi	r19, 0x00	; 0
     84c:	48 ec       	ldi	r20, 0xC8	; 200
     84e:	52 e4       	ldi	r21, 0x42	; 66
     850:	0e 94 93 09 	call	0x1326	; 0x1326 <__mulsf3>

		return (int)a;
     854:	0e 94 b0 08 	call	0x1160	; 0x1160 <__fixsfsi>
     858:	cb 01       	movw	r24, r22
	}
}
     85a:	ff 90       	pop	r15
     85c:	ef 90       	pop	r14
     85e:	df 90       	pop	r13
     860:	cf 90       	pop	r12
     862:	08 95       	ret

00000864 <find_joystick_dir>:
		return test_bit(PINB, PINB0);
	}
	return -1;
}

joystick_dir find_joystick_dir(void){
     864:	cf 93       	push	r28
     866:	df 93       	push	r29
	int joystick_x = joystick_read(4);
     868:	84 e0       	ldi	r24, 0x04	; 4
     86a:	90 e0       	ldi	r25, 0x00	; 0
     86c:	0e 94 e3 03 	call	0x7c6	; 0x7c6 <joystick_read>
     870:	ec 01       	movw	r28, r24
	int joystick_y = joystick_read(5);
     872:	85 e0       	ldi	r24, 0x05	; 5
     874:	90 e0       	ldi	r25, 0x00	; 0
     876:	0e 94 e3 03 	call	0x7c6	; 0x7c6 <joystick_read>
	//printf("x = %d\n", joystick_x); 
	//printf("y = %d\n", joystick_y); 
	
	if (joystick_y > 80){
     87a:	81 35       	cpi	r24, 0x51	; 81
     87c:	91 05       	cpc	r25, r1
     87e:	5c f4       	brge	.+22     	; 0x896 <find_joystick_dir+0x32>
		return UP;
	}
	else if (joystick_y < -80){
     880:	80 3b       	cpi	r24, 0xB0	; 176
     882:	9f 4f       	sbci	r25, 0xFF	; 255
     884:	54 f0       	brlt	.+20     	; 0x89a <find_joystick_dir+0x36>
		return DOWN;
	}
	else if(joystick_x > 80){
     886:	c1 35       	cpi	r28, 0x51	; 81
     888:	d1 05       	cpc	r29, r1
     88a:	4c f4       	brge	.+18     	; 0x89e <find_joystick_dir+0x3a>
		return RIGHT;
	}
	else if(joystick_x < -80){
     88c:	c0 3b       	cpi	r28, 0xB0	; 176
     88e:	df 4f       	sbci	r29, 0xFF	; 255
     890:	44 f4       	brge	.+16     	; 0x8a2 <find_joystick_dir+0x3e>
		return LEFT;
     892:	83 e0       	ldi	r24, 0x03	; 3
     894:	07 c0       	rjmp	.+14     	; 0x8a4 <find_joystick_dir+0x40>
	int joystick_y = joystick_read(5);
	//printf("x = %d\n", joystick_x); 
	//printf("y = %d\n", joystick_y); 
	
	if (joystick_y > 80){
		return UP;
     896:	80 e0       	ldi	r24, 0x00	; 0
     898:	05 c0       	rjmp	.+10     	; 0x8a4 <find_joystick_dir+0x40>
	}
	else if (joystick_y < -80){
		return DOWN;
     89a:	81 e0       	ldi	r24, 0x01	; 1
     89c:	03 c0       	rjmp	.+6      	; 0x8a4 <find_joystick_dir+0x40>
	}
	else if(joystick_x > 80){
		return RIGHT;
     89e:	82 e0       	ldi	r24, 0x02	; 2
     8a0:	01 c0       	rjmp	.+2      	; 0x8a4 <find_joystick_dir+0x40>
	}
	else if(joystick_x < -80){
		return LEFT;
	}
	return CENTER;
     8a2:	84 e0       	ldi	r24, 0x04	; 4
	
}
     8a4:	df 91       	pop	r29
     8a6:	cf 91       	pop	r28
     8a8:	08 95       	ret

000008aa <menu_sram_update>:
	}
	print_selection_sign(page);
	
}

void menu_sram_update(menu* menu_node, int selector_pos){
     8aa:	ef 92       	push	r14
     8ac:	ff 92       	push	r15
     8ae:	0f 93       	push	r16
     8b0:	1f 93       	push	r17
     8b2:	cf 93       	push	r28
     8b4:	df 93       	push	r29
     8b6:	8c 01       	movw	r16, r24
     8b8:	7b 01       	movw	r14, r22
	int col = 0; 
	int page = 0; 
	sram_reset();
     8ba:	0e 94 78 05 	call	0xaf0	; 0xaf0 <sram_reset>
	
	menu* current = menu_node->child;
     8be:	f8 01       	movw	r30, r16
     8c0:	c6 81       	ldd	r28, Z+6	; 0x06
     8c2:	d7 81       	ldd	r29, Z+7	; 0x07
	
	oled_sram_string(menu_node->name, page, col);
     8c4:	40 e0       	ldi	r20, 0x00	; 0
     8c6:	50 e0       	ldi	r21, 0x00	; 0
     8c8:	60 e0       	ldi	r22, 0x00	; 0
     8ca:	70 e0       	ldi	r23, 0x00	; 0
     8cc:	80 81       	ld	r24, Z
     8ce:	91 81       	ldd	r25, Z+1	; 0x01
     8d0:	0e 94 03 06 	call	0xc06	; 0xc06 <oled_sram_string>
	
	page = 1;
	col = 2;
	while(current != NULL){
     8d4:	20 97       	sbiw	r28, 0x00	; 0
     8d6:	81 f0       	breq	.+32     	; 0x8f8 <menu_sram_update+0x4e>
	
	menu* current = menu_node->child;
	
	oled_sram_string(menu_node->name, page, col);
	
	page = 1;
     8d8:	01 e0       	ldi	r16, 0x01	; 1
     8da:	10 e0       	ldi	r17, 0x00	; 0
	col = 2;
	while(current != NULL){
		oled_sram_string(current->name, page, col);
     8dc:	42 e0       	ldi	r20, 0x02	; 2
     8de:	50 e0       	ldi	r21, 0x00	; 0
     8e0:	b8 01       	movw	r22, r16
     8e2:	88 81       	ld	r24, Y
     8e4:	99 81       	ldd	r25, Y+1	; 0x01
     8e6:	0e 94 03 06 	call	0xc06	; 0xc06 <oled_sram_string>
		current = current->next_sibling;
     8ea:	0a 80       	ldd	r0, Y+2	; 0x02
     8ec:	db 81       	ldd	r29, Y+3	; 0x03
     8ee:	c0 2d       	mov	r28, r0
		page++;
     8f0:	0f 5f       	subi	r16, 0xFF	; 255
     8f2:	1f 4f       	sbci	r17, 0xFF	; 255
	
	oled_sram_string(menu_node->name, page, col);
	
	page = 1;
	col = 2;
	while(current != NULL){
     8f4:	20 97       	sbiw	r28, 0x00	; 0
     8f6:	91 f7       	brne	.-28     	; 0x8dc <menu_sram_update+0x32>
		oled_sram_string(current->name, page, col);
		current = current->next_sibling;
		page++;
	}
	oled_sram_char('*', selector_pos, 0);
     8f8:	40 e0       	ldi	r20, 0x00	; 0
     8fa:	50 e0       	ldi	r21, 0x00	; 0
     8fc:	b7 01       	movw	r22, r14
     8fe:	8a e2       	ldi	r24, 0x2A	; 42
     900:	0e 94 f4 05 	call	0xbe8	; 0xbe8 <oled_sram_char>
	
}
     904:	df 91       	pop	r29
     906:	cf 91       	pop	r28
     908:	1f 91       	pop	r17
     90a:	0f 91       	pop	r16
     90c:	ff 90       	pop	r15
     90e:	ef 90       	pop	r14
     910:	08 95       	ret

00000912 <create_menu>:


menu* create_menu(char* new_name){
     912:	cf 93       	push	r28
     914:	df 93       	push	r29
     916:	ec 01       	movw	r28, r24
	menu* new_menu = (menu*)malloc(sizeof(menu));
     918:	8c e0       	ldi	r24, 0x0C	; 12
     91a:	90 e0       	ldi	r25, 0x00	; 0
     91c:	0e 94 f6 09 	call	0x13ec	; 0x13ec <malloc>
     920:	fc 01       	movw	r30, r24
	
	if(new_menu == NULL){
     922:	00 97       	sbiw	r24, 0x00	; 0
     924:	51 f4       	brne	.+20     	; 0x93a <create_menu+0x28>
		printf("Out of memory! Failed to create menu");
     926:	8b eb       	ldi	r24, 0xBB	; 187
     928:	91 e0       	ldi	r25, 0x01	; 1
     92a:	9f 93       	push	r25
     92c:	8f 93       	push	r24
     92e:	0e 94 68 0b 	call	0x16d0	; 0x16d0 <printf>
		exit(1);
     932:	81 e0       	ldi	r24, 0x01	; 1
     934:	90 e0       	ldi	r25, 0x00	; 0
     936:	0e 94 7b 0e 	call	0x1cf6	; 0x1cf6 <_exit>
	}
	
	new_menu->name = new_name;
     93a:	d1 83       	std	Z+1, r29	; 0x01
     93c:	c0 83       	st	Z, r28
	new_menu->next_sibling = NULL;
     93e:	13 82       	std	Z+3, r1	; 0x03
     940:	12 82       	std	Z+2, r1	; 0x02
	new_menu->prev_sibling = NULL;
     942:	15 82       	std	Z+5, r1	; 0x05
     944:	14 82       	std	Z+4, r1	; 0x04
	new_menu->parent = NULL;
     946:	11 86       	std	Z+9, r1	; 0x09
     948:	10 86       	std	Z+8, r1	; 0x08
	new_menu->child = NULL;
     94a:	17 82       	std	Z+7, r1	; 0x07
     94c:	16 82       	std	Z+6, r1	; 0x06
	new_menu->number_of_childs = 0;
     94e:	13 86       	std	Z+11, r1	; 0x0b
     950:	12 86       	std	Z+10, r1	; 0x0a
	
	return new_menu;
}
     952:	df 91       	pop	r29
     954:	cf 91       	pop	r28
     956:	08 95       	ret

00000958 <create_submenu>:

menu* create_submenu(menu* parent_menu, menu* child_menu){ //tar inn liste av submenu struct
	if (parent_menu->child == NULL){
     958:	dc 01       	movw	r26, r24
     95a:	16 96       	adiw	r26, 0x06	; 6
     95c:	ed 91       	ld	r30, X+
     95e:	fc 91       	ld	r31, X
     960:	17 97       	sbiw	r26, 0x07	; 7
     962:	30 97       	sbiw	r30, 0x00	; 0
     964:	29 f4       	brne	.+10     	; 0x970 <create_submenu+0x18>
		//make new child
		parent_menu->child = child_menu;
     966:	17 96       	adiw	r26, 0x07	; 7
     968:	7c 93       	st	X, r23
     96a:	6e 93       	st	-X, r22
     96c:	16 97       	sbiw	r26, 0x06	; 6
     96e:	0e c0       	rjmp	.+28     	; 0x98c <create_submenu+0x34>
	}
	
	else{
		//make new sibling
		menu* current = parent_menu->child;
		while (current->next_sibling != NULL){
     970:	22 81       	ldd	r18, Z+2	; 0x02
     972:	33 81       	ldd	r19, Z+3	; 0x03
     974:	21 15       	cp	r18, r1
     976:	31 05       	cpc	r19, r1
     978:	11 f0       	breq	.+4      	; 0x97e <create_submenu+0x26>
			current = current->next_sibling;
     97a:	f9 01       	movw	r30, r18
     97c:	f9 cf       	rjmp	.-14     	; 0x970 <create_submenu+0x18>
		}
		
		current->next_sibling =child_menu;
     97e:	73 83       	std	Z+3, r23	; 0x03
     980:	62 83       	std	Z+2, r22	; 0x02
		child_menu->prev_sibling =current;
     982:	db 01       	movw	r26, r22
     984:	15 96       	adiw	r26, 0x05	; 5
     986:	fc 93       	st	X, r31
     988:	ee 93       	st	-X, r30
     98a:	14 97       	sbiw	r26, 0x04	; 4
		
	}
	parent_menu->number_of_childs++;
     98c:	fc 01       	movw	r30, r24
     98e:	22 85       	ldd	r18, Z+10	; 0x0a
     990:	33 85       	ldd	r19, Z+11	; 0x0b
     992:	2f 5f       	subi	r18, 0xFF	; 255
     994:	3f 4f       	sbci	r19, 0xFF	; 255
     996:	33 87       	std	Z+11, r19	; 0x0b
     998:	22 87       	std	Z+10, r18	; 0x0a
	child_menu->parent = parent_menu;
     99a:	db 01       	movw	r26, r22
     99c:	19 96       	adiw	r26, 0x09	; 9
     99e:	9c 93       	st	X, r25
     9a0:	8e 93       	st	-X, r24
     9a2:	18 97       	sbiw	r26, 0x08	; 8
	
	return parent_menu;
}
     9a4:	08 95       	ret

000009a6 <update_display_menu>:


menu* update_display_menu(menu* current_menu, int page, joystick_dir dir){
     9a6:	dc 01       	movw	r26, r24
	menu* current = current_menu->child;
     9a8:	16 96       	adiw	r26, 0x06	; 6
     9aa:	ed 91       	ld	r30, X+
     9ac:	fc 91       	ld	r31, X
     9ae:	17 97       	sbiw	r26, 0x07	; 7
	if(dir == RIGHT){
     9b0:	42 30       	cpi	r20, 0x02	; 2
     9b2:	71 f4       	brne	.+28     	; 0x9d0 <update_display_menu+0x2a>
		for(int i = 1; i < page; i++){
     9b4:	62 30       	cpi	r22, 0x02	; 2
     9b6:	71 05       	cpc	r23, r1
     9b8:	7c f0       	brlt	.+30     	; 0x9d8 <update_display_menu+0x32>
     9ba:	21 e0       	ldi	r18, 0x01	; 1
     9bc:	30 e0       	ldi	r19, 0x00	; 0
				current = current->next_sibling;
     9be:	02 80       	ldd	r0, Z+2	; 0x02
     9c0:	f3 81       	ldd	r31, Z+3	; 0x03
     9c2:	e0 2d       	mov	r30, r0


menu* update_display_menu(menu* current_menu, int page, joystick_dir dir){
	menu* current = current_menu->child;
	if(dir == RIGHT){
		for(int i = 1; i < page; i++){
     9c4:	2f 5f       	subi	r18, 0xFF	; 255
     9c6:	3f 4f       	sbci	r19, 0xFF	; 255
     9c8:	26 17       	cp	r18, r22
     9ca:	37 07       	cpc	r19, r23
     9cc:	c1 f7       	brne	.-16     	; 0x9be <update_display_menu+0x18>
     9ce:	04 c0       	rjmp	.+8      	; 0x9d8 <update_display_menu+0x32>
				current = current->next_sibling;
		}
	}else{
		current = current_menu->parent;
     9d0:	18 96       	adiw	r26, 0x08	; 8
     9d2:	ed 91       	ld	r30, X+
     9d4:	fc 91       	ld	r31, X
     9d6:	19 97       	sbiw	r26, 0x09	; 9
	}
	
	
	
	if(current != NULL){
     9d8:	30 97       	sbiw	r30, 0x00	; 0
     9da:	19 f0       	breq	.+6      	; 0x9e2 <update_display_menu+0x3c>
		return current;
     9dc:	8e 2f       	mov	r24, r30
     9de:	9f 2f       	mov	r25, r31
     9e0:	08 95       	ret
	}
	return current_menu;
     9e2:	8a 2f       	mov	r24, r26
     9e4:	9b 2f       	mov	r25, r27
}
     9e6:	08 95       	ret

000009e8 <oled_init>:



void oled_init(){
	//  display  off
	*OLED_c = 0xae;
     9e8:	e0 91 0a 01 	lds	r30, 0x010A
     9ec:	f0 91 0b 01 	lds	r31, 0x010B
     9f0:	8e ea       	ldi	r24, 0xAE	; 174
     9f2:	80 83       	st	Z, r24

	//segment  remap
	*OLED_c = 0xa1;	
     9f4:	e0 91 0a 01 	lds	r30, 0x010A
     9f8:	f0 91 0b 01 	lds	r31, 0x010B
     9fc:	81 ea       	ldi	r24, 0xA1	; 161
     9fe:	80 83       	st	Z, r24

	//common  pads  hardware:  alternative		
	*OLED_c = 0xda;			
     a00:	e0 91 0a 01 	lds	r30, 0x010A
     a04:	f0 91 0b 01 	lds	r31, 0x010B
     a08:	8a ed       	ldi	r24, 0xDA	; 218
     a0a:	80 83       	st	Z, r24
	*OLED_c = 0x12;
     a0c:	e0 91 0a 01 	lds	r30, 0x010A
     a10:	f0 91 0b 01 	lds	r31, 0x010B
     a14:	82 e1       	ldi	r24, 0x12	; 18
     a16:	80 83       	st	Z, r24

	//common output scan direction:com63~com0
	*OLED_c = 0xc8;
     a18:	e0 91 0a 01 	lds	r30, 0x010A
     a1c:	f0 91 0b 01 	lds	r31, 0x010B
     a20:	88 ec       	ldi	r24, 0xC8	; 200
     a22:	80 83       	st	Z, r24

	//multiplex  ration  mode:63
	*OLED_c = 0xa8;
     a24:	e0 91 0a 01 	lds	r30, 0x010A
     a28:	f0 91 0b 01 	lds	r31, 0x010B
     a2c:	88 ea       	ldi	r24, 0xA8	; 168
     a2e:	80 83       	st	Z, r24
	*OLED_c = 0x3f;
     a30:	e0 91 0a 01 	lds	r30, 0x010A
     a34:	f0 91 0b 01 	lds	r31, 0x010B
     a38:	8f e3       	ldi	r24, 0x3F	; 63
     a3a:	80 83       	st	Z, r24

	//display divide ratio/osc. freq. mode
	*OLED_c = 0xd5;
     a3c:	e0 91 0a 01 	lds	r30, 0x010A
     a40:	f0 91 0b 01 	lds	r31, 0x010B
     a44:	85 ed       	ldi	r24, 0xD5	; 213
     a46:	80 83       	st	Z, r24
	*OLED_c = 0x80;
     a48:	e0 91 0a 01 	lds	r30, 0x010A
     a4c:	f0 91 0b 01 	lds	r31, 0x010B
     a50:	80 e8       	ldi	r24, 0x80	; 128
     a52:	80 83       	st	Z, r24

	//contrast  control
	*OLED_c = 0x81;
     a54:	e0 91 0a 01 	lds	r30, 0x010A
     a58:	f0 91 0b 01 	lds	r31, 0x010B
     a5c:	81 e8       	ldi	r24, 0x81	; 129
     a5e:	80 83       	st	Z, r24
	*OLED_c = 0x50;
     a60:	e0 91 0a 01 	lds	r30, 0x010A
     a64:	f0 91 0b 01 	lds	r31, 0x010B
     a68:	80 e5       	ldi	r24, 0x50	; 80
     a6a:	80 83       	st	Z, r24

	//set  pre-charge  period
	*OLED_c = 0xd9;
     a6c:	e0 91 0a 01 	lds	r30, 0x010A
     a70:	f0 91 0b 01 	lds	r31, 0x010B
     a74:	89 ed       	ldi	r24, 0xD9	; 217
     a76:	80 83       	st	Z, r24
	*OLED_c = 0x21;
     a78:	e0 91 0a 01 	lds	r30, 0x010A
     a7c:	f0 91 0b 01 	lds	r31, 0x010B
     a80:	81 e2       	ldi	r24, 0x21	; 33
     a82:	80 83       	st	Z, r24

	 //Set  Memory  Addressing  Mode
	*OLED_c = 0x20;
     a84:	e0 91 0a 01 	lds	r30, 0x010A
     a88:	f0 91 0b 01 	lds	r31, 0x010B
     a8c:	80 e2       	ldi	r24, 0x20	; 32
     a8e:	80 83       	st	Z, r24
	*OLED_c = 0x02;
     a90:	e0 91 0a 01 	lds	r30, 0x010A
     a94:	f0 91 0b 01 	lds	r31, 0x010B
     a98:	82 e0       	ldi	r24, 0x02	; 2
     a9a:	80 83       	st	Z, r24

	//VCOM  deselect  level  mode
	*OLED_c = 0xdb;
     a9c:	e0 91 0a 01 	lds	r30, 0x010A
     aa0:	f0 91 0b 01 	lds	r31, 0x010B
     aa4:	8b ed       	ldi	r24, 0xDB	; 219
     aa6:	80 83       	st	Z, r24
	*OLED_c = 0x30;
     aa8:	e0 91 0a 01 	lds	r30, 0x010A
     aac:	f0 91 0b 01 	lds	r31, 0x010B
     ab0:	80 e3       	ldi	r24, 0x30	; 48
     ab2:	80 83       	st	Z, r24

	//master  configuration
	*OLED_c = 0xad;
     ab4:	e0 91 0a 01 	lds	r30, 0x010A
     ab8:	f0 91 0b 01 	lds	r31, 0x010B
     abc:	8d ea       	ldi	r24, 0xAD	; 173
     abe:	80 83       	st	Z, r24

	//out follows RAM content 
	*OLED_c = 0x00;
     ac0:	e0 91 0a 01 	lds	r30, 0x010A
     ac4:	f0 91 0b 01 	lds	r31, 0x010B
     ac8:	10 82       	st	Z, r1
	
	//set  normal  display
	*OLED_c = 0xa4;
     aca:	e0 91 0a 01 	lds	r30, 0x010A
     ace:	f0 91 0b 01 	lds	r31, 0x010B
     ad2:	84 ea       	ldi	r24, 0xA4	; 164
     ad4:	80 83       	st	Z, r24
	*OLED_c = 0xa6;
     ad6:	e0 91 0a 01 	lds	r30, 0x010A
     ada:	f0 91 0b 01 	lds	r31, 0x010B
     ade:	86 ea       	ldi	r24, 0xA6	; 166
     ae0:	80 83       	st	Z, r24
	
	//  display  on
	*OLED_c = 0xaf;
     ae2:	e0 91 0a 01 	lds	r30, 0x010A
     ae6:	f0 91 0b 01 	lds	r31, 0x010B
     aea:	8f ea       	ldi	r24, 0xAF	; 175
     aec:	80 83       	st	Z, r24
     aee:	08 95       	ret

00000af0 <sram_reset>:
	

	
}
void sram_reset(){
	for(int i = 0; i < 128*8; i++){
     af0:	80 e0       	ldi	r24, 0x00	; 0
     af2:	90 e0       	ldi	r25, 0x00	; 0
		SRAM[i] = ' ';
     af4:	20 e2       	ldi	r18, 0x20	; 32
     af6:	e0 91 06 01 	lds	r30, 0x0106
     afa:	f0 91 07 01 	lds	r31, 0x0107
     afe:	e8 0f       	add	r30, r24
     b00:	f9 1f       	adc	r31, r25
     b02:	20 83       	st	Z, r18
	

	
}
void sram_reset(){
	for(int i = 0; i < 128*8; i++){
     b04:	01 96       	adiw	r24, 0x01	; 1
     b06:	81 15       	cp	r24, r1
     b08:	34 e0       	ldi	r19, 0x04	; 4
     b0a:	93 07       	cpc	r25, r19
     b0c:	a1 f7       	brne	.-24     	; 0xaf6 <sram_reset+0x6>
		SRAM[i] = ' ';
	}
}
     b0e:	08 95       	ret

00000b10 <oled_goto_page>:
		}
	}
}

void oled_goto_page(int page){
	*OLED_c = (page | 0xb0);
     b10:	e0 91 0a 01 	lds	r30, 0x010A
     b14:	f0 91 0b 01 	lds	r31, 0x010B
     b18:	98 2f       	mov	r25, r24
     b1a:	90 6b       	ori	r25, 0xB0	; 176
     b1c:	90 83       	st	Z, r25
	current_page = page;
     b1e:	80 93 4d 02 	sts	0x024D, r24
     b22:	08 95       	ret

00000b24 <oled_goto_column>:
}


void oled_goto_column(int column){
	*OLED_c = (column & 0x0f); //clearer de 4 frste bitsene
     b24:	e0 91 0a 01 	lds	r30, 0x010A
     b28:	f0 91 0b 01 	lds	r31, 0x010B
     b2c:	28 2f       	mov	r18, r24
     b2e:	2f 70       	andi	r18, 0x0F	; 15
     b30:	20 83       	st	Z, r18
	*OLED_c = ((column & 0xf0) >> 4) | (0x10);
     b32:	e0 91 0a 01 	lds	r30, 0x010A
     b36:	f0 91 0b 01 	lds	r31, 0x010B
     b3a:	9c 01       	movw	r18, r24
     b3c:	20 7f       	andi	r18, 0xF0	; 240
     b3e:	33 27       	eor	r19, r19
     b40:	35 95       	asr	r19
     b42:	27 95       	ror	r18
     b44:	35 95       	asr	r19
     b46:	27 95       	ror	r18
     b48:	35 95       	asr	r19
     b4a:	27 95       	ror	r18
     b4c:	35 95       	asr	r19
     b4e:	27 95       	ror	r18
     b50:	20 61       	ori	r18, 0x10	; 16
     b52:	20 83       	st	Z, r18
	current_col = column;
     b54:	80 93 4c 02 	sts	0x024C, r24
     b58:	08 95       	ret

00000b5a <oled_pos>:

int oled_return_page(void){
	return current_page;
}

void oled_pos(int row,int column){
     b5a:	cf 93       	push	r28
     b5c:	df 93       	push	r29
     b5e:	eb 01       	movw	r28, r22
	oled_goto_page(row);
     b60:	0e 94 88 05 	call	0xb10	; 0xb10 <oled_goto_page>
	oled_goto_column(column);
     b64:	ce 01       	movw	r24, r28
     b66:	0e 94 92 05 	call	0xb24	; 0xb24 <oled_goto_column>
}
     b6a:	df 91       	pop	r29
     b6c:	cf 91       	pop	r28
     b6e:	08 95       	ret

00000b70 <oled_reset>:
void sram_reset(){
	for(int i = 0; i < 128*8; i++){
		SRAM[i] = ' ';
	}
}
void oled_reset(){
     b70:	0f 93       	push	r16
     b72:	1f 93       	push	r17
     b74:	cf 93       	push	r28
     b76:	df 93       	push	r29
     b78:	c0 e0       	ldi	r28, 0x00	; 0
     b7a:	d0 e0       	ldi	r29, 0x00	; 0
	
	for (uint8_t i = 0 ; i < 8; i++){
		oled_pos(i, 0);
     b7c:	00 e8       	ldi	r16, 0x80	; 128
     b7e:	10 e0       	ldi	r17, 0x00	; 0
     b80:	60 e0       	ldi	r22, 0x00	; 0
     b82:	70 e0       	ldi	r23, 0x00	; 0
     b84:	ce 01       	movw	r24, r28
     b86:	0e 94 ad 05 	call	0xb5a	; 0xb5a <oled_pos>
     b8a:	20 2f       	mov	r18, r16
     b8c:	31 2f       	mov	r19, r17
		for (uint16_t i = 0 ; i < 128; i++){
			*OLED_d = 0x00;
     b8e:	e0 91 08 01 	lds	r30, 0x0108
     b92:	f0 91 09 01 	lds	r31, 0x0109
     b96:	10 82       	st	Z, r1
     b98:	21 50       	subi	r18, 0x01	; 1
     b9a:	31 09       	sbc	r19, r1
}
void oled_reset(){
	
	for (uint8_t i = 0 ; i < 8; i++){
		oled_pos(i, 0);
		for (uint16_t i = 0 ; i < 128; i++){
     b9c:	21 15       	cp	r18, r1
     b9e:	31 05       	cpc	r19, r1
     ba0:	b1 f7       	brne	.-20     	; 0xb8e <oled_reset+0x1e>
     ba2:	21 96       	adiw	r28, 0x01	; 1
		SRAM[i] = ' ';
	}
}
void oled_reset(){
	
	for (uint8_t i = 0 ; i < 8; i++){
     ba4:	c8 30       	cpi	r28, 0x08	; 8
     ba6:	d1 05       	cpc	r29, r1
     ba8:	59 f7       	brne	.-42     	; 0xb80 <oled_reset+0x10>
		oled_pos(i, 0);
		for (uint16_t i = 0 ; i < 128; i++){
			*OLED_d = 0x00;
		}
	}
}
     baa:	df 91       	pop	r29
     bac:	cf 91       	pop	r28
     bae:	1f 91       	pop	r17
     bb0:	0f 91       	pop	r16
     bb2:	08 95       	ret

00000bb4 <oled_home>:
	oled_goto_column(column);
}


void oled_home(){
	oled_pos(0,0);
     bb4:	60 e0       	ldi	r22, 0x00	; 0
     bb6:	70 e0       	ldi	r23, 0x00	; 0
     bb8:	80 e0       	ldi	r24, 0x00	; 0
     bba:	90 e0       	ldi	r25, 0x00	; 0
     bbc:	0e 94 ad 05 	call	0xb5a	; 0xb5a <oled_pos>
     bc0:	08 95       	ret

00000bc2 <oled_print_char>:
	for (uint16_t i = 0 ; i < 128; i++){
		*OLED_d = 0xff;
	}
}

void oled_print_char(char c){
     bc2:	28 e0       	ldi	r18, 0x08	; 8
     bc4:	82 9f       	mul	r24, r18
     bc6:	c0 01       	movw	r24, r0
     bc8:	11 24       	eor	r1, r1
     bca:	fc 01       	movw	r30, r24
     bcc:	e0 59       	subi	r30, 0x90	; 144
     bce:	f0 40       	sbci	r31, 0x00	; 0
	for (uint8_t i = 0 ; i < 8 ; i++){  //i < 8 fordi vi bruker font8
     bd0:	80 e0       	ldi	r24, 0x00	; 0
		*OLED_d = pgm_read_byte(&(font8[c - ASCII_OFFSET][i]));
     bd2:	a0 91 08 01 	lds	r26, 0x0108
     bd6:	b0 91 09 01 	lds	r27, 0x0109
     bda:	94 91       	lpm	r25, Z
     bdc:	9c 93       	st	X, r25
		*OLED_d = 0xff;
	}
}

void oled_print_char(char c){
	for (uint8_t i = 0 ; i < 8 ; i++){  //i < 8 fordi vi bruker font8
     bde:	8f 5f       	subi	r24, 0xFF	; 255
     be0:	31 96       	adiw	r30, 0x01	; 1
     be2:	88 30       	cpi	r24, 0x08	; 8
     be4:	b1 f7       	brne	.-20     	; 0xbd2 <oled_print_char+0x10>
		*OLED_d = pgm_read_byte(&(font8[c - ASCII_OFFSET][i]));
	}
}
     be6:	08 95       	ret

00000be8 <oled_sram_char>:
	}
}


void oled_sram_char(char c, int page, int col){
	SRAM[128 * page + col] = c;
     be8:	76 95       	lsr	r23
     bea:	76 2f       	mov	r23, r22
     bec:	66 27       	eor	r22, r22
     bee:	77 95       	ror	r23
     bf0:	67 95       	ror	r22
     bf2:	64 0f       	add	r22, r20
     bf4:	75 1f       	adc	r23, r21
     bf6:	e0 91 06 01 	lds	r30, 0x0106
     bfa:	f0 91 07 01 	lds	r31, 0x0107
     bfe:	e6 0f       	add	r30, r22
     c00:	f7 1f       	adc	r31, r23
     c02:	80 83       	st	Z, r24
     c04:	08 95       	ret

00000c06 <oled_sram_string>:
			oled_print_char( oled_read_SRAM(i, j)); 
		}
	}
}

void oled_sram_string(char* string, int page, int start_col){
     c06:	9f 92       	push	r9
     c08:	af 92       	push	r10
     c0a:	bf 92       	push	r11
     c0c:	cf 92       	push	r12
     c0e:	df 92       	push	r13
     c10:	ef 92       	push	r14
     c12:	ff 92       	push	r15
     c14:	0f 93       	push	r16
     c16:	1f 93       	push	r17
     c18:	cf 93       	push	r28
     c1a:	df 93       	push	r29
     c1c:	8c 01       	movw	r16, r24
     c1e:	7b 01       	movw	r14, r22
     c20:	6a 01       	movw	r12, r20
	int col = start_col;
     c22:	ea 01       	movw	r28, r20
	
	for(uint8_t i = 0 ; i < strlen(string) ; i++){
     c24:	b1 2c       	mov	r11, r1
		if (i+start_col == 16){
			//16 char per column, linjeskift
			page = (page+1)%8;
			col = start_col;
     c26:	94 2e       	mov	r9, r20
     c28:	ad 2c       	mov	r10, r13
}

void oled_sram_string(char* string, int page, int start_col){
	int col = start_col;
	
	for(uint8_t i = 0 ; i < strlen(string) ; i++){
     c2a:	25 c0       	rjmp	.+74     	; 0xc76 <oled_sram_string+0x70>
		if (i+start_col == 16){
     c2c:	96 01       	movw	r18, r12
     c2e:	2b 0d       	add	r18, r11
     c30:	31 1d       	adc	r19, r1
     c32:	20 31       	cpi	r18, 0x10	; 16
     c34:	31 05       	cpc	r19, r1
     c36:	a9 f4       	brne	.+42     	; 0xc62 <oled_sram_string+0x5c>
			//16 char per column, linjeskift
			page = (page+1)%8;
     c38:	2f ef       	ldi	r18, 0xFF	; 255
     c3a:	e2 1a       	sub	r14, r18
     c3c:	f2 0a       	sbc	r15, r18
     c3e:	27 e0       	ldi	r18, 0x07	; 7
     c40:	e2 22       	and	r14, r18
     c42:	20 e8       	ldi	r18, 0x80	; 128
     c44:	f2 22       	and	r15, r18
     c46:	ff 20       	and	r15, r15
     c48:	54 f4       	brge	.+20     	; 0xc5e <oled_sram_string+0x58>
     c4a:	21 e0       	ldi	r18, 0x01	; 1
     c4c:	e2 1a       	sub	r14, r18
     c4e:	f1 08       	sbc	r15, r1
     c50:	28 ef       	ldi	r18, 0xF8	; 248
     c52:	e2 2a       	or	r14, r18
     c54:	ff 24       	eor	r15, r15
     c56:	fa 94       	dec	r15
     c58:	2f ef       	ldi	r18, 0xFF	; 255
     c5a:	e2 1a       	sub	r14, r18
     c5c:	f2 0a       	sbc	r15, r18
			col = start_col;
     c5e:	c9 2d       	mov	r28, r9
     c60:	da 2d       	mov	r29, r10
		}
		oled_sram_char(string[i], page, col);
     c62:	f8 01       	movw	r30, r16
     c64:	e8 0f       	add	r30, r24
     c66:	f9 1f       	adc	r31, r25
     c68:	ae 01       	movw	r20, r28
     c6a:	b7 01       	movw	r22, r14
     c6c:	80 81       	ld	r24, Z
     c6e:	0e 94 f4 05 	call	0xbe8	; 0xbe8 <oled_sram_char>
		col++;
     c72:	21 96       	adiw	r28, 0x01	; 1
}

void oled_sram_string(char* string, int page, int start_col){
	int col = start_col;
	
	for(uint8_t i = 0 ; i < strlen(string) ; i++){
     c74:	b3 94       	inc	r11
     c76:	8b 2d       	mov	r24, r11
     c78:	90 e0       	ldi	r25, 0x00	; 0
     c7a:	f8 01       	movw	r30, r16
     c7c:	01 90       	ld	r0, Z+
     c7e:	00 20       	and	r0, r0
     c80:	e9 f7       	brne	.-6      	; 0xc7c <oled_sram_string+0x76>
     c82:	31 97       	sbiw	r30, 0x01	; 1
     c84:	e0 1b       	sub	r30, r16
     c86:	f1 0b       	sbc	r31, r17
     c88:	8e 17       	cp	r24, r30
     c8a:	9f 07       	cpc	r25, r31
     c8c:	78 f2       	brcs	.-98     	; 0xc2c <oled_sram_string+0x26>
			col = start_col;
		}
		oled_sram_char(string[i], page, col);
		col++;
	}
}
     c8e:	df 91       	pop	r29
     c90:	cf 91       	pop	r28
     c92:	1f 91       	pop	r17
     c94:	0f 91       	pop	r16
     c96:	ff 90       	pop	r15
     c98:	ef 90       	pop	r14
     c9a:	df 90       	pop	r13
     c9c:	cf 90       	pop	r12
     c9e:	bf 90       	pop	r11
     ca0:	af 90       	pop	r10
     ca2:	9f 90       	pop	r9
     ca4:	08 95       	ret

00000ca6 <oled_read_SRAM>:
	SRAM[128 * page + col] = c;
}


char oled_read_SRAM(int page, int col){
	return SRAM[128 * page + col];
     ca6:	96 95       	lsr	r25
     ca8:	98 2f       	mov	r25, r24
     caa:	88 27       	eor	r24, r24
     cac:	97 95       	ror	r25
     cae:	87 95       	ror	r24
     cb0:	68 0f       	add	r22, r24
     cb2:	79 1f       	adc	r23, r25
     cb4:	e0 91 06 01 	lds	r30, 0x0106
     cb8:	f0 91 07 01 	lds	r31, 0x0107
     cbc:	e6 0f       	add	r30, r22
     cbe:	f7 1f       	adc	r31, r23
     cc0:	80 81       	ld	r24, Z
}
     cc2:	08 95       	ret

00000cc4 <oled_update>:
		*OLED_d = pgm_read_byte(&(font8[c - ASCII_OFFSET][i]));
	}
}


void oled_update(){
     cc4:	0f 93       	push	r16
     cc6:	1f 93       	push	r17
     cc8:	cf 93       	push	r28
     cca:	df 93       	push	r29
	oled_reset();
     ccc:	0e 94 b8 05 	call	0xb70	; 0xb70 <oled_reset>
	oled_home();
     cd0:	0e 94 da 05 	call	0xbb4	; 0xbb4 <oled_home>
	for(int i = 0; i<8; i++){
     cd4:	00 e0       	ldi	r16, 0x00	; 0
     cd6:	10 e0       	ldi	r17, 0x00	; 0
		oled_pos(i,0);
     cd8:	60 e0       	ldi	r22, 0x00	; 0
     cda:	70 e0       	ldi	r23, 0x00	; 0
     cdc:	c8 01       	movw	r24, r16
     cde:	0e 94 ad 05 	call	0xb5a	; 0xb5a <oled_pos>
		for(int j = 0; j < 16; j++){
     ce2:	c0 e0       	ldi	r28, 0x00	; 0
     ce4:	d0 e0       	ldi	r29, 0x00	; 0
			oled_print_char( oled_read_SRAM(i, j)); 
     ce6:	be 01       	movw	r22, r28
     ce8:	c8 01       	movw	r24, r16
     cea:	0e 94 53 06 	call	0xca6	; 0xca6 <oled_read_SRAM>
     cee:	0e 94 e1 05 	call	0xbc2	; 0xbc2 <oled_print_char>
void oled_update(){
	oled_reset();
	oled_home();
	for(int i = 0; i<8; i++){
		oled_pos(i,0);
		for(int j = 0; j < 16; j++){
     cf2:	21 96       	adiw	r28, 0x01	; 1
     cf4:	c0 31       	cpi	r28, 0x10	; 16
     cf6:	d1 05       	cpc	r29, r1
     cf8:	b1 f7       	brne	.-20     	; 0xce6 <oled_update+0x22>


void oled_update(){
	oled_reset();
	oled_home();
	for(int i = 0; i<8; i++){
     cfa:	0f 5f       	subi	r16, 0xFF	; 255
     cfc:	1f 4f       	sbci	r17, 0xFF	; 255
     cfe:	08 30       	cpi	r16, 0x08	; 8
     d00:	11 05       	cpc	r17, r1
     d02:	51 f7       	brne	.-44     	; 0xcd8 <oled_update+0x14>
		oled_pos(i,0);
		for(int j = 0; j < 16; j++){
			oled_print_char( oled_read_SRAM(i, j)); 
		}
	}
}
     d04:	df 91       	pop	r29
     d06:	cf 91       	pop	r28
     d08:	1f 91       	pop	r17
     d0a:	0f 91       	pop	r16
     d0c:	08 95       	ret

00000d0e <SPI_read_write>:
}

uint8_t SPI_read_write(char cData){
	/* Start transmission */
	
	SPDR = cData;
     d0e:	8f b9       	out	0x0f, r24	; 15
	/* Wait for transmission complete */
	while(!(test_bit(SPSR, SPIF)));   //wait until SPIF-flag is set. 
     d10:	77 9b       	sbis	0x0e, 7	; 14
     d12:	fe cf       	rjmp	.-4      	; 0xd10 <SPI_read_write+0x2>
	return SPDR;
     d14:	8f b1       	in	r24, 0x0f	; 15
}
     d16:	08 95       	ret

00000d18 <SPI_activate_SS>:

void SPI_activate_SS(){
	clr_bit(PORTB, SS);
     d18:	c4 98       	cbi	0x18, 4	; 24
     d1a:	08 95       	ret

00000d1c <SPI_deactivate_SS>:
}

void SPI_deactivate_SS(){
	set_bit(PORTB, SS);
     d1c:	c4 9a       	sbi	0x18, 4	; 24
     d1e:	08 95       	ret

00000d20 <SPI_init>:
#include <avr/io.h>


void SPI_init(void){
	//SPI enable
	set_bit(SPCR, SPE);
     d20:	6e 9a       	sbi	0x0d, 6	; 13
	//Data order MSB transmitted first
	//clr_bit(SPCR, DORD);
	//Set SPI to master mode
	set_bit(SPCR, MSTR);
     d22:	6c 9a       	sbi	0x0d, 4	; 13
	//set SPI clock rate = Fosc/16
	set_bit(SPCR, SPR0);
     d24:	68 9a       	sbi	0x0d, 0	; 13
	
	//set MOSI and SCK to output, all others input
	set_bit(DDRB, MOSI);
     d26:	bd 9a       	sbi	0x17, 5	; 23
	set_bit(DDRB, SCK);
     d28:	bf 9a       	sbi	0x17, 7	; 23
	set_bit(DDRB, SS);
     d2a:	bc 9a       	sbi	0x17, 4	; 23
	
	SPI_deactivate_SS();
     d2c:	0e 94 8e 06 	call	0xd1c	; 0xd1c <SPI_deactivate_SS>
     d30:	08 95       	ret

00000d32 <register_init>:
#define REGISTER_INIT_H_
void register_init(void);

void register_init(void){
	//enabler externt minne i MCU
	set_bit(MCUCR, SRE);
     d32:	85 b7       	in	r24, 0x35	; 53
     d34:	80 68       	ori	r24, 0x80	; 128
     d36:	85 bf       	out	0x35, r24	; 53
	set_bit(SFIOR, XMM2);
     d38:	80 b7       	in	r24, 0x30	; 48
     d3a:	80 62       	ori	r24, 0x20	; 32
     d3c:	80 bf       	out	0x30, r24	; 48

	//enable interrupts in MCU
	clr_bit(MCUCR,ISC00);
     d3e:	85 b7       	in	r24, 0x35	; 53
     d40:	8e 7f       	andi	r24, 0xFE	; 254
     d42:	85 bf       	out	0x35, r24	; 53
	set_bit(MCUCR,ISC01);
     d44:	85 b7       	in	r24, 0x35	; 53
     d46:	82 60       	ori	r24, 0x02	; 2
     d48:	85 bf       	out	0x35, r24	; 53
	set_bit(GICR,INT0);
     d4a:	8b b7       	in	r24, 0x3b	; 59
     d4c:	80 64       	ori	r24, 0x40	; 64
     d4e:	8b bf       	out	0x3b, r24	; 59
	
	
	clr_bit(DDRD, DDD2);
     d50:	8a 98       	cbi	0x11, 2	; 17
     d52:	08 95       	ret

00000d54 <main>:
volatile uint8_t* a = 0x1400;




int main(void) {
     d54:	cf 93       	push	r28
     d56:	df 93       	push	r29
     d58:	cd b7       	in	r28, 0x3d	; 61
     d5a:	de b7       	in	r29, 0x3e	; 62
     d5c:	68 97       	sbiw	r28, 0x18	; 24
     d5e:	0f b6       	in	r0, 0x3f	; 63
     d60:	f8 94       	cli
     d62:	de bf       	out	0x3e, r29	; 62
     d64:	0f be       	out	0x3f, r0	; 63
     d66:	cd bf       	out	0x3d, r28	; 61
	// Disable global interrupts
	cli();
     d68:	f8 94       	cli
	UART_init(31);
     d6a:	8f e1       	ldi	r24, 0x1F	; 31
     d6c:	90 e0       	ldi	r25, 0x00	; 0
     d6e:	0e 94 d3 03 	call	0x7a6	; 0x7a6 <UART_init>
	register_init();
     d72:	0e 94 99 06 	call	0xd32	; 0xd32 <register_init>
	oled_init();
     d76:	0e 94 f4 04 	call	0x9e8	; 0x9e8 <oled_init>
	ADC_init();
     d7a:	0e 94 d3 01 	call	0x3a6	; 0x3a6 <ADC_init>
	//SPI_init();
	CAN_init();
     d7e:	0e 94 f1 01 	call	0x3e2	; 0x3e2 <CAN_init>
	//Enable global interrupts
	sei();
     d82:	78 94       	sei
	
	//deklarere alle structs
	menu* main_menu = create_menu("How to steal");
     d84:	82 ee       	ldi	r24, 0xE2	; 226
     d86:	91 e0       	ldi	r25, 0x01	; 1
     d88:	0e 94 89 04 	call	0x912	; 0x912 <create_menu>
     d8c:	8c 01       	movw	r16, r24
	display_menu = main_menu; 
     d8e:	90 93 53 02 	sts	0x0253, r25
     d92:	80 93 52 02 	sts	0x0252, r24
	menu* julie = create_menu("Gal");
     d96:	8f ee       	ldi	r24, 0xEF	; 239
     d98:	91 e0       	ldi	r25, 0x01	; 1
     d9a:	0e 94 89 04 	call	0x912	; 0x912 <create_menu>
     d9e:	6c 01       	movw	r12, r24
	menu* andrea = create_menu("Kode");
     da0:	83 ef       	ldi	r24, 0xF3	; 243
     da2:	91 e0       	ldi	r25, 0x01	; 1
     da4:	0e 94 89 04 	call	0x912	; 0x912 <create_menu>
     da8:	7c 01       	movw	r14, r24
	menu* johanne = create_menu("USB-board");
     daa:	88 ef       	ldi	r24, 0xF8	; 248
     dac:	91 e0       	ldi	r25, 0x01	; 1
     dae:	0e 94 89 04 	call	0x912	; 0x912 <create_menu>
     db2:	4c 01       	movw	r8, r24
	menu* red = create_menu("lur Bendik");
     db4:	82 e0       	ldi	r24, 0x02	; 2
     db6:	92 e0       	ldi	r25, 0x02	; 2
     db8:	0e 94 89 04 	call	0x912	; 0x912 <create_menu>
     dbc:	5c 01       	movw	r10, r24
	menu* blue = create_menu("facerape");
     dbe:	8d e0       	ldi	r24, 0x0D	; 13
     dc0:	92 e0       	ldi	r25, 0x02	; 2
     dc2:	0e 94 89 04 	call	0x912	; 0x912 <create_menu>
     dc6:	3c 01       	movw	r6, r24
	menu* green = create_menu("Green");
     dc8:	86 e1       	ldi	r24, 0x16	; 22
     dca:	92 e0       	ldi	r25, 0x02	; 2
     dcc:	0e 94 89 04 	call	0x912	; 0x912 <create_menu>
	menu* black = create_menu("Black");
     dd0:	8c e1       	ldi	r24, 0x1C	; 28
     dd2:	92 e0       	ldi	r25, 0x02	; 2
     dd4:	0e 94 89 04 	call	0x912	; 0x912 <create_menu>
	menu* white = create_menu("White");
     dd8:	82 e2       	ldi	r24, 0x22	; 34
     dda:	92 e0       	ldi	r25, 0x02	; 2
     ddc:	0e 94 89 04 	call	0x912	; 0x912 <create_menu>
	
	create_submenu(main_menu, julie);
     de0:	b6 01       	movw	r22, r12
     de2:	c8 01       	movw	r24, r16
     de4:	0e 94 ac 04 	call	0x958	; 0x958 <create_submenu>
	create_submenu(main_menu, andrea);
     de8:	b7 01       	movw	r22, r14
     dea:	c8 01       	movw	r24, r16
     dec:	0e 94 ac 04 	call	0x958	; 0x958 <create_submenu>
	create_submenu(main_menu, johanne);
     df0:	b4 01       	movw	r22, r8
     df2:	c8 01       	movw	r24, r16
     df4:	0e 94 ac 04 	call	0x958	; 0x958 <create_submenu>
	create_submenu(julie, red);
     df8:	b5 01       	movw	r22, r10
     dfa:	c6 01       	movw	r24, r12
     dfc:	0e 94 ac 04 	call	0x958	; 0x958 <create_submenu>
	create_submenu(andrea, blue);
     e00:	b3 01       	movw	r22, r6
     e02:	c7 01       	movw	r24, r14
     e04:	0e 94 ac 04 	call	0x958	; 0x958 <create_submenu>

	oled_reset();
     e08:	0e 94 b8 05 	call	0xb70	; 0xb70 <oled_reset>
	menu_sram_update(display_menu, current_page);
     e0c:	60 91 0d 01 	lds	r22, 0x010D
     e10:	70 91 0e 01 	lds	r23, 0x010E
     e14:	80 91 52 02 	lds	r24, 0x0252
     e18:	90 91 53 02 	lds	r25, 0x0253
     e1c:	0e 94 55 04 	call	0x8aa	; 0x8aa <menu_sram_update>
	oled_update();
     e20:	0e 94 62 06 	call	0xcc4	; 0xcc4 <oled_update>
	
	char* test = "x";
	
	Message msg;
	msg.length = 1;
     e24:	81 e0       	ldi	r24, 0x01	; 1
     e26:	90 e0       	ldi	r25, 0x00	; 0
     e28:	9c 83       	std	Y+4, r25	; 0x04
     e2a:	8b 83       	std	Y+3, r24	; 0x03
	for (int i = 0; i < msg.length; i++){
		msg.data[i] = test[i];
     e2c:	88 e7       	ldi	r24, 0x78	; 120
     e2e:	8d 83       	std	Y+5, r24	; 0x05
	}
	msg.ID = 0; 
     e30:	1a 82       	std	Y+2, r1	; 0x02
     e32:	19 82       	std	Y+1, r1	; 0x01

	
	CAN_send(&msg);
     e34:	ce 01       	movw	r24, r28
     e36:	01 96       	adiw	r24, 0x01	; 1
     e38:	0e 94 40 02 	call	0x480	; 0x480 <CAN_send>
     e3c:	5e 01       	movw	r10, r28
     e3e:	81 e1       	ldi	r24, 0x11	; 17
     e40:	a8 0e       	add	r10, r24
     e42:	b1 1c       	adc	r11, r1
		if(rx_int_flag){
			printf("flagget er satt til 1\n");
			Message recieve_msg = CAN_recieve();
			
			for (int i = 0; i < recieve_msg.length; i ++){
				printf("Recieve %c \n", recieve_msg.data[i]);
     e44:	0f 2e       	mov	r0, r31
     e46:	fe e3       	ldi	r31, 0x3E	; 62
     e48:	ef 2e       	mov	r14, r31
     e4a:	f2 e0       	ldi	r31, 0x02	; 2
     e4c:	ff 2e       	mov	r15, r31
     e4e:	f0 2d       	mov	r31, r0
     e50:	6a 2c       	mov	r6, r10
     e52:	7b 2c       	mov	r7, r11
					oled_update();
					//printf("down\n");
					break;
				case RIGHT:
					display_menu = update_display_menu(display_menu, current_page, RIGHT);
					current_page = 1;
     e54:	88 24       	eor	r8, r8
     e56:	83 94       	inc	r8
     e58:	91 2c       	mov	r9, r1

	//uint8_t test; 
	
	while(1){
		
		if(ADC_ready){
     e5a:	80 91 4f 02 	lds	r24, 0x024F
     e5e:	81 11       	cpse	r24, r1
			ADC_ready = 0;
     e60:	10 92 4f 02 	sts	0x024F, r1
		}
		
		if(rx_int_flag){
     e64:	80 91 4e 02 	lds	r24, 0x024E
     e68:	88 23       	and	r24, r24
     e6a:	09 f1       	breq	.+66     	; 0xeae <main+0x15a>
			printf("flagget er satt til 1\n");
     e6c:	88 e2       	ldi	r24, 0x28	; 40
     e6e:	92 e0       	ldi	r25, 0x02	; 2
     e70:	0e 94 7c 0b 	call	0x16f8	; 0x16f8 <puts>
			Message recieve_msg = CAN_recieve();
     e74:	ce 01       	movw	r24, r28
     e76:	0d 96       	adiw	r24, 0x0d	; 13
     e78:	0e 94 8d 02 	call	0x51a	; 0x51a <CAN_recieve>
     e7c:	cf 84       	ldd	r12, Y+15	; 0x0f
     e7e:	d8 88       	ldd	r13, Y+16	; 0x10
			
			for (int i = 0; i < recieve_msg.length; i ++){
     e80:	1c 14       	cp	r1, r12
     e82:	1d 04       	cpc	r1, r13
     e84:	a4 f4       	brge	.+40     	; 0xeae <main+0x15a>
     e86:	06 2d       	mov	r16, r6
     e88:	17 2d       	mov	r17, r7
     e8a:	ca 0c       	add	r12, r10
     e8c:	db 1c       	adc	r13, r11
				printf("Recieve %c \n", recieve_msg.data[i]);
     e8e:	f8 01       	movw	r30, r16
     e90:	81 91       	ld	r24, Z+
     e92:	8f 01       	movw	r16, r30
     e94:	1f 92       	push	r1
     e96:	8f 93       	push	r24
     e98:	ff 92       	push	r15
     e9a:	ef 92       	push	r14
     e9c:	0e 94 68 0b 	call	0x16d0	; 0x16d0 <printf>
		
		if(rx_int_flag){
			printf("flagget er satt til 1\n");
			Message recieve_msg = CAN_recieve();
			
			for (int i = 0; i < recieve_msg.length; i ++){
     ea0:	0f 90       	pop	r0
     ea2:	0f 90       	pop	r0
     ea4:	0f 90       	pop	r0
     ea6:	0f 90       	pop	r0
     ea8:	0c 15       	cp	r16, r12
     eaa:	1d 05       	cpc	r17, r13
     eac:	81 f7       	brne	.-32     	; 0xe8e <main+0x13a>
			
			
			
		}
		
		joystick_dir joy_dir = find_joystick_dir();
     eae:	0e 94 32 04 	call	0x864	; 0x864 <find_joystick_dir>
     eb2:	18 2f       	mov	r17, r24
		if(joy_dir != last_joy_dir){
     eb4:	80 91 0c 01 	lds	r24, 0x010C
     eb8:	18 17       	cp	r17, r24
     eba:	79 f2       	breq	.-98     	; 0xe5a <main+0x106>
			
			switch(joy_dir){
     ebc:	11 30       	cpi	r17, 0x01	; 1
     ebe:	01 f1       	breq	.+64     	; 0xf00 <main+0x1ac>
     ec0:	30 f0       	brcs	.+12     	; 0xece <main+0x17a>
     ec2:	12 30       	cpi	r17, 0x02	; 2
     ec4:	c9 f1       	breq	.+114    	; 0xf38 <main+0x1e4>
     ec6:	13 30       	cpi	r17, 0x03	; 3
     ec8:	09 f4       	brne	.+2      	; 0xecc <main+0x178>
     eca:	4f c0       	rjmp	.+158    	; 0xf6a <main+0x216>
     ecc:	66 c0       	rjmp	.+204    	; 0xf9a <main+0x246>
				case UP:
					if(current_page > 1){
     ece:	80 91 0d 01 	lds	r24, 0x010D
     ed2:	90 91 0e 01 	lds	r25, 0x010E
     ed6:	82 30       	cpi	r24, 0x02	; 2
     ed8:	91 05       	cpc	r25, r1
     eda:	2c f0       	brlt	.+10     	; 0xee6 <main+0x192>
						current_page--;
     edc:	01 97       	sbiw	r24, 0x01	; 1
     ede:	90 93 0e 01 	sts	0x010E, r25
     ee2:	80 93 0d 01 	sts	0x010D, r24
					}
					menu_sram_update(display_menu, current_page);
     ee6:	60 91 0d 01 	lds	r22, 0x010D
     eea:	70 91 0e 01 	lds	r23, 0x010E
     eee:	80 91 52 02 	lds	r24, 0x0252
     ef2:	90 91 53 02 	lds	r25, 0x0253
     ef6:	0e 94 55 04 	call	0x8aa	; 0x8aa <menu_sram_update>
					oled_update();
     efa:	0e 94 62 06 	call	0xcc4	; 0xcc4 <oled_update>
					//printf("up\n");
					break;
     efe:	4d c0       	rjmp	.+154    	; 0xf9a <main+0x246>
				case DOWN:
					if(current_page < display_menu->number_of_childs){
     f00:	e0 91 52 02 	lds	r30, 0x0252
     f04:	f0 91 53 02 	lds	r31, 0x0253
     f08:	80 91 0d 01 	lds	r24, 0x010D
     f0c:	90 91 0e 01 	lds	r25, 0x010E
     f10:	22 85       	ldd	r18, Z+10	; 0x0a
     f12:	33 85       	ldd	r19, Z+11	; 0x0b
     f14:	82 17       	cp	r24, r18
     f16:	93 07       	cpc	r25, r19
     f18:	2c f4       	brge	.+10     	; 0xf24 <main+0x1d0>
						current_page++;
     f1a:	01 96       	adiw	r24, 0x01	; 1
     f1c:	90 93 0e 01 	sts	0x010E, r25
     f20:	80 93 0d 01 	sts	0x010D, r24
					}
					menu_sram_update(display_menu, current_page);
     f24:	60 91 0d 01 	lds	r22, 0x010D
     f28:	70 91 0e 01 	lds	r23, 0x010E
     f2c:	cf 01       	movw	r24, r30
     f2e:	0e 94 55 04 	call	0x8aa	; 0x8aa <menu_sram_update>
					oled_update();
     f32:	0e 94 62 06 	call	0xcc4	; 0xcc4 <oled_update>
					//printf("down\n");
					break;
     f36:	31 c0       	rjmp	.+98     	; 0xf9a <main+0x246>
				case RIGHT:
					display_menu = update_display_menu(display_menu, current_page, RIGHT);
     f38:	60 91 0d 01 	lds	r22, 0x010D
     f3c:	70 91 0e 01 	lds	r23, 0x010E
     f40:	42 e0       	ldi	r20, 0x02	; 2
     f42:	80 91 52 02 	lds	r24, 0x0252
     f46:	90 91 53 02 	lds	r25, 0x0253
     f4a:	0e 94 d3 04 	call	0x9a6	; 0x9a6 <update_display_menu>
     f4e:	90 93 53 02 	sts	0x0253, r25
     f52:	80 93 52 02 	sts	0x0252, r24
					current_page = 1;
     f56:	90 92 0e 01 	sts	0x010E, r9
     f5a:	80 92 0d 01 	sts	0x010D, r8
					menu_sram_update(display_menu, current_page);
     f5e:	b4 01       	movw	r22, r8
     f60:	0e 94 55 04 	call	0x8aa	; 0x8aa <menu_sram_update>
					oled_update();
     f64:	0e 94 62 06 	call	0xcc4	; 0xcc4 <oled_update>
					//printf("right\n");
					break;
     f68:	18 c0       	rjmp	.+48     	; 0xf9a <main+0x246>
				case LEFT:
					display_menu = update_display_menu(display_menu, current_page, LEFT);
     f6a:	60 91 0d 01 	lds	r22, 0x010D
     f6e:	70 91 0e 01 	lds	r23, 0x010E
     f72:	43 e0       	ldi	r20, 0x03	; 3
     f74:	80 91 52 02 	lds	r24, 0x0252
     f78:	90 91 53 02 	lds	r25, 0x0253
     f7c:	0e 94 d3 04 	call	0x9a6	; 0x9a6 <update_display_menu>
     f80:	90 93 53 02 	sts	0x0253, r25
     f84:	80 93 52 02 	sts	0x0252, r24
					current_page = 1; 
     f88:	90 92 0e 01 	sts	0x010E, r9
     f8c:	80 92 0d 01 	sts	0x010D, r8
					menu_sram_update(display_menu, current_page);
     f90:	b4 01       	movw	r22, r8
     f92:	0e 94 55 04 	call	0x8aa	; 0x8aa <menu_sram_update>
					oled_update();
     f96:	0e 94 62 06 	call	0xcc4	; 0xcc4 <oled_update>
					break;
				default:
					break;
			}
			
			last_joy_dir = joy_dir;
     f9a:	10 93 0c 01 	sts	0x010C, r17
     f9e:	5d cf       	rjmp	.-326    	; 0xe5a <main+0x106>

00000fa0 <__vector_3>:
		}
	}
	return 0;
}

ISR(INT2_vect){
     fa0:	1f 92       	push	r1
     fa2:	0f 92       	push	r0
     fa4:	0f b6       	in	r0, 0x3f	; 63
     fa6:	0f 92       	push	r0
     fa8:	11 24       	eor	r1, r1
     faa:	8f 93       	push	r24
	ADC_ready = 1; 
     fac:	81 e0       	ldi	r24, 0x01	; 1
     fae:	80 93 4f 02 	sts	0x024F, r24
	//wake up the CPU
}
     fb2:	8f 91       	pop	r24
     fb4:	0f 90       	pop	r0
     fb6:	0f be       	out	0x3f, r0	; 63
     fb8:	0f 90       	pop	r0
     fba:	1f 90       	pop	r1
     fbc:	18 95       	reti

00000fbe <__subsf3>:
     fbe:	50 58       	subi	r21, 0x80	; 128

00000fc0 <__addsf3>:
     fc0:	bb 27       	eor	r27, r27
     fc2:	aa 27       	eor	r26, r26
     fc4:	0e d0       	rcall	.+28     	; 0xfe2 <__addsf3x>
     fc6:	75 c1       	rjmp	.+746    	; 0x12b2 <__fp_round>
     fc8:	66 d1       	rcall	.+716    	; 0x1296 <__fp_pscA>
     fca:	30 f0       	brcs	.+12     	; 0xfd8 <__addsf3+0x18>
     fcc:	6b d1       	rcall	.+726    	; 0x12a4 <__fp_pscB>
     fce:	20 f0       	brcs	.+8      	; 0xfd8 <__addsf3+0x18>
     fd0:	31 f4       	brne	.+12     	; 0xfde <__addsf3+0x1e>
     fd2:	9f 3f       	cpi	r25, 0xFF	; 255
     fd4:	11 f4       	brne	.+4      	; 0xfda <__addsf3+0x1a>
     fd6:	1e f4       	brtc	.+6      	; 0xfde <__addsf3+0x1e>
     fd8:	5b c1       	rjmp	.+694    	; 0x1290 <__fp_nan>
     fda:	0e f4       	brtc	.+2      	; 0xfde <__addsf3+0x1e>
     fdc:	e0 95       	com	r30
     fde:	e7 fb       	bst	r30, 7
     fe0:	51 c1       	rjmp	.+674    	; 0x1284 <__fp_inf>

00000fe2 <__addsf3x>:
     fe2:	e9 2f       	mov	r30, r25
     fe4:	77 d1       	rcall	.+750    	; 0x12d4 <__fp_split3>
     fe6:	80 f3       	brcs	.-32     	; 0xfc8 <__addsf3+0x8>
     fe8:	ba 17       	cp	r27, r26
     fea:	62 07       	cpc	r22, r18
     fec:	73 07       	cpc	r23, r19
     fee:	84 07       	cpc	r24, r20
     ff0:	95 07       	cpc	r25, r21
     ff2:	18 f0       	brcs	.+6      	; 0xffa <__addsf3x+0x18>
     ff4:	71 f4       	brne	.+28     	; 0x1012 <__addsf3x+0x30>
     ff6:	9e f5       	brtc	.+102    	; 0x105e <__addsf3x+0x7c>
     ff8:	8f c1       	rjmp	.+798    	; 0x1318 <__fp_zero>
     ffa:	0e f4       	brtc	.+2      	; 0xffe <__addsf3x+0x1c>
     ffc:	e0 95       	com	r30
     ffe:	0b 2e       	mov	r0, r27
    1000:	ba 2f       	mov	r27, r26
    1002:	a0 2d       	mov	r26, r0
    1004:	0b 01       	movw	r0, r22
    1006:	b9 01       	movw	r22, r18
    1008:	90 01       	movw	r18, r0
    100a:	0c 01       	movw	r0, r24
    100c:	ca 01       	movw	r24, r20
    100e:	a0 01       	movw	r20, r0
    1010:	11 24       	eor	r1, r1
    1012:	ff 27       	eor	r31, r31
    1014:	59 1b       	sub	r21, r25
    1016:	99 f0       	breq	.+38     	; 0x103e <__addsf3x+0x5c>
    1018:	59 3f       	cpi	r21, 0xF9	; 249
    101a:	50 f4       	brcc	.+20     	; 0x1030 <__addsf3x+0x4e>
    101c:	50 3e       	cpi	r21, 0xE0	; 224
    101e:	68 f1       	brcs	.+90     	; 0x107a <__addsf3x+0x98>
    1020:	1a 16       	cp	r1, r26
    1022:	f0 40       	sbci	r31, 0x00	; 0
    1024:	a2 2f       	mov	r26, r18
    1026:	23 2f       	mov	r18, r19
    1028:	34 2f       	mov	r19, r20
    102a:	44 27       	eor	r20, r20
    102c:	58 5f       	subi	r21, 0xF8	; 248
    102e:	f3 cf       	rjmp	.-26     	; 0x1016 <__addsf3x+0x34>
    1030:	46 95       	lsr	r20
    1032:	37 95       	ror	r19
    1034:	27 95       	ror	r18
    1036:	a7 95       	ror	r26
    1038:	f0 40       	sbci	r31, 0x00	; 0
    103a:	53 95       	inc	r21
    103c:	c9 f7       	brne	.-14     	; 0x1030 <__addsf3x+0x4e>
    103e:	7e f4       	brtc	.+30     	; 0x105e <__addsf3x+0x7c>
    1040:	1f 16       	cp	r1, r31
    1042:	ba 0b       	sbc	r27, r26
    1044:	62 0b       	sbc	r22, r18
    1046:	73 0b       	sbc	r23, r19
    1048:	84 0b       	sbc	r24, r20
    104a:	ba f0       	brmi	.+46     	; 0x107a <__addsf3x+0x98>
    104c:	91 50       	subi	r25, 0x01	; 1
    104e:	a1 f0       	breq	.+40     	; 0x1078 <__addsf3x+0x96>
    1050:	ff 0f       	add	r31, r31
    1052:	bb 1f       	adc	r27, r27
    1054:	66 1f       	adc	r22, r22
    1056:	77 1f       	adc	r23, r23
    1058:	88 1f       	adc	r24, r24
    105a:	c2 f7       	brpl	.-16     	; 0x104c <__addsf3x+0x6a>
    105c:	0e c0       	rjmp	.+28     	; 0x107a <__addsf3x+0x98>
    105e:	ba 0f       	add	r27, r26
    1060:	62 1f       	adc	r22, r18
    1062:	73 1f       	adc	r23, r19
    1064:	84 1f       	adc	r24, r20
    1066:	48 f4       	brcc	.+18     	; 0x107a <__addsf3x+0x98>
    1068:	87 95       	ror	r24
    106a:	77 95       	ror	r23
    106c:	67 95       	ror	r22
    106e:	b7 95       	ror	r27
    1070:	f7 95       	ror	r31
    1072:	9e 3f       	cpi	r25, 0xFE	; 254
    1074:	08 f0       	brcs	.+2      	; 0x1078 <__addsf3x+0x96>
    1076:	b3 cf       	rjmp	.-154    	; 0xfde <__addsf3+0x1e>
    1078:	93 95       	inc	r25
    107a:	88 0f       	add	r24, r24
    107c:	08 f0       	brcs	.+2      	; 0x1080 <__addsf3x+0x9e>
    107e:	99 27       	eor	r25, r25
    1080:	ee 0f       	add	r30, r30
    1082:	97 95       	ror	r25
    1084:	87 95       	ror	r24
    1086:	08 95       	ret

00001088 <__cmpsf2>:
    1088:	d9 d0       	rcall	.+434    	; 0x123c <__fp_cmp>
    108a:	08 f4       	brcc	.+2      	; 0x108e <__cmpsf2+0x6>
    108c:	81 e0       	ldi	r24, 0x01	; 1
    108e:	08 95       	ret

00001090 <__divsf3>:
    1090:	0c d0       	rcall	.+24     	; 0x10aa <__divsf3x>
    1092:	0f c1       	rjmp	.+542    	; 0x12b2 <__fp_round>
    1094:	07 d1       	rcall	.+526    	; 0x12a4 <__fp_pscB>
    1096:	40 f0       	brcs	.+16     	; 0x10a8 <__divsf3+0x18>
    1098:	fe d0       	rcall	.+508    	; 0x1296 <__fp_pscA>
    109a:	30 f0       	brcs	.+12     	; 0x10a8 <__divsf3+0x18>
    109c:	21 f4       	brne	.+8      	; 0x10a6 <__divsf3+0x16>
    109e:	5f 3f       	cpi	r21, 0xFF	; 255
    10a0:	19 f0       	breq	.+6      	; 0x10a8 <__divsf3+0x18>
    10a2:	f0 c0       	rjmp	.+480    	; 0x1284 <__fp_inf>
    10a4:	51 11       	cpse	r21, r1
    10a6:	39 c1       	rjmp	.+626    	; 0x131a <__fp_szero>
    10a8:	f3 c0       	rjmp	.+486    	; 0x1290 <__fp_nan>

000010aa <__divsf3x>:
    10aa:	14 d1       	rcall	.+552    	; 0x12d4 <__fp_split3>
    10ac:	98 f3       	brcs	.-26     	; 0x1094 <__divsf3+0x4>

000010ae <__divsf3_pse>:
    10ae:	99 23       	and	r25, r25
    10b0:	c9 f3       	breq	.-14     	; 0x10a4 <__divsf3+0x14>
    10b2:	55 23       	and	r21, r21
    10b4:	b1 f3       	breq	.-20     	; 0x10a2 <__divsf3+0x12>
    10b6:	95 1b       	sub	r25, r21
    10b8:	55 0b       	sbc	r21, r21
    10ba:	bb 27       	eor	r27, r27
    10bc:	aa 27       	eor	r26, r26
    10be:	62 17       	cp	r22, r18
    10c0:	73 07       	cpc	r23, r19
    10c2:	84 07       	cpc	r24, r20
    10c4:	38 f0       	brcs	.+14     	; 0x10d4 <__divsf3_pse+0x26>
    10c6:	9f 5f       	subi	r25, 0xFF	; 255
    10c8:	5f 4f       	sbci	r21, 0xFF	; 255
    10ca:	22 0f       	add	r18, r18
    10cc:	33 1f       	adc	r19, r19
    10ce:	44 1f       	adc	r20, r20
    10d0:	aa 1f       	adc	r26, r26
    10d2:	a9 f3       	breq	.-22     	; 0x10be <__divsf3_pse+0x10>
    10d4:	33 d0       	rcall	.+102    	; 0x113c <__divsf3_pse+0x8e>
    10d6:	0e 2e       	mov	r0, r30
    10d8:	3a f0       	brmi	.+14     	; 0x10e8 <__divsf3_pse+0x3a>
    10da:	e0 e8       	ldi	r30, 0x80	; 128
    10dc:	30 d0       	rcall	.+96     	; 0x113e <__divsf3_pse+0x90>
    10de:	91 50       	subi	r25, 0x01	; 1
    10e0:	50 40       	sbci	r21, 0x00	; 0
    10e2:	e6 95       	lsr	r30
    10e4:	00 1c       	adc	r0, r0
    10e6:	ca f7       	brpl	.-14     	; 0x10da <__divsf3_pse+0x2c>
    10e8:	29 d0       	rcall	.+82     	; 0x113c <__divsf3_pse+0x8e>
    10ea:	fe 2f       	mov	r31, r30
    10ec:	27 d0       	rcall	.+78     	; 0x113c <__divsf3_pse+0x8e>
    10ee:	66 0f       	add	r22, r22
    10f0:	77 1f       	adc	r23, r23
    10f2:	88 1f       	adc	r24, r24
    10f4:	bb 1f       	adc	r27, r27
    10f6:	26 17       	cp	r18, r22
    10f8:	37 07       	cpc	r19, r23
    10fa:	48 07       	cpc	r20, r24
    10fc:	ab 07       	cpc	r26, r27
    10fe:	b0 e8       	ldi	r27, 0x80	; 128
    1100:	09 f0       	breq	.+2      	; 0x1104 <__divsf3_pse+0x56>
    1102:	bb 0b       	sbc	r27, r27
    1104:	80 2d       	mov	r24, r0
    1106:	bf 01       	movw	r22, r30
    1108:	ff 27       	eor	r31, r31
    110a:	93 58       	subi	r25, 0x83	; 131
    110c:	5f 4f       	sbci	r21, 0xFF	; 255
    110e:	2a f0       	brmi	.+10     	; 0x111a <__divsf3_pse+0x6c>
    1110:	9e 3f       	cpi	r25, 0xFE	; 254
    1112:	51 05       	cpc	r21, r1
    1114:	68 f0       	brcs	.+26     	; 0x1130 <__divsf3_pse+0x82>
    1116:	b6 c0       	rjmp	.+364    	; 0x1284 <__fp_inf>
    1118:	00 c1       	rjmp	.+512    	; 0x131a <__fp_szero>
    111a:	5f 3f       	cpi	r21, 0xFF	; 255
    111c:	ec f3       	brlt	.-6      	; 0x1118 <__divsf3_pse+0x6a>
    111e:	98 3e       	cpi	r25, 0xE8	; 232
    1120:	dc f3       	brlt	.-10     	; 0x1118 <__divsf3_pse+0x6a>
    1122:	86 95       	lsr	r24
    1124:	77 95       	ror	r23
    1126:	67 95       	ror	r22
    1128:	b7 95       	ror	r27
    112a:	f7 95       	ror	r31
    112c:	9f 5f       	subi	r25, 0xFF	; 255
    112e:	c9 f7       	brne	.-14     	; 0x1122 <__divsf3_pse+0x74>
    1130:	88 0f       	add	r24, r24
    1132:	91 1d       	adc	r25, r1
    1134:	96 95       	lsr	r25
    1136:	87 95       	ror	r24
    1138:	97 f9       	bld	r25, 7
    113a:	08 95       	ret
    113c:	e1 e0       	ldi	r30, 0x01	; 1
    113e:	66 0f       	add	r22, r22
    1140:	77 1f       	adc	r23, r23
    1142:	88 1f       	adc	r24, r24
    1144:	bb 1f       	adc	r27, r27
    1146:	62 17       	cp	r22, r18
    1148:	73 07       	cpc	r23, r19
    114a:	84 07       	cpc	r24, r20
    114c:	ba 07       	cpc	r27, r26
    114e:	20 f0       	brcs	.+8      	; 0x1158 <__divsf3_pse+0xaa>
    1150:	62 1b       	sub	r22, r18
    1152:	73 0b       	sbc	r23, r19
    1154:	84 0b       	sbc	r24, r20
    1156:	ba 0b       	sbc	r27, r26
    1158:	ee 1f       	adc	r30, r30
    115a:	88 f7       	brcc	.-30     	; 0x113e <__divsf3_pse+0x90>
    115c:	e0 95       	com	r30
    115e:	08 95       	ret

00001160 <__fixsfsi>:
    1160:	04 d0       	rcall	.+8      	; 0x116a <__fixunssfsi>
    1162:	68 94       	set
    1164:	b1 11       	cpse	r27, r1
    1166:	d9 c0       	rjmp	.+434    	; 0x131a <__fp_szero>
    1168:	08 95       	ret

0000116a <__fixunssfsi>:
    116a:	bc d0       	rcall	.+376    	; 0x12e4 <__fp_splitA>
    116c:	88 f0       	brcs	.+34     	; 0x1190 <__fixunssfsi+0x26>
    116e:	9f 57       	subi	r25, 0x7F	; 127
    1170:	90 f0       	brcs	.+36     	; 0x1196 <__fixunssfsi+0x2c>
    1172:	b9 2f       	mov	r27, r25
    1174:	99 27       	eor	r25, r25
    1176:	b7 51       	subi	r27, 0x17	; 23
    1178:	a0 f0       	brcs	.+40     	; 0x11a2 <__fixunssfsi+0x38>
    117a:	d1 f0       	breq	.+52     	; 0x11b0 <__fixunssfsi+0x46>
    117c:	66 0f       	add	r22, r22
    117e:	77 1f       	adc	r23, r23
    1180:	88 1f       	adc	r24, r24
    1182:	99 1f       	adc	r25, r25
    1184:	1a f0       	brmi	.+6      	; 0x118c <__fixunssfsi+0x22>
    1186:	ba 95       	dec	r27
    1188:	c9 f7       	brne	.-14     	; 0x117c <__fixunssfsi+0x12>
    118a:	12 c0       	rjmp	.+36     	; 0x11b0 <__fixunssfsi+0x46>
    118c:	b1 30       	cpi	r27, 0x01	; 1
    118e:	81 f0       	breq	.+32     	; 0x11b0 <__fixunssfsi+0x46>
    1190:	c3 d0       	rcall	.+390    	; 0x1318 <__fp_zero>
    1192:	b1 e0       	ldi	r27, 0x01	; 1
    1194:	08 95       	ret
    1196:	c0 c0       	rjmp	.+384    	; 0x1318 <__fp_zero>
    1198:	67 2f       	mov	r22, r23
    119a:	78 2f       	mov	r23, r24
    119c:	88 27       	eor	r24, r24
    119e:	b8 5f       	subi	r27, 0xF8	; 248
    11a0:	39 f0       	breq	.+14     	; 0x11b0 <__fixunssfsi+0x46>
    11a2:	b9 3f       	cpi	r27, 0xF9	; 249
    11a4:	cc f3       	brlt	.-14     	; 0x1198 <__fixunssfsi+0x2e>
    11a6:	86 95       	lsr	r24
    11a8:	77 95       	ror	r23
    11aa:	67 95       	ror	r22
    11ac:	b3 95       	inc	r27
    11ae:	d9 f7       	brne	.-10     	; 0x11a6 <__fixunssfsi+0x3c>
    11b0:	3e f4       	brtc	.+14     	; 0x11c0 <__fixunssfsi+0x56>
    11b2:	90 95       	com	r25
    11b4:	80 95       	com	r24
    11b6:	70 95       	com	r23
    11b8:	61 95       	neg	r22
    11ba:	7f 4f       	sbci	r23, 0xFF	; 255
    11bc:	8f 4f       	sbci	r24, 0xFF	; 255
    11be:	9f 4f       	sbci	r25, 0xFF	; 255
    11c0:	08 95       	ret

000011c2 <__floatunsisf>:
    11c2:	e8 94       	clt
    11c4:	09 c0       	rjmp	.+18     	; 0x11d8 <__floatsisf+0x12>

000011c6 <__floatsisf>:
    11c6:	97 fb       	bst	r25, 7
    11c8:	3e f4       	brtc	.+14     	; 0x11d8 <__floatsisf+0x12>
    11ca:	90 95       	com	r25
    11cc:	80 95       	com	r24
    11ce:	70 95       	com	r23
    11d0:	61 95       	neg	r22
    11d2:	7f 4f       	sbci	r23, 0xFF	; 255
    11d4:	8f 4f       	sbci	r24, 0xFF	; 255
    11d6:	9f 4f       	sbci	r25, 0xFF	; 255
    11d8:	99 23       	and	r25, r25
    11da:	a9 f0       	breq	.+42     	; 0x1206 <__floatsisf+0x40>
    11dc:	f9 2f       	mov	r31, r25
    11de:	96 e9       	ldi	r25, 0x96	; 150
    11e0:	bb 27       	eor	r27, r27
    11e2:	93 95       	inc	r25
    11e4:	f6 95       	lsr	r31
    11e6:	87 95       	ror	r24
    11e8:	77 95       	ror	r23
    11ea:	67 95       	ror	r22
    11ec:	b7 95       	ror	r27
    11ee:	f1 11       	cpse	r31, r1
    11f0:	f8 cf       	rjmp	.-16     	; 0x11e2 <__floatsisf+0x1c>
    11f2:	fa f4       	brpl	.+62     	; 0x1232 <__floatsisf+0x6c>
    11f4:	bb 0f       	add	r27, r27
    11f6:	11 f4       	brne	.+4      	; 0x11fc <__floatsisf+0x36>
    11f8:	60 ff       	sbrs	r22, 0
    11fa:	1b c0       	rjmp	.+54     	; 0x1232 <__floatsisf+0x6c>
    11fc:	6f 5f       	subi	r22, 0xFF	; 255
    11fe:	7f 4f       	sbci	r23, 0xFF	; 255
    1200:	8f 4f       	sbci	r24, 0xFF	; 255
    1202:	9f 4f       	sbci	r25, 0xFF	; 255
    1204:	16 c0       	rjmp	.+44     	; 0x1232 <__floatsisf+0x6c>
    1206:	88 23       	and	r24, r24
    1208:	11 f0       	breq	.+4      	; 0x120e <__floatsisf+0x48>
    120a:	96 e9       	ldi	r25, 0x96	; 150
    120c:	11 c0       	rjmp	.+34     	; 0x1230 <__floatsisf+0x6a>
    120e:	77 23       	and	r23, r23
    1210:	21 f0       	breq	.+8      	; 0x121a <__floatsisf+0x54>
    1212:	9e e8       	ldi	r25, 0x8E	; 142
    1214:	87 2f       	mov	r24, r23
    1216:	76 2f       	mov	r23, r22
    1218:	05 c0       	rjmp	.+10     	; 0x1224 <__floatsisf+0x5e>
    121a:	66 23       	and	r22, r22
    121c:	71 f0       	breq	.+28     	; 0x123a <__floatsisf+0x74>
    121e:	96 e8       	ldi	r25, 0x86	; 134
    1220:	86 2f       	mov	r24, r22
    1222:	70 e0       	ldi	r23, 0x00	; 0
    1224:	60 e0       	ldi	r22, 0x00	; 0
    1226:	2a f0       	brmi	.+10     	; 0x1232 <__floatsisf+0x6c>
    1228:	9a 95       	dec	r25
    122a:	66 0f       	add	r22, r22
    122c:	77 1f       	adc	r23, r23
    122e:	88 1f       	adc	r24, r24
    1230:	da f7       	brpl	.-10     	; 0x1228 <__floatsisf+0x62>
    1232:	88 0f       	add	r24, r24
    1234:	96 95       	lsr	r25
    1236:	87 95       	ror	r24
    1238:	97 f9       	bld	r25, 7
    123a:	08 95       	ret

0000123c <__fp_cmp>:
    123c:	99 0f       	add	r25, r25
    123e:	00 08       	sbc	r0, r0
    1240:	55 0f       	add	r21, r21
    1242:	aa 0b       	sbc	r26, r26
    1244:	e0 e8       	ldi	r30, 0x80	; 128
    1246:	fe ef       	ldi	r31, 0xFE	; 254
    1248:	16 16       	cp	r1, r22
    124a:	17 06       	cpc	r1, r23
    124c:	e8 07       	cpc	r30, r24
    124e:	f9 07       	cpc	r31, r25
    1250:	c0 f0       	brcs	.+48     	; 0x1282 <__fp_cmp+0x46>
    1252:	12 16       	cp	r1, r18
    1254:	13 06       	cpc	r1, r19
    1256:	e4 07       	cpc	r30, r20
    1258:	f5 07       	cpc	r31, r21
    125a:	98 f0       	brcs	.+38     	; 0x1282 <__fp_cmp+0x46>
    125c:	62 1b       	sub	r22, r18
    125e:	73 0b       	sbc	r23, r19
    1260:	84 0b       	sbc	r24, r20
    1262:	95 0b       	sbc	r25, r21
    1264:	39 f4       	brne	.+14     	; 0x1274 <__fp_cmp+0x38>
    1266:	0a 26       	eor	r0, r26
    1268:	61 f0       	breq	.+24     	; 0x1282 <__fp_cmp+0x46>
    126a:	23 2b       	or	r18, r19
    126c:	24 2b       	or	r18, r20
    126e:	25 2b       	or	r18, r21
    1270:	21 f4       	brne	.+8      	; 0x127a <__fp_cmp+0x3e>
    1272:	08 95       	ret
    1274:	0a 26       	eor	r0, r26
    1276:	09 f4       	brne	.+2      	; 0x127a <__fp_cmp+0x3e>
    1278:	a1 40       	sbci	r26, 0x01	; 1
    127a:	a6 95       	lsr	r26
    127c:	8f ef       	ldi	r24, 0xFF	; 255
    127e:	81 1d       	adc	r24, r1
    1280:	81 1d       	adc	r24, r1
    1282:	08 95       	ret

00001284 <__fp_inf>:
    1284:	97 f9       	bld	r25, 7
    1286:	9f 67       	ori	r25, 0x7F	; 127
    1288:	80 e8       	ldi	r24, 0x80	; 128
    128a:	70 e0       	ldi	r23, 0x00	; 0
    128c:	60 e0       	ldi	r22, 0x00	; 0
    128e:	08 95       	ret

00001290 <__fp_nan>:
    1290:	9f ef       	ldi	r25, 0xFF	; 255
    1292:	80 ec       	ldi	r24, 0xC0	; 192
    1294:	08 95       	ret

00001296 <__fp_pscA>:
    1296:	00 24       	eor	r0, r0
    1298:	0a 94       	dec	r0
    129a:	16 16       	cp	r1, r22
    129c:	17 06       	cpc	r1, r23
    129e:	18 06       	cpc	r1, r24
    12a0:	09 06       	cpc	r0, r25
    12a2:	08 95       	ret

000012a4 <__fp_pscB>:
    12a4:	00 24       	eor	r0, r0
    12a6:	0a 94       	dec	r0
    12a8:	12 16       	cp	r1, r18
    12aa:	13 06       	cpc	r1, r19
    12ac:	14 06       	cpc	r1, r20
    12ae:	05 06       	cpc	r0, r21
    12b0:	08 95       	ret

000012b2 <__fp_round>:
    12b2:	09 2e       	mov	r0, r25
    12b4:	03 94       	inc	r0
    12b6:	00 0c       	add	r0, r0
    12b8:	11 f4       	brne	.+4      	; 0x12be <__fp_round+0xc>
    12ba:	88 23       	and	r24, r24
    12bc:	52 f0       	brmi	.+20     	; 0x12d2 <__fp_round+0x20>
    12be:	bb 0f       	add	r27, r27
    12c0:	40 f4       	brcc	.+16     	; 0x12d2 <__fp_round+0x20>
    12c2:	bf 2b       	or	r27, r31
    12c4:	11 f4       	brne	.+4      	; 0x12ca <__fp_round+0x18>
    12c6:	60 ff       	sbrs	r22, 0
    12c8:	04 c0       	rjmp	.+8      	; 0x12d2 <__fp_round+0x20>
    12ca:	6f 5f       	subi	r22, 0xFF	; 255
    12cc:	7f 4f       	sbci	r23, 0xFF	; 255
    12ce:	8f 4f       	sbci	r24, 0xFF	; 255
    12d0:	9f 4f       	sbci	r25, 0xFF	; 255
    12d2:	08 95       	ret

000012d4 <__fp_split3>:
    12d4:	57 fd       	sbrc	r21, 7
    12d6:	90 58       	subi	r25, 0x80	; 128
    12d8:	44 0f       	add	r20, r20
    12da:	55 1f       	adc	r21, r21
    12dc:	59 f0       	breq	.+22     	; 0x12f4 <__fp_splitA+0x10>
    12de:	5f 3f       	cpi	r21, 0xFF	; 255
    12e0:	71 f0       	breq	.+28     	; 0x12fe <__fp_splitA+0x1a>
    12e2:	47 95       	ror	r20

000012e4 <__fp_splitA>:
    12e4:	88 0f       	add	r24, r24
    12e6:	97 fb       	bst	r25, 7
    12e8:	99 1f       	adc	r25, r25
    12ea:	61 f0       	breq	.+24     	; 0x1304 <__fp_splitA+0x20>
    12ec:	9f 3f       	cpi	r25, 0xFF	; 255
    12ee:	79 f0       	breq	.+30     	; 0x130e <__fp_splitA+0x2a>
    12f0:	87 95       	ror	r24
    12f2:	08 95       	ret
    12f4:	12 16       	cp	r1, r18
    12f6:	13 06       	cpc	r1, r19
    12f8:	14 06       	cpc	r1, r20
    12fa:	55 1f       	adc	r21, r21
    12fc:	f2 cf       	rjmp	.-28     	; 0x12e2 <__fp_split3+0xe>
    12fe:	46 95       	lsr	r20
    1300:	f1 df       	rcall	.-30     	; 0x12e4 <__fp_splitA>
    1302:	08 c0       	rjmp	.+16     	; 0x1314 <__fp_splitA+0x30>
    1304:	16 16       	cp	r1, r22
    1306:	17 06       	cpc	r1, r23
    1308:	18 06       	cpc	r1, r24
    130a:	99 1f       	adc	r25, r25
    130c:	f1 cf       	rjmp	.-30     	; 0x12f0 <__fp_splitA+0xc>
    130e:	86 95       	lsr	r24
    1310:	71 05       	cpc	r23, r1
    1312:	61 05       	cpc	r22, r1
    1314:	08 94       	sec
    1316:	08 95       	ret

00001318 <__fp_zero>:
    1318:	e8 94       	clt

0000131a <__fp_szero>:
    131a:	bb 27       	eor	r27, r27
    131c:	66 27       	eor	r22, r22
    131e:	77 27       	eor	r23, r23
    1320:	cb 01       	movw	r24, r22
    1322:	97 f9       	bld	r25, 7
    1324:	08 95       	ret

00001326 <__mulsf3>:
    1326:	0b d0       	rcall	.+22     	; 0x133e <__mulsf3x>
    1328:	c4 cf       	rjmp	.-120    	; 0x12b2 <__fp_round>
    132a:	b5 df       	rcall	.-150    	; 0x1296 <__fp_pscA>
    132c:	28 f0       	brcs	.+10     	; 0x1338 <__mulsf3+0x12>
    132e:	ba df       	rcall	.-140    	; 0x12a4 <__fp_pscB>
    1330:	18 f0       	brcs	.+6      	; 0x1338 <__mulsf3+0x12>
    1332:	95 23       	and	r25, r21
    1334:	09 f0       	breq	.+2      	; 0x1338 <__mulsf3+0x12>
    1336:	a6 cf       	rjmp	.-180    	; 0x1284 <__fp_inf>
    1338:	ab cf       	rjmp	.-170    	; 0x1290 <__fp_nan>
    133a:	11 24       	eor	r1, r1
    133c:	ee cf       	rjmp	.-36     	; 0x131a <__fp_szero>

0000133e <__mulsf3x>:
    133e:	ca df       	rcall	.-108    	; 0x12d4 <__fp_split3>
    1340:	a0 f3       	brcs	.-24     	; 0x132a <__mulsf3+0x4>

00001342 <__mulsf3_pse>:
    1342:	95 9f       	mul	r25, r21
    1344:	d1 f3       	breq	.-12     	; 0x133a <__mulsf3+0x14>
    1346:	95 0f       	add	r25, r21
    1348:	50 e0       	ldi	r21, 0x00	; 0
    134a:	55 1f       	adc	r21, r21
    134c:	62 9f       	mul	r22, r18
    134e:	f0 01       	movw	r30, r0
    1350:	72 9f       	mul	r23, r18
    1352:	bb 27       	eor	r27, r27
    1354:	f0 0d       	add	r31, r0
    1356:	b1 1d       	adc	r27, r1
    1358:	63 9f       	mul	r22, r19
    135a:	aa 27       	eor	r26, r26
    135c:	f0 0d       	add	r31, r0
    135e:	b1 1d       	adc	r27, r1
    1360:	aa 1f       	adc	r26, r26
    1362:	64 9f       	mul	r22, r20
    1364:	66 27       	eor	r22, r22
    1366:	b0 0d       	add	r27, r0
    1368:	a1 1d       	adc	r26, r1
    136a:	66 1f       	adc	r22, r22
    136c:	82 9f       	mul	r24, r18
    136e:	22 27       	eor	r18, r18
    1370:	b0 0d       	add	r27, r0
    1372:	a1 1d       	adc	r26, r1
    1374:	62 1f       	adc	r22, r18
    1376:	73 9f       	mul	r23, r19
    1378:	b0 0d       	add	r27, r0
    137a:	a1 1d       	adc	r26, r1
    137c:	62 1f       	adc	r22, r18
    137e:	83 9f       	mul	r24, r19
    1380:	a0 0d       	add	r26, r0
    1382:	61 1d       	adc	r22, r1
    1384:	22 1f       	adc	r18, r18
    1386:	74 9f       	mul	r23, r20
    1388:	33 27       	eor	r19, r19
    138a:	a0 0d       	add	r26, r0
    138c:	61 1d       	adc	r22, r1
    138e:	23 1f       	adc	r18, r19
    1390:	84 9f       	mul	r24, r20
    1392:	60 0d       	add	r22, r0
    1394:	21 1d       	adc	r18, r1
    1396:	82 2f       	mov	r24, r18
    1398:	76 2f       	mov	r23, r22
    139a:	6a 2f       	mov	r22, r26
    139c:	11 24       	eor	r1, r1
    139e:	9f 57       	subi	r25, 0x7F	; 127
    13a0:	50 40       	sbci	r21, 0x00	; 0
    13a2:	8a f0       	brmi	.+34     	; 0x13c6 <__mulsf3_pse+0x84>
    13a4:	e1 f0       	breq	.+56     	; 0x13de <__mulsf3_pse+0x9c>
    13a6:	88 23       	and	r24, r24
    13a8:	4a f0       	brmi	.+18     	; 0x13bc <__mulsf3_pse+0x7a>
    13aa:	ee 0f       	add	r30, r30
    13ac:	ff 1f       	adc	r31, r31
    13ae:	bb 1f       	adc	r27, r27
    13b0:	66 1f       	adc	r22, r22
    13b2:	77 1f       	adc	r23, r23
    13b4:	88 1f       	adc	r24, r24
    13b6:	91 50       	subi	r25, 0x01	; 1
    13b8:	50 40       	sbci	r21, 0x00	; 0
    13ba:	a9 f7       	brne	.-22     	; 0x13a6 <__mulsf3_pse+0x64>
    13bc:	9e 3f       	cpi	r25, 0xFE	; 254
    13be:	51 05       	cpc	r21, r1
    13c0:	70 f0       	brcs	.+28     	; 0x13de <__mulsf3_pse+0x9c>
    13c2:	60 cf       	rjmp	.-320    	; 0x1284 <__fp_inf>
    13c4:	aa cf       	rjmp	.-172    	; 0x131a <__fp_szero>
    13c6:	5f 3f       	cpi	r21, 0xFF	; 255
    13c8:	ec f3       	brlt	.-6      	; 0x13c4 <__mulsf3_pse+0x82>
    13ca:	98 3e       	cpi	r25, 0xE8	; 232
    13cc:	dc f3       	brlt	.-10     	; 0x13c4 <__mulsf3_pse+0x82>
    13ce:	86 95       	lsr	r24
    13d0:	77 95       	ror	r23
    13d2:	67 95       	ror	r22
    13d4:	b7 95       	ror	r27
    13d6:	f7 95       	ror	r31
    13d8:	e7 95       	ror	r30
    13da:	9f 5f       	subi	r25, 0xFF	; 255
    13dc:	c1 f7       	brne	.-16     	; 0x13ce <__mulsf3_pse+0x8c>
    13de:	fe 2b       	or	r31, r30
    13e0:	88 0f       	add	r24, r24
    13e2:	91 1d       	adc	r25, r1
    13e4:	96 95       	lsr	r25
    13e6:	87 95       	ror	r24
    13e8:	97 f9       	bld	r25, 7
    13ea:	08 95       	ret

000013ec <malloc>:
    13ec:	cf 93       	push	r28
    13ee:	df 93       	push	r29
    13f0:	82 30       	cpi	r24, 0x02	; 2
    13f2:	91 05       	cpc	r25, r1
    13f4:	10 f4       	brcc	.+4      	; 0x13fa <malloc+0xe>
    13f6:	82 e0       	ldi	r24, 0x02	; 2
    13f8:	90 e0       	ldi	r25, 0x00	; 0
    13fa:	e0 91 56 02 	lds	r30, 0x0256
    13fe:	f0 91 57 02 	lds	r31, 0x0257
    1402:	20 e0       	ldi	r18, 0x00	; 0
    1404:	30 e0       	ldi	r19, 0x00	; 0
    1406:	a0 e0       	ldi	r26, 0x00	; 0
    1408:	b0 e0       	ldi	r27, 0x00	; 0
    140a:	30 97       	sbiw	r30, 0x00	; 0
    140c:	39 f1       	breq	.+78     	; 0x145c <malloc+0x70>
    140e:	40 81       	ld	r20, Z
    1410:	51 81       	ldd	r21, Z+1	; 0x01
    1412:	48 17       	cp	r20, r24
    1414:	59 07       	cpc	r21, r25
    1416:	b8 f0       	brcs	.+46     	; 0x1446 <malloc+0x5a>
    1418:	48 17       	cp	r20, r24
    141a:	59 07       	cpc	r21, r25
    141c:	71 f4       	brne	.+28     	; 0x143a <malloc+0x4e>
    141e:	82 81       	ldd	r24, Z+2	; 0x02
    1420:	93 81       	ldd	r25, Z+3	; 0x03
    1422:	10 97       	sbiw	r26, 0x00	; 0
    1424:	29 f0       	breq	.+10     	; 0x1430 <malloc+0x44>
    1426:	13 96       	adiw	r26, 0x03	; 3
    1428:	9c 93       	st	X, r25
    142a:	8e 93       	st	-X, r24
    142c:	12 97       	sbiw	r26, 0x02	; 2
    142e:	2c c0       	rjmp	.+88     	; 0x1488 <malloc+0x9c>
    1430:	90 93 57 02 	sts	0x0257, r25
    1434:	80 93 56 02 	sts	0x0256, r24
    1438:	27 c0       	rjmp	.+78     	; 0x1488 <malloc+0x9c>
    143a:	21 15       	cp	r18, r1
    143c:	31 05       	cpc	r19, r1
    143e:	31 f0       	breq	.+12     	; 0x144c <malloc+0x60>
    1440:	42 17       	cp	r20, r18
    1442:	53 07       	cpc	r21, r19
    1444:	18 f0       	brcs	.+6      	; 0x144c <malloc+0x60>
    1446:	a9 01       	movw	r20, r18
    1448:	db 01       	movw	r26, r22
    144a:	01 c0       	rjmp	.+2      	; 0x144e <malloc+0x62>
    144c:	ef 01       	movw	r28, r30
    144e:	9a 01       	movw	r18, r20
    1450:	bd 01       	movw	r22, r26
    1452:	df 01       	movw	r26, r30
    1454:	02 80       	ldd	r0, Z+2	; 0x02
    1456:	f3 81       	ldd	r31, Z+3	; 0x03
    1458:	e0 2d       	mov	r30, r0
    145a:	d7 cf       	rjmp	.-82     	; 0x140a <malloc+0x1e>
    145c:	21 15       	cp	r18, r1
    145e:	31 05       	cpc	r19, r1
    1460:	f9 f0       	breq	.+62     	; 0x14a0 <malloc+0xb4>
    1462:	28 1b       	sub	r18, r24
    1464:	39 0b       	sbc	r19, r25
    1466:	24 30       	cpi	r18, 0x04	; 4
    1468:	31 05       	cpc	r19, r1
    146a:	80 f4       	brcc	.+32     	; 0x148c <malloc+0xa0>
    146c:	8a 81       	ldd	r24, Y+2	; 0x02
    146e:	9b 81       	ldd	r25, Y+3	; 0x03
    1470:	61 15       	cp	r22, r1
    1472:	71 05       	cpc	r23, r1
    1474:	21 f0       	breq	.+8      	; 0x147e <malloc+0x92>
    1476:	fb 01       	movw	r30, r22
    1478:	93 83       	std	Z+3, r25	; 0x03
    147a:	82 83       	std	Z+2, r24	; 0x02
    147c:	04 c0       	rjmp	.+8      	; 0x1486 <malloc+0x9a>
    147e:	90 93 57 02 	sts	0x0257, r25
    1482:	80 93 56 02 	sts	0x0256, r24
    1486:	fe 01       	movw	r30, r28
    1488:	32 96       	adiw	r30, 0x02	; 2
    148a:	44 c0       	rjmp	.+136    	; 0x1514 <malloc+0x128>
    148c:	fe 01       	movw	r30, r28
    148e:	e2 0f       	add	r30, r18
    1490:	f3 1f       	adc	r31, r19
    1492:	81 93       	st	Z+, r24
    1494:	91 93       	st	Z+, r25
    1496:	22 50       	subi	r18, 0x02	; 2
    1498:	31 09       	sbc	r19, r1
    149a:	39 83       	std	Y+1, r19	; 0x01
    149c:	28 83       	st	Y, r18
    149e:	3a c0       	rjmp	.+116    	; 0x1514 <malloc+0x128>
    14a0:	20 91 54 02 	lds	r18, 0x0254
    14a4:	30 91 55 02 	lds	r19, 0x0255
    14a8:	23 2b       	or	r18, r19
    14aa:	41 f4       	brne	.+16     	; 0x14bc <malloc+0xd0>
    14ac:	20 91 02 01 	lds	r18, 0x0102
    14b0:	30 91 03 01 	lds	r19, 0x0103
    14b4:	30 93 55 02 	sts	0x0255, r19
    14b8:	20 93 54 02 	sts	0x0254, r18
    14bc:	20 91 00 01 	lds	r18, 0x0100
    14c0:	30 91 01 01 	lds	r19, 0x0101
    14c4:	21 15       	cp	r18, r1
    14c6:	31 05       	cpc	r19, r1
    14c8:	41 f4       	brne	.+16     	; 0x14da <malloc+0xee>
    14ca:	2d b7       	in	r18, 0x3d	; 61
    14cc:	3e b7       	in	r19, 0x3e	; 62
    14ce:	40 91 04 01 	lds	r20, 0x0104
    14d2:	50 91 05 01 	lds	r21, 0x0105
    14d6:	24 1b       	sub	r18, r20
    14d8:	35 0b       	sbc	r19, r21
    14da:	e0 91 54 02 	lds	r30, 0x0254
    14de:	f0 91 55 02 	lds	r31, 0x0255
    14e2:	e2 17       	cp	r30, r18
    14e4:	f3 07       	cpc	r31, r19
    14e6:	a0 f4       	brcc	.+40     	; 0x1510 <malloc+0x124>
    14e8:	2e 1b       	sub	r18, r30
    14ea:	3f 0b       	sbc	r19, r31
    14ec:	28 17       	cp	r18, r24
    14ee:	39 07       	cpc	r19, r25
    14f0:	78 f0       	brcs	.+30     	; 0x1510 <malloc+0x124>
    14f2:	ac 01       	movw	r20, r24
    14f4:	4e 5f       	subi	r20, 0xFE	; 254
    14f6:	5f 4f       	sbci	r21, 0xFF	; 255
    14f8:	24 17       	cp	r18, r20
    14fa:	35 07       	cpc	r19, r21
    14fc:	48 f0       	brcs	.+18     	; 0x1510 <malloc+0x124>
    14fe:	4e 0f       	add	r20, r30
    1500:	5f 1f       	adc	r21, r31
    1502:	50 93 55 02 	sts	0x0255, r21
    1506:	40 93 54 02 	sts	0x0254, r20
    150a:	81 93       	st	Z+, r24
    150c:	91 93       	st	Z+, r25
    150e:	02 c0       	rjmp	.+4      	; 0x1514 <malloc+0x128>
    1510:	e0 e0       	ldi	r30, 0x00	; 0
    1512:	f0 e0       	ldi	r31, 0x00	; 0
    1514:	cf 01       	movw	r24, r30
    1516:	df 91       	pop	r29
    1518:	cf 91       	pop	r28
    151a:	08 95       	ret

0000151c <free>:
    151c:	cf 93       	push	r28
    151e:	df 93       	push	r29
    1520:	00 97       	sbiw	r24, 0x00	; 0
    1522:	09 f4       	brne	.+2      	; 0x1526 <free+0xa>
    1524:	87 c0       	rjmp	.+270    	; 0x1634 <free+0x118>
    1526:	fc 01       	movw	r30, r24
    1528:	32 97       	sbiw	r30, 0x02	; 2
    152a:	13 82       	std	Z+3, r1	; 0x03
    152c:	12 82       	std	Z+2, r1	; 0x02
    152e:	c0 91 56 02 	lds	r28, 0x0256
    1532:	d0 91 57 02 	lds	r29, 0x0257
    1536:	20 97       	sbiw	r28, 0x00	; 0
    1538:	81 f4       	brne	.+32     	; 0x155a <free+0x3e>
    153a:	20 81       	ld	r18, Z
    153c:	31 81       	ldd	r19, Z+1	; 0x01
    153e:	28 0f       	add	r18, r24
    1540:	39 1f       	adc	r19, r25
    1542:	80 91 54 02 	lds	r24, 0x0254
    1546:	90 91 55 02 	lds	r25, 0x0255
    154a:	82 17       	cp	r24, r18
    154c:	93 07       	cpc	r25, r19
    154e:	79 f5       	brne	.+94     	; 0x15ae <free+0x92>
    1550:	f0 93 55 02 	sts	0x0255, r31
    1554:	e0 93 54 02 	sts	0x0254, r30
    1558:	6d c0       	rjmp	.+218    	; 0x1634 <free+0x118>
    155a:	de 01       	movw	r26, r28
    155c:	20 e0       	ldi	r18, 0x00	; 0
    155e:	30 e0       	ldi	r19, 0x00	; 0
    1560:	ae 17       	cp	r26, r30
    1562:	bf 07       	cpc	r27, r31
    1564:	50 f4       	brcc	.+20     	; 0x157a <free+0x5e>
    1566:	12 96       	adiw	r26, 0x02	; 2
    1568:	4d 91       	ld	r20, X+
    156a:	5c 91       	ld	r21, X
    156c:	13 97       	sbiw	r26, 0x03	; 3
    156e:	9d 01       	movw	r18, r26
    1570:	41 15       	cp	r20, r1
    1572:	51 05       	cpc	r21, r1
    1574:	09 f1       	breq	.+66     	; 0x15b8 <free+0x9c>
    1576:	da 01       	movw	r26, r20
    1578:	f3 cf       	rjmp	.-26     	; 0x1560 <free+0x44>
    157a:	b3 83       	std	Z+3, r27	; 0x03
    157c:	a2 83       	std	Z+2, r26	; 0x02
    157e:	40 81       	ld	r20, Z
    1580:	51 81       	ldd	r21, Z+1	; 0x01
    1582:	84 0f       	add	r24, r20
    1584:	95 1f       	adc	r25, r21
    1586:	8a 17       	cp	r24, r26
    1588:	9b 07       	cpc	r25, r27
    158a:	71 f4       	brne	.+28     	; 0x15a8 <free+0x8c>
    158c:	8d 91       	ld	r24, X+
    158e:	9c 91       	ld	r25, X
    1590:	11 97       	sbiw	r26, 0x01	; 1
    1592:	84 0f       	add	r24, r20
    1594:	95 1f       	adc	r25, r21
    1596:	02 96       	adiw	r24, 0x02	; 2
    1598:	91 83       	std	Z+1, r25	; 0x01
    159a:	80 83       	st	Z, r24
    159c:	12 96       	adiw	r26, 0x02	; 2
    159e:	8d 91       	ld	r24, X+
    15a0:	9c 91       	ld	r25, X
    15a2:	13 97       	sbiw	r26, 0x03	; 3
    15a4:	93 83       	std	Z+3, r25	; 0x03
    15a6:	82 83       	std	Z+2, r24	; 0x02
    15a8:	21 15       	cp	r18, r1
    15aa:	31 05       	cpc	r19, r1
    15ac:	29 f4       	brne	.+10     	; 0x15b8 <free+0x9c>
    15ae:	f0 93 57 02 	sts	0x0257, r31
    15b2:	e0 93 56 02 	sts	0x0256, r30
    15b6:	3e c0       	rjmp	.+124    	; 0x1634 <free+0x118>
    15b8:	d9 01       	movw	r26, r18
    15ba:	13 96       	adiw	r26, 0x03	; 3
    15bc:	fc 93       	st	X, r31
    15be:	ee 93       	st	-X, r30
    15c0:	12 97       	sbiw	r26, 0x02	; 2
    15c2:	4d 91       	ld	r20, X+
    15c4:	5d 91       	ld	r21, X+
    15c6:	a4 0f       	add	r26, r20
    15c8:	b5 1f       	adc	r27, r21
    15ca:	ea 17       	cp	r30, r26
    15cc:	fb 07       	cpc	r31, r27
    15ce:	79 f4       	brne	.+30     	; 0x15ee <free+0xd2>
    15d0:	80 81       	ld	r24, Z
    15d2:	91 81       	ldd	r25, Z+1	; 0x01
    15d4:	84 0f       	add	r24, r20
    15d6:	95 1f       	adc	r25, r21
    15d8:	02 96       	adiw	r24, 0x02	; 2
    15da:	d9 01       	movw	r26, r18
    15dc:	11 96       	adiw	r26, 0x01	; 1
    15de:	9c 93       	st	X, r25
    15e0:	8e 93       	st	-X, r24
    15e2:	82 81       	ldd	r24, Z+2	; 0x02
    15e4:	93 81       	ldd	r25, Z+3	; 0x03
    15e6:	13 96       	adiw	r26, 0x03	; 3
    15e8:	9c 93       	st	X, r25
    15ea:	8e 93       	st	-X, r24
    15ec:	12 97       	sbiw	r26, 0x02	; 2
    15ee:	e0 e0       	ldi	r30, 0x00	; 0
    15f0:	f0 e0       	ldi	r31, 0x00	; 0
    15f2:	8a 81       	ldd	r24, Y+2	; 0x02
    15f4:	9b 81       	ldd	r25, Y+3	; 0x03
    15f6:	00 97       	sbiw	r24, 0x00	; 0
    15f8:	19 f0       	breq	.+6      	; 0x1600 <free+0xe4>
    15fa:	fe 01       	movw	r30, r28
    15fc:	ec 01       	movw	r28, r24
    15fe:	f9 cf       	rjmp	.-14     	; 0x15f2 <free+0xd6>
    1600:	ce 01       	movw	r24, r28
    1602:	02 96       	adiw	r24, 0x02	; 2
    1604:	28 81       	ld	r18, Y
    1606:	39 81       	ldd	r19, Y+1	; 0x01
    1608:	82 0f       	add	r24, r18
    160a:	93 1f       	adc	r25, r19
    160c:	20 91 54 02 	lds	r18, 0x0254
    1610:	30 91 55 02 	lds	r19, 0x0255
    1614:	28 17       	cp	r18, r24
    1616:	39 07       	cpc	r19, r25
    1618:	69 f4       	brne	.+26     	; 0x1634 <free+0x118>
    161a:	30 97       	sbiw	r30, 0x00	; 0
    161c:	29 f4       	brne	.+10     	; 0x1628 <free+0x10c>
    161e:	10 92 57 02 	sts	0x0257, r1
    1622:	10 92 56 02 	sts	0x0256, r1
    1626:	02 c0       	rjmp	.+4      	; 0x162c <free+0x110>
    1628:	13 82       	std	Z+3, r1	; 0x03
    162a:	12 82       	std	Z+2, r1	; 0x02
    162c:	d0 93 55 02 	sts	0x0255, r29
    1630:	c0 93 54 02 	sts	0x0254, r28
    1634:	df 91       	pop	r29
    1636:	cf 91       	pop	r28
    1638:	08 95       	ret

0000163a <fdevopen>:
    163a:	0f 93       	push	r16
    163c:	1f 93       	push	r17
    163e:	cf 93       	push	r28
    1640:	df 93       	push	r29
    1642:	ec 01       	movw	r28, r24
    1644:	8b 01       	movw	r16, r22
    1646:	00 97       	sbiw	r24, 0x00	; 0
    1648:	31 f4       	brne	.+12     	; 0x1656 <fdevopen+0x1c>
    164a:	61 15       	cp	r22, r1
    164c:	71 05       	cpc	r23, r1
    164e:	19 f4       	brne	.+6      	; 0x1656 <fdevopen+0x1c>
    1650:	80 e0       	ldi	r24, 0x00	; 0
    1652:	90 e0       	ldi	r25, 0x00	; 0
    1654:	38 c0       	rjmp	.+112    	; 0x16c6 <fdevopen+0x8c>
    1656:	6e e0       	ldi	r22, 0x0E	; 14
    1658:	70 e0       	ldi	r23, 0x00	; 0
    165a:	81 e0       	ldi	r24, 0x01	; 1
    165c:	90 e0       	ldi	r25, 0x00	; 0
    165e:	0e 94 7b 0d 	call	0x1af6	; 0x1af6 <calloc>
    1662:	fc 01       	movw	r30, r24
    1664:	00 97       	sbiw	r24, 0x00	; 0
    1666:	a1 f3       	breq	.-24     	; 0x1650 <fdevopen+0x16>
    1668:	80 e8       	ldi	r24, 0x80	; 128
    166a:	83 83       	std	Z+3, r24	; 0x03
    166c:	01 15       	cp	r16, r1
    166e:	11 05       	cpc	r17, r1
    1670:	71 f0       	breq	.+28     	; 0x168e <fdevopen+0x54>
    1672:	13 87       	std	Z+11, r17	; 0x0b
    1674:	02 87       	std	Z+10, r16	; 0x0a
    1676:	81 e8       	ldi	r24, 0x81	; 129
    1678:	83 83       	std	Z+3, r24	; 0x03
    167a:	80 91 58 02 	lds	r24, 0x0258
    167e:	90 91 59 02 	lds	r25, 0x0259
    1682:	89 2b       	or	r24, r25
    1684:	21 f4       	brne	.+8      	; 0x168e <fdevopen+0x54>
    1686:	f0 93 59 02 	sts	0x0259, r31
    168a:	e0 93 58 02 	sts	0x0258, r30
    168e:	20 97       	sbiw	r28, 0x00	; 0
    1690:	c9 f0       	breq	.+50     	; 0x16c4 <fdevopen+0x8a>
    1692:	d1 87       	std	Z+9, r29	; 0x09
    1694:	c0 87       	std	Z+8, r28	; 0x08
    1696:	83 81       	ldd	r24, Z+3	; 0x03
    1698:	82 60       	ori	r24, 0x02	; 2
    169a:	83 83       	std	Z+3, r24	; 0x03
    169c:	80 91 5a 02 	lds	r24, 0x025A
    16a0:	90 91 5b 02 	lds	r25, 0x025B
    16a4:	89 2b       	or	r24, r25
    16a6:	71 f4       	brne	.+28     	; 0x16c4 <fdevopen+0x8a>
    16a8:	f0 93 5b 02 	sts	0x025B, r31
    16ac:	e0 93 5a 02 	sts	0x025A, r30
    16b0:	80 91 5c 02 	lds	r24, 0x025C
    16b4:	90 91 5d 02 	lds	r25, 0x025D
    16b8:	89 2b       	or	r24, r25
    16ba:	21 f4       	brne	.+8      	; 0x16c4 <fdevopen+0x8a>
    16bc:	f0 93 5d 02 	sts	0x025D, r31
    16c0:	e0 93 5c 02 	sts	0x025C, r30
    16c4:	cf 01       	movw	r24, r30
    16c6:	df 91       	pop	r29
    16c8:	cf 91       	pop	r28
    16ca:	1f 91       	pop	r17
    16cc:	0f 91       	pop	r16
    16ce:	08 95       	ret

000016d0 <printf>:
    16d0:	a0 e0       	ldi	r26, 0x00	; 0
    16d2:	b0 e0       	ldi	r27, 0x00	; 0
    16d4:	ee e6       	ldi	r30, 0x6E	; 110
    16d6:	fb e0       	ldi	r31, 0x0B	; 11
    16d8:	0c 94 54 0e 	jmp	0x1ca8	; 0x1ca8 <__prologue_saves__+0x20>
    16dc:	fe 01       	movw	r30, r28
    16de:	35 96       	adiw	r30, 0x05	; 5
    16e0:	61 91       	ld	r22, Z+
    16e2:	71 91       	ld	r23, Z+
    16e4:	af 01       	movw	r20, r30
    16e6:	80 91 5a 02 	lds	r24, 0x025A
    16ea:	90 91 5b 02 	lds	r25, 0x025B
    16ee:	0e 94 a9 0b 	call	0x1752	; 0x1752 <vfprintf>
    16f2:	e2 e0       	ldi	r30, 0x02	; 2
    16f4:	0c 94 70 0e 	jmp	0x1ce0	; 0x1ce0 <__epilogue_restores__+0x20>

000016f8 <puts>:
    16f8:	0f 93       	push	r16
    16fa:	1f 93       	push	r17
    16fc:	cf 93       	push	r28
    16fe:	df 93       	push	r29
    1700:	e0 91 5a 02 	lds	r30, 0x025A
    1704:	f0 91 5b 02 	lds	r31, 0x025B
    1708:	23 81       	ldd	r18, Z+3	; 0x03
    170a:	21 ff       	sbrs	r18, 1
    170c:	1b c0       	rjmp	.+54     	; 0x1744 <puts+0x4c>
    170e:	ec 01       	movw	r28, r24
    1710:	00 e0       	ldi	r16, 0x00	; 0
    1712:	10 e0       	ldi	r17, 0x00	; 0
    1714:	89 91       	ld	r24, Y+
    1716:	60 91 5a 02 	lds	r22, 0x025A
    171a:	70 91 5b 02 	lds	r23, 0x025B
    171e:	db 01       	movw	r26, r22
    1720:	18 96       	adiw	r26, 0x08	; 8
    1722:	ed 91       	ld	r30, X+
    1724:	fc 91       	ld	r31, X
    1726:	19 97       	sbiw	r26, 0x09	; 9
    1728:	88 23       	and	r24, r24
    172a:	31 f0       	breq	.+12     	; 0x1738 <puts+0x40>
    172c:	09 95       	icall
    172e:	89 2b       	or	r24, r25
    1730:	89 f3       	breq	.-30     	; 0x1714 <puts+0x1c>
    1732:	0f ef       	ldi	r16, 0xFF	; 255
    1734:	1f ef       	ldi	r17, 0xFF	; 255
    1736:	ee cf       	rjmp	.-36     	; 0x1714 <puts+0x1c>
    1738:	8a e0       	ldi	r24, 0x0A	; 10
    173a:	09 95       	icall
    173c:	89 2b       	or	r24, r25
    173e:	11 f4       	brne	.+4      	; 0x1744 <puts+0x4c>
    1740:	c8 01       	movw	r24, r16
    1742:	02 c0       	rjmp	.+4      	; 0x1748 <puts+0x50>
    1744:	8f ef       	ldi	r24, 0xFF	; 255
    1746:	9f ef       	ldi	r25, 0xFF	; 255
    1748:	df 91       	pop	r29
    174a:	cf 91       	pop	r28
    174c:	1f 91       	pop	r17
    174e:	0f 91       	pop	r16
    1750:	08 95       	ret

00001752 <vfprintf>:
    1752:	ac e0       	ldi	r26, 0x0C	; 12
    1754:	b0 e0       	ldi	r27, 0x00	; 0
    1756:	ef ea       	ldi	r30, 0xAF	; 175
    1758:	fb e0       	ldi	r31, 0x0B	; 11
    175a:	0c 94 44 0e 	jmp	0x1c88	; 0x1c88 <__prologue_saves__>
    175e:	7c 01       	movw	r14, r24
    1760:	6b 01       	movw	r12, r22
    1762:	8a 01       	movw	r16, r20
    1764:	fc 01       	movw	r30, r24
    1766:	17 82       	std	Z+7, r1	; 0x07
    1768:	16 82       	std	Z+6, r1	; 0x06
    176a:	83 81       	ldd	r24, Z+3	; 0x03
    176c:	81 ff       	sbrs	r24, 1
    176e:	bd c1       	rjmp	.+890    	; 0x1aea <vfprintf+0x398>
    1770:	ce 01       	movw	r24, r28
    1772:	01 96       	adiw	r24, 0x01	; 1
    1774:	4c 01       	movw	r8, r24
    1776:	f7 01       	movw	r30, r14
    1778:	93 81       	ldd	r25, Z+3	; 0x03
    177a:	f6 01       	movw	r30, r12
    177c:	93 fd       	sbrc	r25, 3
    177e:	85 91       	lpm	r24, Z+
    1780:	93 ff       	sbrs	r25, 3
    1782:	81 91       	ld	r24, Z+
    1784:	6f 01       	movw	r12, r30
    1786:	88 23       	and	r24, r24
    1788:	09 f4       	brne	.+2      	; 0x178c <vfprintf+0x3a>
    178a:	ab c1       	rjmp	.+854    	; 0x1ae2 <vfprintf+0x390>
    178c:	85 32       	cpi	r24, 0x25	; 37
    178e:	39 f4       	brne	.+14     	; 0x179e <vfprintf+0x4c>
    1790:	93 fd       	sbrc	r25, 3
    1792:	85 91       	lpm	r24, Z+
    1794:	93 ff       	sbrs	r25, 3
    1796:	81 91       	ld	r24, Z+
    1798:	6f 01       	movw	r12, r30
    179a:	85 32       	cpi	r24, 0x25	; 37
    179c:	29 f4       	brne	.+10     	; 0x17a8 <vfprintf+0x56>
    179e:	b7 01       	movw	r22, r14
    17a0:	90 e0       	ldi	r25, 0x00	; 0
    17a2:	0e 94 b4 0d 	call	0x1b68	; 0x1b68 <fputc>
    17a6:	e7 cf       	rjmp	.-50     	; 0x1776 <vfprintf+0x24>
    17a8:	51 2c       	mov	r5, r1
    17aa:	31 2c       	mov	r3, r1
    17ac:	20 e0       	ldi	r18, 0x00	; 0
    17ae:	20 32       	cpi	r18, 0x20	; 32
    17b0:	a0 f4       	brcc	.+40     	; 0x17da <vfprintf+0x88>
    17b2:	8b 32       	cpi	r24, 0x2B	; 43
    17b4:	69 f0       	breq	.+26     	; 0x17d0 <vfprintf+0x7e>
    17b6:	30 f4       	brcc	.+12     	; 0x17c4 <vfprintf+0x72>
    17b8:	80 32       	cpi	r24, 0x20	; 32
    17ba:	59 f0       	breq	.+22     	; 0x17d2 <vfprintf+0x80>
    17bc:	83 32       	cpi	r24, 0x23	; 35
    17be:	69 f4       	brne	.+26     	; 0x17da <vfprintf+0x88>
    17c0:	20 61       	ori	r18, 0x10	; 16
    17c2:	2c c0       	rjmp	.+88     	; 0x181c <vfprintf+0xca>
    17c4:	8d 32       	cpi	r24, 0x2D	; 45
    17c6:	39 f0       	breq	.+14     	; 0x17d6 <vfprintf+0x84>
    17c8:	80 33       	cpi	r24, 0x30	; 48
    17ca:	39 f4       	brne	.+14     	; 0x17da <vfprintf+0x88>
    17cc:	21 60       	ori	r18, 0x01	; 1
    17ce:	26 c0       	rjmp	.+76     	; 0x181c <vfprintf+0xca>
    17d0:	22 60       	ori	r18, 0x02	; 2
    17d2:	24 60       	ori	r18, 0x04	; 4
    17d4:	23 c0       	rjmp	.+70     	; 0x181c <vfprintf+0xca>
    17d6:	28 60       	ori	r18, 0x08	; 8
    17d8:	21 c0       	rjmp	.+66     	; 0x181c <vfprintf+0xca>
    17da:	27 fd       	sbrc	r18, 7
    17dc:	27 c0       	rjmp	.+78     	; 0x182c <vfprintf+0xda>
    17de:	30 ed       	ldi	r19, 0xD0	; 208
    17e0:	38 0f       	add	r19, r24
    17e2:	3a 30       	cpi	r19, 0x0A	; 10
    17e4:	78 f4       	brcc	.+30     	; 0x1804 <vfprintf+0xb2>
    17e6:	26 ff       	sbrs	r18, 6
    17e8:	06 c0       	rjmp	.+12     	; 0x17f6 <vfprintf+0xa4>
    17ea:	fa e0       	ldi	r31, 0x0A	; 10
    17ec:	5f 9e       	mul	r5, r31
    17ee:	30 0d       	add	r19, r0
    17f0:	11 24       	eor	r1, r1
    17f2:	53 2e       	mov	r5, r19
    17f4:	13 c0       	rjmp	.+38     	; 0x181c <vfprintf+0xca>
    17f6:	8a e0       	ldi	r24, 0x0A	; 10
    17f8:	38 9e       	mul	r3, r24
    17fa:	30 0d       	add	r19, r0
    17fc:	11 24       	eor	r1, r1
    17fe:	33 2e       	mov	r3, r19
    1800:	20 62       	ori	r18, 0x20	; 32
    1802:	0c c0       	rjmp	.+24     	; 0x181c <vfprintf+0xca>
    1804:	8e 32       	cpi	r24, 0x2E	; 46
    1806:	21 f4       	brne	.+8      	; 0x1810 <vfprintf+0xbe>
    1808:	26 fd       	sbrc	r18, 6
    180a:	6b c1       	rjmp	.+726    	; 0x1ae2 <vfprintf+0x390>
    180c:	20 64       	ori	r18, 0x40	; 64
    180e:	06 c0       	rjmp	.+12     	; 0x181c <vfprintf+0xca>
    1810:	8c 36       	cpi	r24, 0x6C	; 108
    1812:	11 f4       	brne	.+4      	; 0x1818 <vfprintf+0xc6>
    1814:	20 68       	ori	r18, 0x80	; 128
    1816:	02 c0       	rjmp	.+4      	; 0x181c <vfprintf+0xca>
    1818:	88 36       	cpi	r24, 0x68	; 104
    181a:	41 f4       	brne	.+16     	; 0x182c <vfprintf+0xda>
    181c:	f6 01       	movw	r30, r12
    181e:	93 fd       	sbrc	r25, 3
    1820:	85 91       	lpm	r24, Z+
    1822:	93 ff       	sbrs	r25, 3
    1824:	81 91       	ld	r24, Z+
    1826:	6f 01       	movw	r12, r30
    1828:	81 11       	cpse	r24, r1
    182a:	c1 cf       	rjmp	.-126    	; 0x17ae <vfprintf+0x5c>
    182c:	98 2f       	mov	r25, r24
    182e:	9f 7d       	andi	r25, 0xDF	; 223
    1830:	95 54       	subi	r25, 0x45	; 69
    1832:	93 30       	cpi	r25, 0x03	; 3
    1834:	28 f4       	brcc	.+10     	; 0x1840 <vfprintf+0xee>
    1836:	0c 5f       	subi	r16, 0xFC	; 252
    1838:	1f 4f       	sbci	r17, 0xFF	; 255
    183a:	ff e3       	ldi	r31, 0x3F	; 63
    183c:	f9 83       	std	Y+1, r31	; 0x01
    183e:	0d c0       	rjmp	.+26     	; 0x185a <vfprintf+0x108>
    1840:	83 36       	cpi	r24, 0x63	; 99
    1842:	31 f0       	breq	.+12     	; 0x1850 <vfprintf+0xfe>
    1844:	83 37       	cpi	r24, 0x73	; 115
    1846:	71 f0       	breq	.+28     	; 0x1864 <vfprintf+0x112>
    1848:	83 35       	cpi	r24, 0x53	; 83
    184a:	09 f0       	breq	.+2      	; 0x184e <vfprintf+0xfc>
    184c:	5b c0       	rjmp	.+182    	; 0x1904 <vfprintf+0x1b2>
    184e:	22 c0       	rjmp	.+68     	; 0x1894 <vfprintf+0x142>
    1850:	f8 01       	movw	r30, r16
    1852:	80 81       	ld	r24, Z
    1854:	89 83       	std	Y+1, r24	; 0x01
    1856:	0e 5f       	subi	r16, 0xFE	; 254
    1858:	1f 4f       	sbci	r17, 0xFF	; 255
    185a:	44 24       	eor	r4, r4
    185c:	43 94       	inc	r4
    185e:	51 2c       	mov	r5, r1
    1860:	54 01       	movw	r10, r8
    1862:	15 c0       	rjmp	.+42     	; 0x188e <vfprintf+0x13c>
    1864:	38 01       	movw	r6, r16
    1866:	f2 e0       	ldi	r31, 0x02	; 2
    1868:	6f 0e       	add	r6, r31
    186a:	71 1c       	adc	r7, r1
    186c:	f8 01       	movw	r30, r16
    186e:	a0 80       	ld	r10, Z
    1870:	b1 80       	ldd	r11, Z+1	; 0x01
    1872:	26 ff       	sbrs	r18, 6
    1874:	03 c0       	rjmp	.+6      	; 0x187c <vfprintf+0x12a>
    1876:	65 2d       	mov	r22, r5
    1878:	70 e0       	ldi	r23, 0x00	; 0
    187a:	02 c0       	rjmp	.+4      	; 0x1880 <vfprintf+0x12e>
    187c:	6f ef       	ldi	r22, 0xFF	; 255
    187e:	7f ef       	ldi	r23, 0xFF	; 255
    1880:	c5 01       	movw	r24, r10
    1882:	2c 87       	std	Y+12, r18	; 0x0c
    1884:	0e 94 a9 0d 	call	0x1b52	; 0x1b52 <strnlen>
    1888:	2c 01       	movw	r4, r24
    188a:	83 01       	movw	r16, r6
    188c:	2c 85       	ldd	r18, Y+12	; 0x0c
    188e:	2f 77       	andi	r18, 0x7F	; 127
    1890:	22 2e       	mov	r2, r18
    1892:	17 c0       	rjmp	.+46     	; 0x18c2 <vfprintf+0x170>
    1894:	38 01       	movw	r6, r16
    1896:	f2 e0       	ldi	r31, 0x02	; 2
    1898:	6f 0e       	add	r6, r31
    189a:	71 1c       	adc	r7, r1
    189c:	f8 01       	movw	r30, r16
    189e:	a0 80       	ld	r10, Z
    18a0:	b1 80       	ldd	r11, Z+1	; 0x01
    18a2:	26 ff       	sbrs	r18, 6
    18a4:	03 c0       	rjmp	.+6      	; 0x18ac <vfprintf+0x15a>
    18a6:	65 2d       	mov	r22, r5
    18a8:	70 e0       	ldi	r23, 0x00	; 0
    18aa:	02 c0       	rjmp	.+4      	; 0x18b0 <vfprintf+0x15e>
    18ac:	6f ef       	ldi	r22, 0xFF	; 255
    18ae:	7f ef       	ldi	r23, 0xFF	; 255
    18b0:	c5 01       	movw	r24, r10
    18b2:	2c 87       	std	Y+12, r18	; 0x0c
    18b4:	0e 94 97 0d 	call	0x1b2e	; 0x1b2e <strnlen_P>
    18b8:	2c 01       	movw	r4, r24
    18ba:	2c 85       	ldd	r18, Y+12	; 0x0c
    18bc:	20 68       	ori	r18, 0x80	; 128
    18be:	22 2e       	mov	r2, r18
    18c0:	83 01       	movw	r16, r6
    18c2:	23 fc       	sbrc	r2, 3
    18c4:	1b c0       	rjmp	.+54     	; 0x18fc <vfprintf+0x1aa>
    18c6:	83 2d       	mov	r24, r3
    18c8:	90 e0       	ldi	r25, 0x00	; 0
    18ca:	48 16       	cp	r4, r24
    18cc:	59 06       	cpc	r5, r25
    18ce:	b0 f4       	brcc	.+44     	; 0x18fc <vfprintf+0x1aa>
    18d0:	b7 01       	movw	r22, r14
    18d2:	80 e2       	ldi	r24, 0x20	; 32
    18d4:	90 e0       	ldi	r25, 0x00	; 0
    18d6:	0e 94 b4 0d 	call	0x1b68	; 0x1b68 <fputc>
    18da:	3a 94       	dec	r3
    18dc:	f4 cf       	rjmp	.-24     	; 0x18c6 <vfprintf+0x174>
    18de:	f5 01       	movw	r30, r10
    18e0:	27 fc       	sbrc	r2, 7
    18e2:	85 91       	lpm	r24, Z+
    18e4:	27 fe       	sbrs	r2, 7
    18e6:	81 91       	ld	r24, Z+
    18e8:	5f 01       	movw	r10, r30
    18ea:	b7 01       	movw	r22, r14
    18ec:	90 e0       	ldi	r25, 0x00	; 0
    18ee:	0e 94 b4 0d 	call	0x1b68	; 0x1b68 <fputc>
    18f2:	31 10       	cpse	r3, r1
    18f4:	3a 94       	dec	r3
    18f6:	f1 e0       	ldi	r31, 0x01	; 1
    18f8:	4f 1a       	sub	r4, r31
    18fa:	51 08       	sbc	r5, r1
    18fc:	41 14       	cp	r4, r1
    18fe:	51 04       	cpc	r5, r1
    1900:	71 f7       	brne	.-36     	; 0x18de <vfprintf+0x18c>
    1902:	e5 c0       	rjmp	.+458    	; 0x1ace <vfprintf+0x37c>
    1904:	84 36       	cpi	r24, 0x64	; 100
    1906:	11 f0       	breq	.+4      	; 0x190c <vfprintf+0x1ba>
    1908:	89 36       	cpi	r24, 0x69	; 105
    190a:	39 f5       	brne	.+78     	; 0x195a <vfprintf+0x208>
    190c:	f8 01       	movw	r30, r16
    190e:	27 ff       	sbrs	r18, 7
    1910:	07 c0       	rjmp	.+14     	; 0x1920 <vfprintf+0x1ce>
    1912:	60 81       	ld	r22, Z
    1914:	71 81       	ldd	r23, Z+1	; 0x01
    1916:	82 81       	ldd	r24, Z+2	; 0x02
    1918:	93 81       	ldd	r25, Z+3	; 0x03
    191a:	0c 5f       	subi	r16, 0xFC	; 252
    191c:	1f 4f       	sbci	r17, 0xFF	; 255
    191e:	08 c0       	rjmp	.+16     	; 0x1930 <vfprintf+0x1de>
    1920:	60 81       	ld	r22, Z
    1922:	71 81       	ldd	r23, Z+1	; 0x01
    1924:	88 27       	eor	r24, r24
    1926:	77 fd       	sbrc	r23, 7
    1928:	80 95       	com	r24
    192a:	98 2f       	mov	r25, r24
    192c:	0e 5f       	subi	r16, 0xFE	; 254
    192e:	1f 4f       	sbci	r17, 0xFF	; 255
    1930:	2f 76       	andi	r18, 0x6F	; 111
    1932:	b2 2e       	mov	r11, r18
    1934:	97 ff       	sbrs	r25, 7
    1936:	09 c0       	rjmp	.+18     	; 0x194a <vfprintf+0x1f8>
    1938:	90 95       	com	r25
    193a:	80 95       	com	r24
    193c:	70 95       	com	r23
    193e:	61 95       	neg	r22
    1940:	7f 4f       	sbci	r23, 0xFF	; 255
    1942:	8f 4f       	sbci	r24, 0xFF	; 255
    1944:	9f 4f       	sbci	r25, 0xFF	; 255
    1946:	20 68       	ori	r18, 0x80	; 128
    1948:	b2 2e       	mov	r11, r18
    194a:	2a e0       	ldi	r18, 0x0A	; 10
    194c:	30 e0       	ldi	r19, 0x00	; 0
    194e:	a4 01       	movw	r20, r8
    1950:	0e 94 e6 0d 	call	0x1bcc	; 0x1bcc <__ultoa_invert>
    1954:	a8 2e       	mov	r10, r24
    1956:	a8 18       	sub	r10, r8
    1958:	44 c0       	rjmp	.+136    	; 0x19e2 <vfprintf+0x290>
    195a:	85 37       	cpi	r24, 0x75	; 117
    195c:	29 f4       	brne	.+10     	; 0x1968 <vfprintf+0x216>
    195e:	2f 7e       	andi	r18, 0xEF	; 239
    1960:	b2 2e       	mov	r11, r18
    1962:	2a e0       	ldi	r18, 0x0A	; 10
    1964:	30 e0       	ldi	r19, 0x00	; 0
    1966:	25 c0       	rjmp	.+74     	; 0x19b2 <vfprintf+0x260>
    1968:	f2 2f       	mov	r31, r18
    196a:	f9 7f       	andi	r31, 0xF9	; 249
    196c:	bf 2e       	mov	r11, r31
    196e:	8f 36       	cpi	r24, 0x6F	; 111
    1970:	c1 f0       	breq	.+48     	; 0x19a2 <vfprintf+0x250>
    1972:	18 f4       	brcc	.+6      	; 0x197a <vfprintf+0x228>
    1974:	88 35       	cpi	r24, 0x58	; 88
    1976:	79 f0       	breq	.+30     	; 0x1996 <vfprintf+0x244>
    1978:	b4 c0       	rjmp	.+360    	; 0x1ae2 <vfprintf+0x390>
    197a:	80 37       	cpi	r24, 0x70	; 112
    197c:	19 f0       	breq	.+6      	; 0x1984 <vfprintf+0x232>
    197e:	88 37       	cpi	r24, 0x78	; 120
    1980:	21 f0       	breq	.+8      	; 0x198a <vfprintf+0x238>
    1982:	af c0       	rjmp	.+350    	; 0x1ae2 <vfprintf+0x390>
    1984:	2f 2f       	mov	r18, r31
    1986:	20 61       	ori	r18, 0x10	; 16
    1988:	b2 2e       	mov	r11, r18
    198a:	b4 fe       	sbrs	r11, 4
    198c:	0d c0       	rjmp	.+26     	; 0x19a8 <vfprintf+0x256>
    198e:	8b 2d       	mov	r24, r11
    1990:	84 60       	ori	r24, 0x04	; 4
    1992:	b8 2e       	mov	r11, r24
    1994:	09 c0       	rjmp	.+18     	; 0x19a8 <vfprintf+0x256>
    1996:	24 ff       	sbrs	r18, 4
    1998:	0a c0       	rjmp	.+20     	; 0x19ae <vfprintf+0x25c>
    199a:	9f 2f       	mov	r25, r31
    199c:	96 60       	ori	r25, 0x06	; 6
    199e:	b9 2e       	mov	r11, r25
    19a0:	06 c0       	rjmp	.+12     	; 0x19ae <vfprintf+0x25c>
    19a2:	28 e0       	ldi	r18, 0x08	; 8
    19a4:	30 e0       	ldi	r19, 0x00	; 0
    19a6:	05 c0       	rjmp	.+10     	; 0x19b2 <vfprintf+0x260>
    19a8:	20 e1       	ldi	r18, 0x10	; 16
    19aa:	30 e0       	ldi	r19, 0x00	; 0
    19ac:	02 c0       	rjmp	.+4      	; 0x19b2 <vfprintf+0x260>
    19ae:	20 e1       	ldi	r18, 0x10	; 16
    19b0:	32 e0       	ldi	r19, 0x02	; 2
    19b2:	f8 01       	movw	r30, r16
    19b4:	b7 fe       	sbrs	r11, 7
    19b6:	07 c0       	rjmp	.+14     	; 0x19c6 <vfprintf+0x274>
    19b8:	60 81       	ld	r22, Z
    19ba:	71 81       	ldd	r23, Z+1	; 0x01
    19bc:	82 81       	ldd	r24, Z+2	; 0x02
    19be:	93 81       	ldd	r25, Z+3	; 0x03
    19c0:	0c 5f       	subi	r16, 0xFC	; 252
    19c2:	1f 4f       	sbci	r17, 0xFF	; 255
    19c4:	06 c0       	rjmp	.+12     	; 0x19d2 <vfprintf+0x280>
    19c6:	60 81       	ld	r22, Z
    19c8:	71 81       	ldd	r23, Z+1	; 0x01
    19ca:	80 e0       	ldi	r24, 0x00	; 0
    19cc:	90 e0       	ldi	r25, 0x00	; 0
    19ce:	0e 5f       	subi	r16, 0xFE	; 254
    19d0:	1f 4f       	sbci	r17, 0xFF	; 255
    19d2:	a4 01       	movw	r20, r8
    19d4:	0e 94 e6 0d 	call	0x1bcc	; 0x1bcc <__ultoa_invert>
    19d8:	a8 2e       	mov	r10, r24
    19da:	a8 18       	sub	r10, r8
    19dc:	fb 2d       	mov	r31, r11
    19de:	ff 77       	andi	r31, 0x7F	; 127
    19e0:	bf 2e       	mov	r11, r31
    19e2:	b6 fe       	sbrs	r11, 6
    19e4:	0b c0       	rjmp	.+22     	; 0x19fc <vfprintf+0x2aa>
    19e6:	2b 2d       	mov	r18, r11
    19e8:	2e 7f       	andi	r18, 0xFE	; 254
    19ea:	a5 14       	cp	r10, r5
    19ec:	50 f4       	brcc	.+20     	; 0x1a02 <vfprintf+0x2b0>
    19ee:	b4 fe       	sbrs	r11, 4
    19f0:	0a c0       	rjmp	.+20     	; 0x1a06 <vfprintf+0x2b4>
    19f2:	b2 fc       	sbrc	r11, 2
    19f4:	08 c0       	rjmp	.+16     	; 0x1a06 <vfprintf+0x2b4>
    19f6:	2b 2d       	mov	r18, r11
    19f8:	2e 7e       	andi	r18, 0xEE	; 238
    19fa:	05 c0       	rjmp	.+10     	; 0x1a06 <vfprintf+0x2b4>
    19fc:	7a 2c       	mov	r7, r10
    19fe:	2b 2d       	mov	r18, r11
    1a00:	03 c0       	rjmp	.+6      	; 0x1a08 <vfprintf+0x2b6>
    1a02:	7a 2c       	mov	r7, r10
    1a04:	01 c0       	rjmp	.+2      	; 0x1a08 <vfprintf+0x2b6>
    1a06:	75 2c       	mov	r7, r5
    1a08:	24 ff       	sbrs	r18, 4
    1a0a:	0d c0       	rjmp	.+26     	; 0x1a26 <vfprintf+0x2d4>
    1a0c:	fe 01       	movw	r30, r28
    1a0e:	ea 0d       	add	r30, r10
    1a10:	f1 1d       	adc	r31, r1
    1a12:	80 81       	ld	r24, Z
    1a14:	80 33       	cpi	r24, 0x30	; 48
    1a16:	11 f4       	brne	.+4      	; 0x1a1c <vfprintf+0x2ca>
    1a18:	29 7e       	andi	r18, 0xE9	; 233
    1a1a:	09 c0       	rjmp	.+18     	; 0x1a2e <vfprintf+0x2dc>
    1a1c:	22 ff       	sbrs	r18, 2
    1a1e:	06 c0       	rjmp	.+12     	; 0x1a2c <vfprintf+0x2da>
    1a20:	73 94       	inc	r7
    1a22:	73 94       	inc	r7
    1a24:	04 c0       	rjmp	.+8      	; 0x1a2e <vfprintf+0x2dc>
    1a26:	82 2f       	mov	r24, r18
    1a28:	86 78       	andi	r24, 0x86	; 134
    1a2a:	09 f0       	breq	.+2      	; 0x1a2e <vfprintf+0x2dc>
    1a2c:	73 94       	inc	r7
    1a2e:	23 fd       	sbrc	r18, 3
    1a30:	13 c0       	rjmp	.+38     	; 0x1a58 <vfprintf+0x306>
    1a32:	20 ff       	sbrs	r18, 0
    1a34:	06 c0       	rjmp	.+12     	; 0x1a42 <vfprintf+0x2f0>
    1a36:	5a 2c       	mov	r5, r10
    1a38:	73 14       	cp	r7, r3
    1a3a:	18 f4       	brcc	.+6      	; 0x1a42 <vfprintf+0x2f0>
    1a3c:	53 0c       	add	r5, r3
    1a3e:	57 18       	sub	r5, r7
    1a40:	73 2c       	mov	r7, r3
    1a42:	73 14       	cp	r7, r3
    1a44:	68 f4       	brcc	.+26     	; 0x1a60 <vfprintf+0x30e>
    1a46:	b7 01       	movw	r22, r14
    1a48:	80 e2       	ldi	r24, 0x20	; 32
    1a4a:	90 e0       	ldi	r25, 0x00	; 0
    1a4c:	2c 87       	std	Y+12, r18	; 0x0c
    1a4e:	0e 94 b4 0d 	call	0x1b68	; 0x1b68 <fputc>
    1a52:	73 94       	inc	r7
    1a54:	2c 85       	ldd	r18, Y+12	; 0x0c
    1a56:	f5 cf       	rjmp	.-22     	; 0x1a42 <vfprintf+0x2f0>
    1a58:	73 14       	cp	r7, r3
    1a5a:	10 f4       	brcc	.+4      	; 0x1a60 <vfprintf+0x30e>
    1a5c:	37 18       	sub	r3, r7
    1a5e:	01 c0       	rjmp	.+2      	; 0x1a62 <vfprintf+0x310>
    1a60:	31 2c       	mov	r3, r1
    1a62:	24 ff       	sbrs	r18, 4
    1a64:	12 c0       	rjmp	.+36     	; 0x1a8a <vfprintf+0x338>
    1a66:	b7 01       	movw	r22, r14
    1a68:	80 e3       	ldi	r24, 0x30	; 48
    1a6a:	90 e0       	ldi	r25, 0x00	; 0
    1a6c:	2c 87       	std	Y+12, r18	; 0x0c
    1a6e:	0e 94 b4 0d 	call	0x1b68	; 0x1b68 <fputc>
    1a72:	2c 85       	ldd	r18, Y+12	; 0x0c
    1a74:	22 ff       	sbrs	r18, 2
    1a76:	17 c0       	rjmp	.+46     	; 0x1aa6 <vfprintf+0x354>
    1a78:	21 ff       	sbrs	r18, 1
    1a7a:	03 c0       	rjmp	.+6      	; 0x1a82 <vfprintf+0x330>
    1a7c:	88 e5       	ldi	r24, 0x58	; 88
    1a7e:	90 e0       	ldi	r25, 0x00	; 0
    1a80:	02 c0       	rjmp	.+4      	; 0x1a86 <vfprintf+0x334>
    1a82:	88 e7       	ldi	r24, 0x78	; 120
    1a84:	90 e0       	ldi	r25, 0x00	; 0
    1a86:	b7 01       	movw	r22, r14
    1a88:	0c c0       	rjmp	.+24     	; 0x1aa2 <vfprintf+0x350>
    1a8a:	82 2f       	mov	r24, r18
    1a8c:	86 78       	andi	r24, 0x86	; 134
    1a8e:	59 f0       	breq	.+22     	; 0x1aa6 <vfprintf+0x354>
    1a90:	21 fd       	sbrc	r18, 1
    1a92:	02 c0       	rjmp	.+4      	; 0x1a98 <vfprintf+0x346>
    1a94:	80 e2       	ldi	r24, 0x20	; 32
    1a96:	01 c0       	rjmp	.+2      	; 0x1a9a <vfprintf+0x348>
    1a98:	8b e2       	ldi	r24, 0x2B	; 43
    1a9a:	27 fd       	sbrc	r18, 7
    1a9c:	8d e2       	ldi	r24, 0x2D	; 45
    1a9e:	b7 01       	movw	r22, r14
    1aa0:	90 e0       	ldi	r25, 0x00	; 0
    1aa2:	0e 94 b4 0d 	call	0x1b68	; 0x1b68 <fputc>
    1aa6:	a5 14       	cp	r10, r5
    1aa8:	38 f4       	brcc	.+14     	; 0x1ab8 <vfprintf+0x366>
    1aaa:	b7 01       	movw	r22, r14
    1aac:	80 e3       	ldi	r24, 0x30	; 48
    1aae:	90 e0       	ldi	r25, 0x00	; 0
    1ab0:	0e 94 b4 0d 	call	0x1b68	; 0x1b68 <fputc>
    1ab4:	5a 94       	dec	r5
    1ab6:	f7 cf       	rjmp	.-18     	; 0x1aa6 <vfprintf+0x354>
    1ab8:	aa 94       	dec	r10
    1aba:	f4 01       	movw	r30, r8
    1abc:	ea 0d       	add	r30, r10
    1abe:	f1 1d       	adc	r31, r1
    1ac0:	80 81       	ld	r24, Z
    1ac2:	b7 01       	movw	r22, r14
    1ac4:	90 e0       	ldi	r25, 0x00	; 0
    1ac6:	0e 94 b4 0d 	call	0x1b68	; 0x1b68 <fputc>
    1aca:	a1 10       	cpse	r10, r1
    1acc:	f5 cf       	rjmp	.-22     	; 0x1ab8 <vfprintf+0x366>
    1ace:	33 20       	and	r3, r3
    1ad0:	09 f4       	brne	.+2      	; 0x1ad4 <vfprintf+0x382>
    1ad2:	51 ce       	rjmp	.-862    	; 0x1776 <vfprintf+0x24>
    1ad4:	b7 01       	movw	r22, r14
    1ad6:	80 e2       	ldi	r24, 0x20	; 32
    1ad8:	90 e0       	ldi	r25, 0x00	; 0
    1ada:	0e 94 b4 0d 	call	0x1b68	; 0x1b68 <fputc>
    1ade:	3a 94       	dec	r3
    1ae0:	f6 cf       	rjmp	.-20     	; 0x1ace <vfprintf+0x37c>
    1ae2:	f7 01       	movw	r30, r14
    1ae4:	86 81       	ldd	r24, Z+6	; 0x06
    1ae6:	97 81       	ldd	r25, Z+7	; 0x07
    1ae8:	02 c0       	rjmp	.+4      	; 0x1aee <vfprintf+0x39c>
    1aea:	8f ef       	ldi	r24, 0xFF	; 255
    1aec:	9f ef       	ldi	r25, 0xFF	; 255
    1aee:	2c 96       	adiw	r28, 0x0c	; 12
    1af0:	e2 e1       	ldi	r30, 0x12	; 18
    1af2:	0c 94 60 0e 	jmp	0x1cc0	; 0x1cc0 <__epilogue_restores__>

00001af6 <calloc>:
    1af6:	0f 93       	push	r16
    1af8:	1f 93       	push	r17
    1afa:	cf 93       	push	r28
    1afc:	df 93       	push	r29
    1afe:	86 9f       	mul	r24, r22
    1b00:	80 01       	movw	r16, r0
    1b02:	87 9f       	mul	r24, r23
    1b04:	10 0d       	add	r17, r0
    1b06:	96 9f       	mul	r25, r22
    1b08:	10 0d       	add	r17, r0
    1b0a:	11 24       	eor	r1, r1
    1b0c:	c8 01       	movw	r24, r16
    1b0e:	0e 94 f6 09 	call	0x13ec	; 0x13ec <malloc>
    1b12:	ec 01       	movw	r28, r24
    1b14:	00 97       	sbiw	r24, 0x00	; 0
    1b16:	29 f0       	breq	.+10     	; 0x1b22 <calloc+0x2c>
    1b18:	a8 01       	movw	r20, r16
    1b1a:	60 e0       	ldi	r22, 0x00	; 0
    1b1c:	70 e0       	ldi	r23, 0x00	; 0
    1b1e:	0e 94 a2 0d 	call	0x1b44	; 0x1b44 <memset>
    1b22:	ce 01       	movw	r24, r28
    1b24:	df 91       	pop	r29
    1b26:	cf 91       	pop	r28
    1b28:	1f 91       	pop	r17
    1b2a:	0f 91       	pop	r16
    1b2c:	08 95       	ret

00001b2e <strnlen_P>:
    1b2e:	fc 01       	movw	r30, r24
    1b30:	05 90       	lpm	r0, Z+
    1b32:	61 50       	subi	r22, 0x01	; 1
    1b34:	70 40       	sbci	r23, 0x00	; 0
    1b36:	01 10       	cpse	r0, r1
    1b38:	d8 f7       	brcc	.-10     	; 0x1b30 <strnlen_P+0x2>
    1b3a:	80 95       	com	r24
    1b3c:	90 95       	com	r25
    1b3e:	8e 0f       	add	r24, r30
    1b40:	9f 1f       	adc	r25, r31
    1b42:	08 95       	ret

00001b44 <memset>:
    1b44:	dc 01       	movw	r26, r24
    1b46:	01 c0       	rjmp	.+2      	; 0x1b4a <memset+0x6>
    1b48:	6d 93       	st	X+, r22
    1b4a:	41 50       	subi	r20, 0x01	; 1
    1b4c:	50 40       	sbci	r21, 0x00	; 0
    1b4e:	e0 f7       	brcc	.-8      	; 0x1b48 <memset+0x4>
    1b50:	08 95       	ret

00001b52 <strnlen>:
    1b52:	fc 01       	movw	r30, r24
    1b54:	61 50       	subi	r22, 0x01	; 1
    1b56:	70 40       	sbci	r23, 0x00	; 0
    1b58:	01 90       	ld	r0, Z+
    1b5a:	01 10       	cpse	r0, r1
    1b5c:	d8 f7       	brcc	.-10     	; 0x1b54 <strnlen+0x2>
    1b5e:	80 95       	com	r24
    1b60:	90 95       	com	r25
    1b62:	8e 0f       	add	r24, r30
    1b64:	9f 1f       	adc	r25, r31
    1b66:	08 95       	ret

00001b68 <fputc>:
    1b68:	0f 93       	push	r16
    1b6a:	1f 93       	push	r17
    1b6c:	cf 93       	push	r28
    1b6e:	df 93       	push	r29
    1b70:	18 2f       	mov	r17, r24
    1b72:	09 2f       	mov	r16, r25
    1b74:	eb 01       	movw	r28, r22
    1b76:	8b 81       	ldd	r24, Y+3	; 0x03
    1b78:	81 fd       	sbrc	r24, 1
    1b7a:	03 c0       	rjmp	.+6      	; 0x1b82 <fputc+0x1a>
    1b7c:	8f ef       	ldi	r24, 0xFF	; 255
    1b7e:	9f ef       	ldi	r25, 0xFF	; 255
    1b80:	20 c0       	rjmp	.+64     	; 0x1bc2 <fputc+0x5a>
    1b82:	82 ff       	sbrs	r24, 2
    1b84:	10 c0       	rjmp	.+32     	; 0x1ba6 <fputc+0x3e>
    1b86:	4e 81       	ldd	r20, Y+6	; 0x06
    1b88:	5f 81       	ldd	r21, Y+7	; 0x07
    1b8a:	2c 81       	ldd	r18, Y+4	; 0x04
    1b8c:	3d 81       	ldd	r19, Y+5	; 0x05
    1b8e:	42 17       	cp	r20, r18
    1b90:	53 07       	cpc	r21, r19
    1b92:	7c f4       	brge	.+30     	; 0x1bb2 <fputc+0x4a>
    1b94:	e8 81       	ld	r30, Y
    1b96:	f9 81       	ldd	r31, Y+1	; 0x01
    1b98:	9f 01       	movw	r18, r30
    1b9a:	2f 5f       	subi	r18, 0xFF	; 255
    1b9c:	3f 4f       	sbci	r19, 0xFF	; 255
    1b9e:	39 83       	std	Y+1, r19	; 0x01
    1ba0:	28 83       	st	Y, r18
    1ba2:	10 83       	st	Z, r17
    1ba4:	06 c0       	rjmp	.+12     	; 0x1bb2 <fputc+0x4a>
    1ba6:	e8 85       	ldd	r30, Y+8	; 0x08
    1ba8:	f9 85       	ldd	r31, Y+9	; 0x09
    1baa:	81 2f       	mov	r24, r17
    1bac:	09 95       	icall
    1bae:	89 2b       	or	r24, r25
    1bb0:	29 f7       	brne	.-54     	; 0x1b7c <fputc+0x14>
    1bb2:	2e 81       	ldd	r18, Y+6	; 0x06
    1bb4:	3f 81       	ldd	r19, Y+7	; 0x07
    1bb6:	2f 5f       	subi	r18, 0xFF	; 255
    1bb8:	3f 4f       	sbci	r19, 0xFF	; 255
    1bba:	3f 83       	std	Y+7, r19	; 0x07
    1bbc:	2e 83       	std	Y+6, r18	; 0x06
    1bbe:	81 2f       	mov	r24, r17
    1bc0:	90 2f       	mov	r25, r16
    1bc2:	df 91       	pop	r29
    1bc4:	cf 91       	pop	r28
    1bc6:	1f 91       	pop	r17
    1bc8:	0f 91       	pop	r16
    1bca:	08 95       	ret

00001bcc <__ultoa_invert>:
    1bcc:	fa 01       	movw	r30, r20
    1bce:	aa 27       	eor	r26, r26
    1bd0:	28 30       	cpi	r18, 0x08	; 8
    1bd2:	51 f1       	breq	.+84     	; 0x1c28 <__ultoa_invert+0x5c>
    1bd4:	20 31       	cpi	r18, 0x10	; 16
    1bd6:	81 f1       	breq	.+96     	; 0x1c38 <__ultoa_invert+0x6c>
    1bd8:	e8 94       	clt
    1bda:	6f 93       	push	r22
    1bdc:	6e 7f       	andi	r22, 0xFE	; 254
    1bde:	6e 5f       	subi	r22, 0xFE	; 254
    1be0:	7f 4f       	sbci	r23, 0xFF	; 255
    1be2:	8f 4f       	sbci	r24, 0xFF	; 255
    1be4:	9f 4f       	sbci	r25, 0xFF	; 255
    1be6:	af 4f       	sbci	r26, 0xFF	; 255
    1be8:	b1 e0       	ldi	r27, 0x01	; 1
    1bea:	3e d0       	rcall	.+124    	; 0x1c68 <__ultoa_invert+0x9c>
    1bec:	b4 e0       	ldi	r27, 0x04	; 4
    1bee:	3c d0       	rcall	.+120    	; 0x1c68 <__ultoa_invert+0x9c>
    1bf0:	67 0f       	add	r22, r23
    1bf2:	78 1f       	adc	r23, r24
    1bf4:	89 1f       	adc	r24, r25
    1bf6:	9a 1f       	adc	r25, r26
    1bf8:	a1 1d       	adc	r26, r1
    1bfa:	68 0f       	add	r22, r24
    1bfc:	79 1f       	adc	r23, r25
    1bfe:	8a 1f       	adc	r24, r26
    1c00:	91 1d       	adc	r25, r1
    1c02:	a1 1d       	adc	r26, r1
    1c04:	6a 0f       	add	r22, r26
    1c06:	71 1d       	adc	r23, r1
    1c08:	81 1d       	adc	r24, r1
    1c0a:	91 1d       	adc	r25, r1
    1c0c:	a1 1d       	adc	r26, r1
    1c0e:	20 d0       	rcall	.+64     	; 0x1c50 <__ultoa_invert+0x84>
    1c10:	09 f4       	brne	.+2      	; 0x1c14 <__ultoa_invert+0x48>
    1c12:	68 94       	set
    1c14:	3f 91       	pop	r19
    1c16:	2a e0       	ldi	r18, 0x0A	; 10
    1c18:	26 9f       	mul	r18, r22
    1c1a:	11 24       	eor	r1, r1
    1c1c:	30 19       	sub	r19, r0
    1c1e:	30 5d       	subi	r19, 0xD0	; 208
    1c20:	31 93       	st	Z+, r19
    1c22:	de f6       	brtc	.-74     	; 0x1bda <__ultoa_invert+0xe>
    1c24:	cf 01       	movw	r24, r30
    1c26:	08 95       	ret
    1c28:	46 2f       	mov	r20, r22
    1c2a:	47 70       	andi	r20, 0x07	; 7
    1c2c:	40 5d       	subi	r20, 0xD0	; 208
    1c2e:	41 93       	st	Z+, r20
    1c30:	b3 e0       	ldi	r27, 0x03	; 3
    1c32:	0f d0       	rcall	.+30     	; 0x1c52 <__ultoa_invert+0x86>
    1c34:	c9 f7       	brne	.-14     	; 0x1c28 <__ultoa_invert+0x5c>
    1c36:	f6 cf       	rjmp	.-20     	; 0x1c24 <__ultoa_invert+0x58>
    1c38:	46 2f       	mov	r20, r22
    1c3a:	4f 70       	andi	r20, 0x0F	; 15
    1c3c:	40 5d       	subi	r20, 0xD0	; 208
    1c3e:	4a 33       	cpi	r20, 0x3A	; 58
    1c40:	18 f0       	brcs	.+6      	; 0x1c48 <__ultoa_invert+0x7c>
    1c42:	49 5d       	subi	r20, 0xD9	; 217
    1c44:	31 fd       	sbrc	r19, 1
    1c46:	40 52       	subi	r20, 0x20	; 32
    1c48:	41 93       	st	Z+, r20
    1c4a:	02 d0       	rcall	.+4      	; 0x1c50 <__ultoa_invert+0x84>
    1c4c:	a9 f7       	brne	.-22     	; 0x1c38 <__ultoa_invert+0x6c>
    1c4e:	ea cf       	rjmp	.-44     	; 0x1c24 <__ultoa_invert+0x58>
    1c50:	b4 e0       	ldi	r27, 0x04	; 4
    1c52:	a6 95       	lsr	r26
    1c54:	97 95       	ror	r25
    1c56:	87 95       	ror	r24
    1c58:	77 95       	ror	r23
    1c5a:	67 95       	ror	r22
    1c5c:	ba 95       	dec	r27
    1c5e:	c9 f7       	brne	.-14     	; 0x1c52 <__ultoa_invert+0x86>
    1c60:	00 97       	sbiw	r24, 0x00	; 0
    1c62:	61 05       	cpc	r22, r1
    1c64:	71 05       	cpc	r23, r1
    1c66:	08 95       	ret
    1c68:	9b 01       	movw	r18, r22
    1c6a:	ac 01       	movw	r20, r24
    1c6c:	0a 2e       	mov	r0, r26
    1c6e:	06 94       	lsr	r0
    1c70:	57 95       	ror	r21
    1c72:	47 95       	ror	r20
    1c74:	37 95       	ror	r19
    1c76:	27 95       	ror	r18
    1c78:	ba 95       	dec	r27
    1c7a:	c9 f7       	brne	.-14     	; 0x1c6e <__ultoa_invert+0xa2>
    1c7c:	62 0f       	add	r22, r18
    1c7e:	73 1f       	adc	r23, r19
    1c80:	84 1f       	adc	r24, r20
    1c82:	95 1f       	adc	r25, r21
    1c84:	a0 1d       	adc	r26, r0
    1c86:	08 95       	ret

00001c88 <__prologue_saves__>:
    1c88:	2f 92       	push	r2
    1c8a:	3f 92       	push	r3
    1c8c:	4f 92       	push	r4
    1c8e:	5f 92       	push	r5
    1c90:	6f 92       	push	r6
    1c92:	7f 92       	push	r7
    1c94:	8f 92       	push	r8
    1c96:	9f 92       	push	r9
    1c98:	af 92       	push	r10
    1c9a:	bf 92       	push	r11
    1c9c:	cf 92       	push	r12
    1c9e:	df 92       	push	r13
    1ca0:	ef 92       	push	r14
    1ca2:	ff 92       	push	r15
    1ca4:	0f 93       	push	r16
    1ca6:	1f 93       	push	r17
    1ca8:	cf 93       	push	r28
    1caa:	df 93       	push	r29
    1cac:	cd b7       	in	r28, 0x3d	; 61
    1cae:	de b7       	in	r29, 0x3e	; 62
    1cb0:	ca 1b       	sub	r28, r26
    1cb2:	db 0b       	sbc	r29, r27
    1cb4:	0f b6       	in	r0, 0x3f	; 63
    1cb6:	f8 94       	cli
    1cb8:	de bf       	out	0x3e, r29	; 62
    1cba:	0f be       	out	0x3f, r0	; 63
    1cbc:	cd bf       	out	0x3d, r28	; 61
    1cbe:	09 94       	ijmp

00001cc0 <__epilogue_restores__>:
    1cc0:	2a 88       	ldd	r2, Y+18	; 0x12
    1cc2:	39 88       	ldd	r3, Y+17	; 0x11
    1cc4:	48 88       	ldd	r4, Y+16	; 0x10
    1cc6:	5f 84       	ldd	r5, Y+15	; 0x0f
    1cc8:	6e 84       	ldd	r6, Y+14	; 0x0e
    1cca:	7d 84       	ldd	r7, Y+13	; 0x0d
    1ccc:	8c 84       	ldd	r8, Y+12	; 0x0c
    1cce:	9b 84       	ldd	r9, Y+11	; 0x0b
    1cd0:	aa 84       	ldd	r10, Y+10	; 0x0a
    1cd2:	b9 84       	ldd	r11, Y+9	; 0x09
    1cd4:	c8 84       	ldd	r12, Y+8	; 0x08
    1cd6:	df 80       	ldd	r13, Y+7	; 0x07
    1cd8:	ee 80       	ldd	r14, Y+6	; 0x06
    1cda:	fd 80       	ldd	r15, Y+5	; 0x05
    1cdc:	0c 81       	ldd	r16, Y+4	; 0x04
    1cde:	1b 81       	ldd	r17, Y+3	; 0x03
    1ce0:	aa 81       	ldd	r26, Y+2	; 0x02
    1ce2:	b9 81       	ldd	r27, Y+1	; 0x01
    1ce4:	ce 0f       	add	r28, r30
    1ce6:	d1 1d       	adc	r29, r1
    1ce8:	0f b6       	in	r0, 0x3f	; 63
    1cea:	f8 94       	cli
    1cec:	de bf       	out	0x3e, r29	; 62
    1cee:	0f be       	out	0x3f, r0	; 63
    1cf0:	cd bf       	out	0x3d, r28	; 61
    1cf2:	ed 01       	movw	r28, r26
    1cf4:	08 95       	ret

00001cf6 <_exit>:
    1cf6:	f8 94       	cli

00001cf8 <__stop_program>:
    1cf8:	ff cf       	rjmp	.-2      	; 0x1cf8 <__stop_program>
