
ping_pong.elf:     file format elf32-avr

Sections:
Idx Name          Size      VMA       LMA       File off  Algn
  0 .data         00000168  00800100  00001eda  00001f6e  2**0
                  CONTENTS, ALLOC, LOAD, DATA
  1 .text         00001eda  00000000  00000000  00000094  2**1
                  CONTENTS, ALLOC, LOAD, READONLY, CODE
  2 .bss          00000020  00800268  00800268  000020d6  2**0
                  ALLOC
  3 .comment      0000005c  00000000  00000000  000020d6  2**0
                  CONTENTS, READONLY
  4 .debug_aranges 00000340  00000000  00000000  00002132  2**0
                  CONTENTS, READONLY, DEBUGGING
  5 .debug_info   0000356d  00000000  00000000  00002472  2**0
                  CONTENTS, READONLY, DEBUGGING
  6 .debug_abbrev 00001354  00000000  00000000  000059df  2**0
                  CONTENTS, READONLY, DEBUGGING
  7 .debug_line   0000124f  00000000  00000000  00006d33  2**0
                  CONTENTS, READONLY, DEBUGGING
  8 .debug_frame  000008d0  00000000  00000000  00007f84  2**2
                  CONTENTS, READONLY, DEBUGGING
  9 .debug_str    0000096d  00000000  00000000  00008854  2**0
                  CONTENTS, READONLY, DEBUGGING
 10 .debug_loc    00001dfe  00000000  00000000  000091c1  2**0
                  CONTENTS, READONLY, DEBUGGING
 11 .debug_ranges 00000308  00000000  00000000  0000afbf  2**0
                  CONTENTS, READONLY, DEBUGGING

Disassembly of section .text:

00000000 <__vectors>:
       0:	0c 94 b4 01 	jmp	0x368	; 0x368 <__ctors_end>
       4:	0c 94 f0 02 	jmp	0x5e0	; 0x5e0 <__vector_1>
       8:	0c 94 d1 01 	jmp	0x3a2	; 0x3a2 <__bad_interrupt>
       c:	0c 94 01 02 	jmp	0x402	; 0x402 <__vector_3>
      10:	0c 94 d1 01 	jmp	0x3a2	; 0x3a2 <__bad_interrupt>
      14:	0c 94 d1 01 	jmp	0x3a2	; 0x3a2 <__bad_interrupt>
      18:	0c 94 d1 01 	jmp	0x3a2	; 0x3a2 <__bad_interrupt>
      1c:	0c 94 d1 01 	jmp	0x3a2	; 0x3a2 <__bad_interrupt>
      20:	0c 94 d1 01 	jmp	0x3a2	; 0x3a2 <__bad_interrupt>
      24:	0c 94 4e 04 	jmp	0x89c	; 0x89c <__vector_9>
      28:	0c 94 d1 01 	jmp	0x3a2	; 0x3a2 <__bad_interrupt>
      2c:	0c 94 d1 01 	jmp	0x3a2	; 0x3a2 <__bad_interrupt>
      30:	0c 94 d1 01 	jmp	0x3a2	; 0x3a2 <__bad_interrupt>
      34:	0c 94 d1 01 	jmp	0x3a2	; 0x3a2 <__bad_interrupt>
      38:	0c 94 d1 01 	jmp	0x3a2	; 0x3a2 <__bad_interrupt>
      3c:	0c 94 31 04 	jmp	0x862	; 0x862 <__vector_15>
      40:	0c 94 d1 01 	jmp	0x3a2	; 0x3a2 <__bad_interrupt>
      44:	0c 94 d1 01 	jmp	0x3a2	; 0x3a2 <__bad_interrupt>
      48:	0c 94 d1 01 	jmp	0x3a2	; 0x3a2 <__bad_interrupt>
      4c:	0c 94 d1 01 	jmp	0x3a2	; 0x3a2 <__bad_interrupt>
      50:	0c 94 d1 01 	jmp	0x3a2	; 0x3a2 <__bad_interrupt>
      54:	0c 94 d1 01 	jmp	0x3a2	; 0x3a2 <__bad_interrupt>
      58:	0c 94 d1 01 	jmp	0x3a2	; 0x3a2 <__bad_interrupt>
      5c:	0c 94 d1 01 	jmp	0x3a2	; 0x3a2 <__bad_interrupt>
      60:	0c 94 d1 01 	jmp	0x3a2	; 0x3a2 <__bad_interrupt>
      64:	0c 94 d1 01 	jmp	0x3a2	; 0x3a2 <__bad_interrupt>
      68:	0c 94 d1 01 	jmp	0x3a2	; 0x3a2 <__bad_interrupt>
      6c:	0c 94 d1 01 	jmp	0x3a2	; 0x3a2 <__bad_interrupt>

00000070 <__trampolines_end>:
	...
      78:	00 06       	cpc	r0, r16
      7a:	5f 5f       	subi	r21, 0xFF	; 255
      7c:	06 00       	.word	0x0006	; ????
      7e:	00 00       	nop
      80:	00 07       	cpc	r16, r16
      82:	07 00       	.word	0x0007	; ????
      84:	07 07       	cpc	r16, r23
      86:	00 00       	nop
      88:	14 7f       	andi	r17, 0xF4	; 244
      8a:	7f 14       	cp	r7, r15
      8c:	7f 7f       	andi	r23, 0xFF	; 255
      8e:	14 00       	.word	0x0014	; ????
      90:	24 2e       	mov	r2, r20
      92:	6b 6b       	ori	r22, 0xBB	; 187
      94:	3a 12       	cpse	r3, r26
      96:	00 00       	nop
      98:	46 66       	ori	r20, 0x66	; 102
      9a:	30 18       	sub	r3, r0
      9c:	0c 66       	ori	r16, 0x6C	; 108
      9e:	62 00       	.word	0x0062	; ????
      a0:	30 7a       	andi	r19, 0xA0	; 160
      a2:	4f 5d       	subi	r20, 0xDF	; 223
      a4:	37 7a       	andi	r19, 0xA7	; 167
      a6:	48 00       	.word	0x0048	; ????
      a8:	04 07       	cpc	r16, r20
      aa:	03 00       	.word	0x0003	; ????
      ac:	00 00       	nop
      ae:	00 00       	nop
      b0:	00 1c       	adc	r0, r0
      b2:	3e 63       	ori	r19, 0x3E	; 62
      b4:	41 00       	.word	0x0041	; ????
      b6:	00 00       	nop
      b8:	00 41       	sbci	r16, 0x10	; 16
      ba:	63 3e       	cpi	r22, 0xE3	; 227
      bc:	1c 00       	.word	0x001c	; ????
      be:	00 00       	nop
      c0:	08 2a       	or	r0, r24
      c2:	3e 1c       	adc	r3, r14
      c4:	1c 3e       	cpi	r17, 0xEC	; 236
      c6:	2a 08       	sbc	r2, r10
      c8:	08 08       	sbc	r0, r8
      ca:	3e 3e       	cpi	r19, 0xEE	; 238
      cc:	08 08       	sbc	r0, r8
      ce:	00 00       	nop
      d0:	00 a0       	ldd	r0, Z+32	; 0x20
      d2:	e0 60       	ori	r30, 0x00	; 0
      d4:	00 00       	nop
      d6:	00 00       	nop
      d8:	08 08       	sbc	r0, r8
      da:	08 08       	sbc	r0, r8
      dc:	08 08       	sbc	r0, r8
      de:	00 00       	nop
      e0:	00 00       	nop
      e2:	60 60       	ori	r22, 0x00	; 0
      e4:	00 00       	nop
      e6:	00 00       	nop
      e8:	60 30       	cpi	r22, 0x00	; 0
      ea:	18 0c       	add	r1, r8
      ec:	06 03       	mulsu	r16, r22
      ee:	01 00       	.word	0x0001	; ????
      f0:	3e 7f       	andi	r19, 0xFE	; 254
      f2:	59 4d       	sbci	r21, 0xD9	; 217
      f4:	7f 3e       	cpi	r23, 0xEF	; 239
      f6:	00 00       	nop
      f8:	42 42       	sbci	r20, 0x22	; 34
      fa:	7f 7f       	andi	r23, 0xFF	; 255
      fc:	40 40       	sbci	r20, 0x00	; 0
      fe:	00 00       	nop
     100:	62 73       	andi	r22, 0x32	; 50
     102:	59 49       	sbci	r21, 0x99	; 153
     104:	6f 66       	ori	r22, 0x6F	; 111
     106:	00 00       	nop
     108:	22 63       	ori	r18, 0x32	; 50
     10a:	49 49       	sbci	r20, 0x99	; 153
     10c:	7f 36       	cpi	r23, 0x6F	; 111
     10e:	00 00       	nop
     110:	18 1c       	adc	r1, r8
     112:	16 13       	cpse	r17, r22
     114:	7f 7f       	andi	r23, 0xFF	; 255
     116:	10 00       	.word	0x0010	; ????
     118:	27 67       	ori	r18, 0x77	; 119
     11a:	45 45       	sbci	r20, 0x55	; 85
     11c:	7d 39       	cpi	r23, 0x9D	; 157
     11e:	00 00       	nop
     120:	3c 7e       	andi	r19, 0xEC	; 236
     122:	4b 49       	sbci	r20, 0x9B	; 155
     124:	79 30       	cpi	r23, 0x09	; 9
     126:	00 00       	nop
     128:	03 63       	ori	r16, 0x33	; 51
     12a:	71 19       	sub	r23, r1
     12c:	0f 07       	cpc	r16, r31
     12e:	00 00       	nop
     130:	36 7f       	andi	r19, 0xF6	; 246
     132:	49 49       	sbci	r20, 0x99	; 153
     134:	7f 36       	cpi	r23, 0x6F	; 111
     136:	00 00       	nop
     138:	06 4f       	sbci	r16, 0xF6	; 246
     13a:	49 69       	ori	r20, 0x99	; 153
     13c:	3f 1e       	adc	r3, r31
     13e:	00 00       	nop
     140:	00 00       	nop
     142:	6c 6c       	ori	r22, 0xCC	; 204
     144:	00 00       	nop
     146:	00 00       	nop
     148:	00 a0       	ldd	r0, Z+32	; 0x20
     14a:	ec 6c       	ori	r30, 0xCC	; 204
     14c:	00 00       	nop
     14e:	00 00       	nop
     150:	08 1c       	adc	r0, r8
     152:	36 63       	ori	r19, 0x36	; 54
     154:	41 00       	.word	0x0041	; ????
     156:	00 00       	nop
     158:	14 14       	cp	r1, r4
     15a:	14 14       	cp	r1, r4
     15c:	14 14       	cp	r1, r4
     15e:	00 00       	nop
     160:	00 41       	sbci	r16, 0x10	; 16
     162:	63 36       	cpi	r22, 0x63	; 99
     164:	1c 08       	sbc	r1, r12
     166:	00 00       	nop
     168:	02 03       	mulsu	r16, r18
     16a:	51 59       	subi	r21, 0x91	; 145
     16c:	0f 06       	cpc	r0, r31
     16e:	00 00       	nop
     170:	3e 7f       	andi	r19, 0xFE	; 254
     172:	41 5d       	subi	r20, 0xD1	; 209
     174:	5d 1f       	adc	r21, r29
     176:	1e 00       	.word	0x001e	; ????
     178:	7c 7e       	andi	r23, 0xEC	; 236
     17a:	13 13       	cpse	r17, r19
     17c:	7e 7c       	andi	r23, 0xCE	; 206
     17e:	00 00       	nop
     180:	41 7f       	andi	r20, 0xF1	; 241
     182:	7f 49       	sbci	r23, 0x9F	; 159
     184:	49 7f       	andi	r20, 0xF9	; 249
     186:	36 00       	.word	0x0036	; ????
     188:	1c 3e       	cpi	r17, 0xEC	; 236
     18a:	63 41       	sbci	r22, 0x13	; 19
     18c:	41 63       	ori	r20, 0x31	; 49
     18e:	22 00       	.word	0x0022	; ????
     190:	41 7f       	andi	r20, 0xF1	; 241
     192:	7f 41       	sbci	r23, 0x1F	; 31
     194:	63 7f       	andi	r22, 0xF3	; 243
     196:	1c 00       	.word	0x001c	; ????
     198:	41 7f       	andi	r20, 0xF1	; 241
     19a:	7f 49       	sbci	r23, 0x9F	; 159
     19c:	5d 41       	sbci	r21, 0x1D	; 29
     19e:	63 00       	.word	0x0063	; ????
     1a0:	41 7f       	andi	r20, 0xF1	; 241
     1a2:	7f 49       	sbci	r23, 0x9F	; 159
     1a4:	1d 01       	movw	r2, r26
     1a6:	03 00       	.word	0x0003	; ????
     1a8:	1c 3e       	cpi	r17, 0xEC	; 236
     1aa:	63 41       	sbci	r22, 0x13	; 19
     1ac:	51 73       	andi	r21, 0x31	; 49
     1ae:	72 00       	.word	0x0072	; ????
     1b0:	7f 7f       	andi	r23, 0xFF	; 255
     1b2:	08 08       	sbc	r0, r8
     1b4:	7f 7f       	andi	r23, 0xFF	; 255
     1b6:	00 00       	nop
     1b8:	00 41       	sbci	r16, 0x10	; 16
     1ba:	7f 7f       	andi	r23, 0xFF	; 255
     1bc:	41 00       	.word	0x0041	; ????
     1be:	00 00       	nop
     1c0:	30 70       	andi	r19, 0x00	; 0
     1c2:	40 41       	sbci	r20, 0x10	; 16
     1c4:	7f 3f       	cpi	r23, 0xFF	; 255
     1c6:	01 00       	.word	0x0001	; ????
     1c8:	41 7f       	andi	r20, 0xF1	; 241
     1ca:	7f 08       	sbc	r7, r15
     1cc:	1c 77       	andi	r17, 0x7C	; 124
     1ce:	63 00       	.word	0x0063	; ????
     1d0:	41 7f       	andi	r20, 0xF1	; 241
     1d2:	7f 41       	sbci	r23, 0x1F	; 31
     1d4:	40 60       	ori	r20, 0x00	; 0
     1d6:	70 00       	.word	0x0070	; ????
     1d8:	7f 7f       	andi	r23, 0xFF	; 255
     1da:	06 0c       	add	r0, r6
     1dc:	06 7f       	andi	r16, 0xF6	; 246
     1de:	7f 00       	.word	0x007f	; ????
     1e0:	7f 7f       	andi	r23, 0xFF	; 255
     1e2:	06 0c       	add	r0, r6
     1e4:	18 7f       	andi	r17, 0xF8	; 248
     1e6:	7f 00       	.word	0x007f	; ????
     1e8:	1c 3e       	cpi	r17, 0xEC	; 236
     1ea:	63 41       	sbci	r22, 0x13	; 19
     1ec:	63 3e       	cpi	r22, 0xE3	; 227
     1ee:	1c 00       	.word	0x001c	; ????
     1f0:	41 7f       	andi	r20, 0xF1	; 241
     1f2:	7f 49       	sbci	r23, 0x9F	; 159
     1f4:	09 0f       	add	r16, r25
     1f6:	06 00       	.word	0x0006	; ????
     1f8:	1e 3f       	cpi	r17, 0xFE	; 254
     1fa:	21 71       	andi	r18, 0x11	; 17
     1fc:	7f 5e       	subi	r23, 0xEF	; 239
     1fe:	00 00       	nop
     200:	41 7f       	andi	r20, 0xF1	; 241
     202:	7f 19       	sub	r23, r15
     204:	39 6f       	ori	r19, 0xF9	; 249
     206:	46 00       	.word	0x0046	; ????
     208:	26 67       	ori	r18, 0x76	; 118
     20a:	4d 59       	subi	r20, 0x9D	; 157
     20c:	7b 32       	cpi	r23, 0x2B	; 43
     20e:	00 00       	nop
     210:	03 41       	sbci	r16, 0x13	; 19
     212:	7f 7f       	andi	r23, 0xFF	; 255
     214:	41 03       	mulsu	r20, r17
     216:	00 00       	nop
     218:	7f 7f       	andi	r23, 0xFF	; 255
     21a:	40 40       	sbci	r20, 0x00	; 0
     21c:	7f 7f       	andi	r23, 0xFF	; 255
     21e:	00 00       	nop
     220:	1f 3f       	cpi	r17, 0xFF	; 255
     222:	60 60       	ori	r22, 0x00	; 0
     224:	3f 1f       	adc	r19, r31
     226:	00 00       	nop
     228:	7f 7f       	andi	r23, 0xFF	; 255
     22a:	30 18       	sub	r3, r0
     22c:	30 7f       	andi	r19, 0xF0	; 240
     22e:	7f 00       	.word	0x007f	; ????
     230:	63 77       	andi	r22, 0x73	; 115
     232:	1c 08       	sbc	r1, r12
     234:	1c 77       	andi	r17, 0x7C	; 124
     236:	63 00       	.word	0x0063	; ????
     238:	07 4f       	sbci	r16, 0xF7	; 247
     23a:	78 78       	andi	r23, 0x88	; 136
     23c:	4f 07       	cpc	r20, r31
     23e:	00 00       	nop
     240:	67 73       	andi	r22, 0x37	; 55
     242:	59 4d       	sbci	r21, 0xD9	; 217
     244:	47 63       	ori	r20, 0x37	; 55
     246:	71 00       	.word	0x0071	; ????
     248:	00 7f       	andi	r16, 0xF0	; 240
     24a:	7f 41       	sbci	r23, 0x1F	; 31
     24c:	41 00       	.word	0x0041	; ????
     24e:	00 00       	nop
     250:	01 03       	mulsu	r16, r17
     252:	06 0c       	add	r0, r6
     254:	18 30       	cpi	r17, 0x08	; 8
     256:	60 00       	.word	0x0060	; ????
     258:	00 41       	sbci	r16, 0x10	; 16
     25a:	41 7f       	andi	r20, 0xF1	; 241
     25c:	7f 00       	.word	0x007f	; ????
     25e:	00 00       	nop
     260:	08 0c       	add	r0, r8
     262:	06 03       	mulsu	r16, r22
     264:	06 0c       	add	r0, r6
     266:	08 00       	.word	0x0008	; ????
     268:	80 80       	ld	r8, Z
     26a:	80 80       	ld	r8, Z
     26c:	80 80       	ld	r8, Z
     26e:	80 80       	ld	r8, Z
     270:	00 00       	nop
     272:	03 07       	cpc	r16, r19
     274:	04 00       	.word	0x0004	; ????
     276:	00 00       	nop
     278:	20 74       	andi	r18, 0x40	; 64
     27a:	54 54       	subi	r21, 0x44	; 68
     27c:	3c 78       	andi	r19, 0x8C	; 140
     27e:	40 00       	.word	0x0040	; ????
     280:	41 3f       	cpi	r20, 0xF1	; 241
     282:	7f 44       	sbci	r23, 0x4F	; 79
     284:	44 7c       	andi	r20, 0xC4	; 196
     286:	38 00       	.word	0x0038	; ????
     288:	38 7c       	andi	r19, 0xC8	; 200
     28a:	44 44       	sbci	r20, 0x44	; 68
     28c:	6c 28       	or	r6, r12
     28e:	00 00       	nop
     290:	30 78       	andi	r19, 0x80	; 128
     292:	48 49       	sbci	r20, 0x98	; 152
     294:	3f 7f       	andi	r19, 0xFF	; 255
     296:	40 00       	.word	0x0040	; ????
     298:	38 7c       	andi	r19, 0xC8	; 200
     29a:	54 54       	subi	r21, 0x44	; 68
     29c:	5c 18       	sub	r5, r12
     29e:	00 00       	nop
     2a0:	48 7e       	andi	r20, 0xE8	; 232
     2a2:	7f 49       	sbci	r23, 0x9F	; 159
     2a4:	03 02       	muls	r16, r19
     2a6:	00 00       	nop
     2a8:	98 bc       	out	0x28, r9	; 40
     2aa:	a4 a4       	ldd	r10, Z+44	; 0x2c
     2ac:	f8 7c       	andi	r31, 0xC8	; 200
     2ae:	04 00       	.word	0x0004	; ????
     2b0:	41 7f       	andi	r20, 0xF1	; 241
     2b2:	7f 08       	sbc	r7, r15
     2b4:	04 7c       	andi	r16, 0xC4	; 196
     2b6:	78 00       	.word	0x0078	; ????
     2b8:	00 44       	sbci	r16, 0x40	; 64
     2ba:	7d 7d       	andi	r23, 0xDD	; 221
     2bc:	40 00       	.word	0x0040	; ????
     2be:	00 00       	nop
     2c0:	40 c4       	rjmp	.+2176   	; 0xb42 <UART_transmit>
     2c2:	84 fd       	sbrc	r24, 4
     2c4:	7d 00       	.word	0x007d	; ????
     2c6:	00 00       	nop
     2c8:	41 7f       	andi	r20, 0xF1	; 241
     2ca:	7f 10       	cpse	r7, r15
     2cc:	38 6c       	ori	r19, 0xC8	; 200
     2ce:	44 00       	.word	0x0044	; ????
     2d0:	00 41       	sbci	r16, 0x10	; 16
     2d2:	7f 7f       	andi	r23, 0xFF	; 255
     2d4:	40 00       	.word	0x0040	; ????
     2d6:	00 00       	nop
     2d8:	7c 7c       	andi	r23, 0xCC	; 204
     2da:	0c 18       	sub	r0, r12
     2dc:	0c 7c       	andi	r16, 0xCC	; 204
     2de:	78 00       	.word	0x0078	; ????
     2e0:	7c 7c       	andi	r23, 0xCC	; 204
     2e2:	04 04       	cpc	r0, r4
     2e4:	7c 78       	andi	r23, 0x8C	; 140
     2e6:	00 00       	nop
     2e8:	38 7c       	andi	r19, 0xC8	; 200
     2ea:	44 44       	sbci	r20, 0x44	; 68
     2ec:	7c 38       	cpi	r23, 0x8C	; 140
     2ee:	00 00       	nop
     2f0:	84 fc       	sbrc	r8, 4
     2f2:	f8 a4       	ldd	r15, Y+40	; 0x28
     2f4:	24 3c       	cpi	r18, 0xC4	; 196
     2f6:	18 00       	.word	0x0018	; ????
     2f8:	18 3c       	cpi	r17, 0xC8	; 200
     2fa:	24 a4       	ldd	r2, Z+44	; 0x2c
     2fc:	f8 fc       	.word	0xfcf8	; ????
     2fe:	84 00       	.word	0x0084	; ????
     300:	44 7c       	andi	r20, 0xC4	; 196
     302:	78 44       	sbci	r23, 0x48	; 72
     304:	1c 18       	sub	r1, r12
     306:	00 00       	nop
     308:	48 5c       	subi	r20, 0xC8	; 200
     30a:	54 54       	subi	r21, 0x44	; 68
     30c:	74 24       	eor	r7, r4
     30e:	00 00       	nop
     310:	00 04       	cpc	r0, r0
     312:	3e 7f       	andi	r19, 0xFE	; 254
     314:	44 24       	eor	r4, r4
     316:	00 00       	nop
     318:	3c 7c       	andi	r19, 0xCC	; 204
     31a:	40 40       	sbci	r20, 0x00	; 0
     31c:	3c 7c       	andi	r19, 0xCC	; 204
     31e:	40 00       	.word	0x0040	; ????
     320:	1c 3c       	cpi	r17, 0xCC	; 204
     322:	60 60       	ori	r22, 0x00	; 0
     324:	3c 1c       	adc	r3, r12
     326:	00 00       	nop
     328:	3c 7c       	andi	r19, 0xCC	; 204
     32a:	60 30       	cpi	r22, 0x00	; 0
     32c:	60 7c       	andi	r22, 0xC0	; 192
     32e:	3c 00       	.word	0x003c	; ????
     330:	44 6c       	ori	r20, 0xC4	; 196
     332:	38 10       	cpse	r3, r8
     334:	38 6c       	ori	r19, 0xC8	; 200
     336:	44 00       	.word	0x0044	; ????
     338:	9c bc       	out	0x2c, r9	; 44
     33a:	a0 a0       	ldd	r10, Z+32	; 0x20
     33c:	fc 7c       	andi	r31, 0xCC	; 204
     33e:	00 00       	nop
     340:	4c 64       	ori	r20, 0x4C	; 76
     342:	74 5c       	subi	r23, 0xC4	; 196
     344:	4c 64       	ori	r20, 0x4C	; 76
     346:	00 00       	nop
     348:	08 08       	sbc	r0, r8
     34a:	3e 77       	andi	r19, 0x7E	; 126
     34c:	41 41       	sbci	r20, 0x11	; 17
     34e:	00 00       	nop
     350:	00 00       	nop
     352:	00 77       	andi	r16, 0x70	; 112
     354:	77 00       	.word	0x0077	; ????
     356:	00 00       	nop
     358:	41 41       	sbci	r20, 0x11	; 17
     35a:	77 3e       	cpi	r23, 0xE7	; 231
     35c:	08 08       	sbc	r0, r8
     35e:	00 00       	nop
     360:	02 03       	mulsu	r16, r18
     362:	01 03       	mulsu	r16, r17
     364:	02 03       	mulsu	r16, r18
     366:	01 00       	.word	0x0001	; ????

00000368 <__ctors_end>:
     368:	11 24       	eor	r1, r1
     36a:	1f be       	out	0x3f, r1	; 63
     36c:	cf ef       	ldi	r28, 0xFF	; 255
     36e:	d4 e0       	ldi	r29, 0x04	; 4
     370:	de bf       	out	0x3e, r29	; 62
     372:	cd bf       	out	0x3d, r28	; 61

00000374 <__do_copy_data>:
     374:	12 e0       	ldi	r17, 0x02	; 2
     376:	a0 e0       	ldi	r26, 0x00	; 0
     378:	b1 e0       	ldi	r27, 0x01	; 1
     37a:	ea ed       	ldi	r30, 0xDA	; 218
     37c:	fe e1       	ldi	r31, 0x1E	; 30
     37e:	02 c0       	rjmp	.+4      	; 0x384 <__do_copy_data+0x10>
     380:	05 90       	lpm	r0, Z+
     382:	0d 92       	st	X+, r0
     384:	a8 36       	cpi	r26, 0x68	; 104
     386:	b1 07       	cpc	r27, r17
     388:	d9 f7       	brne	.-10     	; 0x380 <__do_copy_data+0xc>

0000038a <__do_clear_bss>:
     38a:	22 e0       	ldi	r18, 0x02	; 2
     38c:	a8 e6       	ldi	r26, 0x68	; 104
     38e:	b2 e0       	ldi	r27, 0x02	; 2
     390:	01 c0       	rjmp	.+2      	; 0x394 <.do_clear_bss_start>

00000392 <.do_clear_bss_loop>:
     392:	1d 92       	st	X+, r1

00000394 <.do_clear_bss_start>:
     394:	a8 38       	cpi	r26, 0x88	; 136
     396:	b2 07       	cpc	r27, r18
     398:	e1 f7       	brne	.-8      	; 0x392 <.do_clear_bss_loop>
     39a:	0e 94 69 0a 	call	0x14d2	; 0x14d2 <main>
     39e:	0c 94 6b 0f 	jmp	0x1ed6	; 0x1ed6 <_exit>

000003a2 <__bad_interrupt>:
     3a2:	0c 94 00 00 	jmp	0	; 0x0 <__vectors>

000003a6 <ADC_init>:

volatile int ADC_ready;

int ADC_init(void) {
	// Interrupt on rising edge PE0
	EMCUCR |= (1<<ISC2);
     3a6:	86 b7       	in	r24, 0x36	; 54
     3a8:	81 60       	ori	r24, 0x01	; 1
     3aa:	86 bf       	out	0x36, r24	; 54

	// Enable interrupt on PE0
	GICR |= (1<<INT2);
     3ac:	8b b7       	in	r24, 0x3b	; 59
     3ae:	80 62       	ori	r24, 0x20	; 32
     3b0:	8b bf       	out	0x3b, r24	; 59
	
	// Button input
	clr_bit(DDRE, PE0);
     3b2:	30 98       	cbi	0x06, 0	; 6
	
	//Enable the external memory interface/4 bits address
	MCUCR |= (1<<SRE);
     3b4:	85 b7       	in	r24, 0x35	; 53
     3b6:	80 68       	ori	r24, 0x80	; 128
     3b8:	85 bf       	out	0x35, r24	; 53
	SFIOR |= (1<<XMM2);
     3ba:	80 b7       	in	r24, 0x30	; 48
     3bc:	80 62       	ori	r24, 0x20	; 32
     3be:	80 bf       	out	0x30, r24	; 48
	
	//Set the interrupt pin to input
	DDRE &= ~(1<<PINE0);
     3c0:	30 98       	cbi	0x06, 0	; 6

	//set button pins to input
	clr_bit(DDRB, DDB0);
     3c2:	b8 98       	cbi	0x17, 0	; 23
	clr_bit(DDRB, DDB1);
     3c4:	b9 98       	cbi	0x17, 1	; 23
	
	//set joystick button to input
	clr_bit(DDRB, DDB2);
     3c6:	ba 98       	cbi	0x17, 2	; 23
	return 0;
}
     3c8:	80 e0       	ldi	r24, 0x00	; 0
     3ca:	90 e0       	ldi	r25, 0x00	; 0
     3cc:	08 95       	ret

000003ce <ADC_read>:
	#else
		//round up by default
		__ticks_dc = (uint32_t)(ceil(fabs(__tmp)));
	#endif

	__builtin_avr_delay_cycles(__ticks_dc);
     3ce:	e9 e9       	ldi	r30, 0x99	; 153
     3d0:	f9 e0       	ldi	r31, 0x09	; 9
     3d2:	31 97       	sbiw	r30, 0x01	; 1
     3d4:	f1 f7       	brne	.-4      	; 0x3d2 <ADC_read+0x4>
     3d6:	00 c0       	rjmp	.+0      	; 0x3d8 <ADC_read+0xa>
uint8_t ADC_read(uint8_t channel) {
	//Address for the ADC
	volatile char *adc = (char *) 0x1400;
	_delay_ms(2);
	//Choose channel in ADC
	*adc = 0x04 | channel;
     3d8:	84 60       	ori	r24, 0x04	; 4
     3da:	80 93 00 14 	sts	0x1400, r24
	while(!ADC_ready);
     3de:	80 91 76 02 	lds	r24, 0x0276
     3e2:	90 91 77 02 	lds	r25, 0x0277
     3e6:	89 2b       	or	r24, r25
     3e8:	d1 f3       	breq	.-12     	; 0x3de <ADC_read+0x10>
     3ea:	89 e9       	ldi	r24, 0x99	; 153
     3ec:	99 e0       	ldi	r25, 0x09	; 9
     3ee:	01 97       	sbiw	r24, 0x01	; 1
     3f0:	f1 f7       	brne	.-4      	; 0x3ee <ADC_read+0x20>
     3f2:	00 c0       	rjmp	.+0      	; 0x3f4 <ADC_read+0x26>
	_delay_ms(2);
	ADC_ready = 0; 
     3f4:	10 92 77 02 	sts	0x0277, r1
     3f8:	10 92 76 02 	sts	0x0276, r1
	return *adc;
     3fc:	80 91 00 14 	lds	r24, 0x1400
}
     400:	08 95       	ret

00000402 <__vector_3>:


ISR(INT2_vect){
     402:	1f 92       	push	r1
     404:	0f 92       	push	r0
     406:	0f b6       	in	r0, 0x3f	; 63
     408:	0f 92       	push	r0
     40a:	11 24       	eor	r1, r1
     40c:	8f 93       	push	r24
     40e:	9f 93       	push	r25
	ADC_ready = 1;
     410:	81 e0       	ldi	r24, 0x01	; 1
     412:	90 e0       	ldi	r25, 0x00	; 0
     414:	90 93 77 02 	sts	0x0277, r25
     418:	80 93 76 02 	sts	0x0276, r24
	//wake up the CPU
}
     41c:	9f 91       	pop	r25
     41e:	8f 91       	pop	r24
     420:	0f 90       	pop	r0
     422:	0f be       	out	0x3f, r0	; 63
     424:	0f 90       	pop	r0
     426:	1f 90       	pop	r1
     428:	18 95       	reti

0000042a <CAN_init>:
extern volatile uint8_t rx_int_flag; 


Message msg;

int CAN_init(){
     42a:	cf 93       	push	r28
     42c:	df 93       	push	r29
     42e:	1f 92       	push	r1
     430:	cd b7       	in	r28, 0x3d	; 61
     432:	de b7       	in	r29, 0x3e	; 62
	volatile uint8_t value;
	
	//config-mode
	MCP2515_init();
     434:	0e 94 49 05 	call	0xa92	; 0xa92 <MCP2515_init>
     438:	8c ec       	ldi	r24, 0xCC	; 204
     43a:	94 e0       	ldi	r25, 0x04	; 4
     43c:	01 97       	sbiw	r24, 0x01	; 1
     43e:	f1 f7       	brne	.-4      	; 0x43c <CAN_init+0x12>
     440:	00 c0       	rjmp	.+0      	; 0x442 <CAN_init+0x18>
     442:	00 00       	nop
	//enable interrupts in MCP
	//Interrupt when message received in RXB0
		
	
	
	value = MCP2515_read(MCP_CANSTAT);
     444:	8e e0       	ldi	r24, 0x0E	; 14
     446:	0e 94 4e 05 	call	0xa9c	; 0xa9c <MCP2515_read>
     44a:	89 83       	std	Y+1, r24	; 0x01
	if ((value & MODE_MASK) != MODE_CONFIG) {
     44c:	89 81       	ldd	r24, Y+1	; 0x01
     44e:	80 7e       	andi	r24, 0xE0	; 224
     450:	80 38       	cpi	r24, 0x80	; 128
     452:	39 f0       	breq	.+14     	; 0x462 <CAN_init+0x38>
		printf("MCP2515 is NOT in config mode after reset!\n");
     454:	83 e2       	ldi	r24, 0x23	; 35
     456:	91 e0       	ldi	r25, 0x01	; 1
     458:	0e 94 5c 0c 	call	0x18b8	; 0x18b8 <puts>
		return 1;
     45c:	81 e0       	ldi	r24, 0x01	; 1
     45e:	90 e0       	ldi	r25, 0x00	; 0
     460:	1f c0       	rjmp	.+62     	; 0x4a0 <CAN_init+0x76>
	}
	
	MCP2515_bit_modify(MCP_CANINTE, 0x01, 0x01);
     462:	41 e0       	ldi	r20, 0x01	; 1
     464:	61 e0       	ldi	r22, 0x01	; 1
     466:	8b e2       	ldi	r24, 0x2B	; 43
     468:	0e 94 87 05 	call	0xb0e	; 0xb0e <MCP2515_bit_modify>
	MCP2515_bit_modify(MCP_RXB0CTRL, 0x60, 0xFF);
     46c:	4f ef       	ldi	r20, 0xFF	; 255
     46e:	60 e6       	ldi	r22, 0x60	; 96
     470:	80 e6       	ldi	r24, 0x60	; 96
     472:	0e 94 87 05 	call	0xb0e	; 0xb0e <MCP2515_bit_modify>
	
	//Set loopback-mode
	MCP2515_bit_modify(MCP_CANCTRL, MODE_MASK , MODE_NORMAL);
     476:	40 e0       	ldi	r20, 0x00	; 0
     478:	60 ee       	ldi	r22, 0xE0	; 224
     47a:	8f e0       	ldi	r24, 0x0F	; 15
     47c:	0e 94 87 05 	call	0xb0e	; 0xb0e <MCP2515_bit_modify>
	
	value = MCP2515_read(MCP_CANSTAT);
     480:	8e e0       	ldi	r24, 0x0E	; 14
     482:	0e 94 4e 05 	call	0xa9c	; 0xa9c <MCP2515_read>
     486:	89 83       	std	Y+1, r24	; 0x01
	if ((value & MODE_MASK) != MODE_NORMAL) {
     488:	89 81       	ldd	r24, Y+1	; 0x01
     48a:	80 7e       	andi	r24, 0xE0	; 224
     48c:	39 f0       	breq	.+14     	; 0x49c <CAN_init+0x72>
		printf("MCP2515 is NOT in normal mode!\n");
     48e:	8e e4       	ldi	r24, 0x4E	; 78
     490:	91 e0       	ldi	r25, 0x01	; 1
     492:	0e 94 5c 0c 	call	0x18b8	; 0x18b8 <puts>
		return 1;
     496:	81 e0       	ldi	r24, 0x01	; 1
     498:	90 e0       	ldi	r25, 0x00	; 0
     49a:	02 c0       	rjmp	.+4      	; 0x4a0 <CAN_init+0x76>
	}
	
	return 0;
     49c:	80 e0       	ldi	r24, 0x00	; 0
     49e:	90 e0       	ldi	r25, 0x00	; 0
}
     4a0:	0f 90       	pop	r0
     4a2:	df 91       	pop	r29
     4a4:	cf 91       	pop	r28
     4a6:	08 95       	ret

000004a8 <CAN_transmit_complete>:
		
	}
}

int CAN_transmit_complete(){
	if ( test_bit(MCP2515_read(MCP_TXB0CTRL), 3)){
     4a8:	80 e3       	ldi	r24, 0x30	; 48
     4aa:	0e 94 4e 05 	call	0xa9c	; 0xa9c <MCP2515_read>
     4ae:	86 95       	lsr	r24
     4b0:	86 95       	lsr	r24
     4b2:	86 95       	lsr	r24
     4b4:	91 e0       	ldi	r25, 0x01	; 1
     4b6:	89 27       	eor	r24, r25
		return 0;
	}
	return 1;
}
     4b8:	81 70       	andi	r24, 0x01	; 1
     4ba:	90 e0       	ldi	r25, 0x00	; 0
     4bc:	08 95       	ret

000004be <CAN_send>:
	
	return 0;
}


void CAN_send(Message* msg){
     4be:	ef 92       	push	r14
     4c0:	ff 92       	push	r15
     4c2:	0f 93       	push	r16
     4c4:	1f 93       	push	r17
     4c6:	cf 93       	push	r28
     4c8:	df 93       	push	r29
     4ca:	7c 01       	movw	r14, r24
	if(CAN_transmit_complete()){
     4cc:	0e 94 54 02 	call	0x4a8	; 0x4a8 <CAN_transmit_complete>
     4d0:	89 2b       	or	r24, r25
     4d2:	d9 f1       	breq	.+118    	; 0x54a <__stack+0x4b>
		
		//sending ID
		MCP2515_write(MCP_TXB0SIDH, (uint8_t)msg->ID >> 3);
     4d4:	f7 01       	movw	r30, r14
     4d6:	60 81       	ld	r22, Z
     4d8:	66 95       	lsr	r22
     4da:	66 95       	lsr	r22
     4dc:	66 95       	lsr	r22
     4de:	81 e3       	ldi	r24, 0x31	; 49
     4e0:	0e 94 61 05 	call	0xac2	; 0xac2 <MCP2515_write>
		MCP2515_write(MCP_TXB0SIDL, (uint8_t)msg->ID << 5);
     4e4:	f7 01       	movw	r30, r14
     4e6:	60 81       	ld	r22, Z
     4e8:	62 95       	swap	r22
     4ea:	66 0f       	add	r22, r22
     4ec:	60 7e       	andi	r22, 0xE0	; 224
     4ee:	82 e3       	ldi	r24, 0x32	; 50
     4f0:	0e 94 61 05 	call	0xac2	; 0xac2 <MCP2515_write>
	
		//sending data length
		MCP2515_write(MCP_TXB0DLC, msg->length & 0x0F);
     4f4:	f7 01       	movw	r30, r14
     4f6:	62 81       	ldd	r22, Z+2	; 0x02
     4f8:	6f 70       	andi	r22, 0x0F	; 15
     4fa:	85 e3       	ldi	r24, 0x35	; 53
     4fc:	0e 94 61 05 	call	0xac2	; 0xac2 <MCP2515_write>
	
		//Sending data, max 8 bytes
		if(msg->length > 8){
     500:	f7 01       	movw	r30, r14
     502:	82 81       	ldd	r24, Z+2	; 0x02
     504:	93 81       	ldd	r25, Z+3	; 0x03
     506:	89 30       	cpi	r24, 0x09	; 9
     508:	91 05       	cpc	r25, r1
     50a:	54 f0       	brlt	.+20     	; 0x520 <__stack+0x21>
			msg->length = 8;
     50c:	88 e0       	ldi	r24, 0x08	; 8
     50e:	90 e0       	ldi	r25, 0x00	; 0
     510:	93 83       	std	Z+3, r25	; 0x03
     512:	82 83       	std	Z+2, r24	; 0x02
     514:	87 01       	movw	r16, r14
     516:	0c 5f       	subi	r16, 0xFC	; 252
     518:	1f 4f       	sbci	r17, 0xFF	; 255
	
	return 0;
}


void CAN_send(Message* msg){
     51a:	c0 e0       	ldi	r28, 0x00	; 0
     51c:	d0 e0       	ldi	r29, 0x00	; 0
     51e:	04 c0       	rjmp	.+8      	; 0x528 <__stack+0x29>
	
		//Sending data, max 8 bytes
		if(msg->length > 8){
			msg->length = 8;
		}
		for (int i = 0; i < msg->length; i++){
     520:	18 16       	cp	r1, r24
     522:	19 06       	cpc	r1, r25
     524:	bc f3       	brlt	.-18     	; 0x514 <__stack+0x15>
     526:	0e c0       	rjmp	.+28     	; 0x544 <__stack+0x45>
			MCP2515_write(MCP_TXB0D0 + i, msg->data[i]);  
     528:	f8 01       	movw	r30, r16
     52a:	61 91       	ld	r22, Z+
     52c:	8f 01       	movw	r16, r30
     52e:	8c 2f       	mov	r24, r28
     530:	8a 5c       	subi	r24, 0xCA	; 202
     532:	0e 94 61 05 	call	0xac2	; 0xac2 <MCP2515_write>
	
		//Sending data, max 8 bytes
		if(msg->length > 8){
			msg->length = 8;
		}
		for (int i = 0; i < msg->length; i++){
     536:	21 96       	adiw	r28, 0x01	; 1
     538:	f7 01       	movw	r30, r14
     53a:	22 81       	ldd	r18, Z+2	; 0x02
     53c:	33 81       	ldd	r19, Z+3	; 0x03
     53e:	c2 17       	cp	r28, r18
     540:	d3 07       	cpc	r29, r19
     542:	94 f3       	brlt	.-28     	; 0x528 <__stack+0x29>
			MCP2515_write(MCP_TXB0D0 + i, msg->data[i]);  
		}
	
		//initiate message transmission
		
		MCP2515_request_to_send(1);
     544:	81 e0       	ldi	r24, 0x01	; 1
     546:	0e 94 75 05 	call	0xaea	; 0xaea <MCP2515_request_to_send>
		
	}
}
     54a:	df 91       	pop	r29
     54c:	cf 91       	pop	r28
     54e:	1f 91       	pop	r17
     550:	0f 91       	pop	r16
     552:	ff 90       	pop	r15
     554:	ef 90       	pop	r14
     556:	08 95       	ret

00000558 <CAN_int_vect>:
	return 0; 
}

void CAN_int_vect(){
	//set recieve flag to 0
	MCP2515_bit_modify(MCP_CANINTF, 0x01, 0x00);
     558:	40 e0       	ldi	r20, 0x00	; 0
     55a:	61 e0       	ldi	r22, 0x01	; 1
     55c:	8c e2       	ldi	r24, 0x2C	; 44
     55e:	0e 94 87 05 	call	0xb0e	; 0xb0e <MCP2515_bit_modify>
	//set transmit flag to 0 
	MCP2515_bit_modify(MCP_CANINTF, 0x04, 0x00);
     562:	40 e0       	ldi	r20, 0x00	; 0
     564:	64 e0       	ldi	r22, 0x04	; 4
     566:	8c e2       	ldi	r24, 0x2C	; 44
     568:	0e 94 87 05 	call	0xb0e	; 0xb0e <MCP2515_bit_modify>
	rx_int_flag = 1;
     56c:	81 e0       	ldi	r24, 0x01	; 1
     56e:	80 93 68 02 	sts	0x0268, r24
     572:	08 95       	ret

00000574 <CAN_send_controllers>:
	
}


void CAN_send_controllers(void){
     574:	0f 93       	push	r16
     576:	1f 93       	push	r17
     578:	cf 93       	push	r28
     57a:	df 93       	push	r29
     57c:	cd b7       	in	r28, 0x3d	; 61
     57e:	de b7       	in	r29, 0x3e	; 62
     580:	2c 97       	sbiw	r28, 0x0c	; 12
     582:	0f b6       	in	r0, 0x3f	; 63
     584:	f8 94       	cli
     586:	de bf       	out	0x3e, r29	; 62
     588:	0f be       	out	0x3f, r0	; 63
     58a:	cd bf       	out	0x3d, r28	; 61
	
	uint8_t joy_pos_x = joystick_read(CHANNEL_X);
     58c:	85 e0       	ldi	r24, 0x05	; 5
     58e:	90 e0       	ldi	r25, 0x00	; 0
     590:	0e 94 bb 05 	call	0xb76	; 0xb76 <joystick_read>
     594:	08 2f       	mov	r16, r24
	uint8_t slider_pos_r = slider_read(SLIDER_R);
     596:	87 e0       	ldi	r24, 0x07	; 7
     598:	90 e0       	ldi	r25, 0x00	; 0
     59a:	0e 94 bf 05 	call	0xb7e	; 0xb7e <slider_read>
     59e:	18 2f       	mov	r17, r24
	
	int button_l = button_read(1);
     5a0:	81 e0       	ldi	r24, 0x01	; 1
     5a2:	90 e0       	ldi	r25, 0x00	; 0
     5a4:	0e 94 c3 05 	call	0xb86	; 0xb86 <button_read>

	Message msg = {0, 3, {joy_pos_x ,slider_pos_r,  button_l}};
     5a8:	fe 01       	movw	r30, r28
     5aa:	31 96       	adiw	r30, 0x01	; 1
     5ac:	9c e0       	ldi	r25, 0x0C	; 12
     5ae:	df 01       	movw	r26, r30
     5b0:	1d 92       	st	X+, r1
     5b2:	9a 95       	dec	r25
     5b4:	e9 f7       	brne	.-6      	; 0x5b0 <CAN_send_controllers+0x3c>
     5b6:	23 e0       	ldi	r18, 0x03	; 3
     5b8:	30 e0       	ldi	r19, 0x00	; 0
     5ba:	3c 83       	std	Y+4, r19	; 0x04
     5bc:	2b 83       	std	Y+3, r18	; 0x03
}


void CAN_send_controllers(void){
	
	uint8_t joy_pos_x = joystick_read(CHANNEL_X);
     5be:	0d 83       	std	Y+5, r16	; 0x05
	uint8_t slider_pos_r = slider_read(SLIDER_R);
     5c0:	1e 83       	std	Y+6, r17	; 0x06
	
	int button_l = button_read(1);

	Message msg = {0, 3, {joy_pos_x ,slider_pos_r,  button_l}};
     5c2:	8f 83       	std	Y+7, r24	; 0x07
	
	CAN_send(&msg);
     5c4:	cf 01       	movw	r24, r30
     5c6:	0e 94 5f 02 	call	0x4be	; 0x4be <CAN_send>
		
}
     5ca:	2c 96       	adiw	r28, 0x0c	; 12
     5cc:	0f b6       	in	r0, 0x3f	; 63
     5ce:	f8 94       	cli
     5d0:	de bf       	out	0x3e, r29	; 62
     5d2:	0f be       	out	0x3f, r0	; 63
     5d4:	cd bf       	out	0x3d, r28	; 61
     5d6:	df 91       	pop	r29
     5d8:	cf 91       	pop	r28
     5da:	1f 91       	pop	r17
     5dc:	0f 91       	pop	r16
     5de:	08 95       	ret

000005e0 <__vector_1>:



ISR(INT0_vect){
     5e0:	1f 92       	push	r1
     5e2:	0f 92       	push	r0
     5e4:	0f b6       	in	r0, 0x3f	; 63
     5e6:	0f 92       	push	r0
     5e8:	11 24       	eor	r1, r1
     5ea:	2f 93       	push	r18
     5ec:	3f 93       	push	r19
     5ee:	4f 93       	push	r20
     5f0:	5f 93       	push	r21
     5f2:	6f 93       	push	r22
     5f4:	7f 93       	push	r23
     5f6:	8f 93       	push	r24
     5f8:	9f 93       	push	r25
     5fa:	af 93       	push	r26
     5fc:	bf 93       	push	r27
     5fe:	ef 93       	push	r30
     600:	ff 93       	push	r31
	//RX0 interrupt flag set to 0
	CAN_int_vect();
     602:	0e 94 ac 02 	call	0x558	; 0x558 <CAN_int_vect>
}
     606:	ff 91       	pop	r31
     608:	ef 91       	pop	r30
     60a:	bf 91       	pop	r27
     60c:	af 91       	pop	r26
     60e:	9f 91       	pop	r25
     610:	8f 91       	pop	r24
     612:	7f 91       	pop	r23
     614:	6f 91       	pop	r22
     616:	5f 91       	pop	r21
     618:	4f 91       	pop	r20
     61a:	3f 91       	pop	r19
     61c:	2f 91       	pop	r18
     61e:	0f 90       	pop	r0
     620:	0f be       	out	0x3f, r0	; 63
     622:	0f 90       	pop	r0
     624:	1f 90       	pop	r1
     626:	18 95       	reti

00000628 <play_game>:
int send_can_flag = 0;
volatile uint8_t rx_int_flag = 0;		//automatically set when 
states current_state;


void play_game(states state){
     628:	2f 92       	push	r2
     62a:	3f 92       	push	r3
     62c:	4f 92       	push	r4
     62e:	5f 92       	push	r5
     630:	6f 92       	push	r6
     632:	7f 92       	push	r7
     634:	8f 92       	push	r8
     636:	9f 92       	push	r9
     638:	af 92       	push	r10
     63a:	bf 92       	push	r11
     63c:	cf 92       	push	r12
     63e:	df 92       	push	r13
     640:	ef 92       	push	r14
     642:	ff 92       	push	r15
     644:	0f 93       	push	r16
     646:	1f 93       	push	r17
     648:	cf 93       	push	r28
     64a:	df 93       	push	r29
     64c:	cd b7       	in	r28, 0x3d	; 61
     64e:	de b7       	in	r29, 0x3e	; 62
     650:	68 97       	sbiw	r28, 0x18	; 24
     652:	0f b6       	in	r0, 0x3f	; 63
     654:	f8 94       	cli
     656:	de bf       	out	0x3e, r29	; 62
     658:	0f be       	out	0x3f, r0	; 63
     65a:	cd bf       	out	0x3d, r28	; 61
     65c:	38 2e       	mov	r3, r24
	//Send state to node2 
	Message msg = {0, 4, {0,0,0,state}};
     65e:	8e 01       	movw	r16, r28
     660:	0f 5f       	subi	r16, 0xFF	; 255
     662:	1f 4f       	sbci	r17, 0xFF	; 255
     664:	8c e0       	ldi	r24, 0x0C	; 12
     666:	f8 01       	movw	r30, r16
     668:	11 92       	st	Z+, r1
     66a:	8a 95       	dec	r24
     66c:	e9 f7       	brne	.-6      	; 0x668 <play_game+0x40>
     66e:	84 e0       	ldi	r24, 0x04	; 4
     670:	90 e0       	ldi	r25, 0x00	; 0
     672:	9c 83       	std	Y+4, r25	; 0x04
     674:	8b 83       	std	Y+3, r24	; 0x03
     676:	38 86       	std	Y+8, r3	; 0x08
	printf("har sendt state %d\n", state);	
     678:	1f 92       	push	r1
     67a:	3f 92       	push	r3
     67c:	8d e6       	ldi	r24, 0x6D	; 109
     67e:	91 e0       	ldi	r25, 0x01	; 1
     680:	9f 93       	push	r25
     682:	8f 93       	push	r24
     684:	0e 94 48 0c 	call	0x1890	; 0x1890 <printf>
	CAN_send(&msg);
     688:	c8 01       	movw	r24, r16
     68a:	0e 94 5f 02 	call	0x4be	; 0x4be <CAN_send>
	
	int game_over = 0;
	life = 3;
     68e:	83 e0       	ldi	r24, 0x03	; 3
     690:	90 e0       	ldi	r25, 0x00	; 0
     692:	90 93 79 02 	sts	0x0279, r25
     696:	80 93 78 02 	sts	0x0278, r24
	score = 0;  
     69a:	10 92 6e 02 	sts	0x026E, r1
     69e:	10 92 6d 02 	sts	0x026D, r1
	highest_score = 0; 
     6a2:	10 92 6c 02 	sts	0x026C, r1
     6a6:	10 92 6b 02 	sts	0x026B, r1
	oled_reset();
     6aa:	0e 94 fa 08 	call	0x11f4	; 0x11f4 <oled_reset>
     6ae:	0f 90       	pop	r0
     6b0:	0f 90       	pop	r0
     6b2:	0f 90       	pop	r0
     6b4:	0f 90       	pop	r0
	//Send state to node2 
	Message msg = {0, 4, {0,0,0,state}};
	printf("har sendt state %d\n", state);	
	CAN_send(&msg);
	
	int game_over = 0;
     6b6:	e1 2c       	mov	r14, r1
     6b8:	f1 2c       	mov	r15, r1
			oled_flag = 0;
		}
		
		//Send Can-message to node2
		if(send_can_flag){
			clr_bit(ETIMSK, TOIE3);
     6ba:	0d e7       	ldi	r16, 0x7D	; 125
     6bc:	10 e0       	ldi	r17, 0x00	; 0
			
			//check if new highscore
			if(score > highest_score){
				highest_score = score;
			}
			printf("life: %d\n", life);
     6be:	0f 2e       	mov	r0, r31
     6c0:	fc e9       	ldi	r31, 0x9C	; 156
     6c2:	af 2e       	mov	r10, r31
     6c4:	f1 e0       	ldi	r31, 0x01	; 1
     6c6:	bf 2e       	mov	r11, r31
     6c8:	f0 2d       	mov	r31, r0
				game_over = 1; 
				oled_game_over();
			} else{
				//Ask for a new game
				oled_play_again();
				while(!button_read(LEFT_BUTTON) & !button_read(RIGHT_BUTTON));
     6ca:	21 2c       	mov	r2, r1
     6cc:	55 24       	eor	r5, r5
     6ce:	53 94       	inc	r5
				//If no - game over
				if (button_read(RIGHT_BUTTON) != 0){
					game_over = 1;
				}else{
					//If yes - Send play game signal to node 2
					Message new_game = {0, 4, {0, 0, 0, state}};
     6d0:	4e 01       	movw	r8, r28
     6d2:	fd e0       	ldi	r31, 0x0D	; 13
     6d4:	8f 0e       	add	r8, r31
     6d6:	91 1c       	adc	r9, r1
     6d8:	68 94       	set
     6da:	66 24       	eor	r6, r6
     6dc:	62 f8       	bld	r6, 2
     6de:	71 2c       	mov	r7, r1
				game_over = 1; 
				oled_game_over();
			} else{
				//Ask for a new game
				oled_play_again();
				while(!button_read(LEFT_BUTTON) & !button_read(RIGHT_BUTTON));
     6e0:	42 2c       	mov	r4, r2
	
	
	while(!game_over){
		
		//Update display
		if (oled_flag){
     6e2:	80 91 73 02 	lds	r24, 0x0273
     6e6:	90 91 74 02 	lds	r25, 0x0274
     6ea:	89 2b       	or	r24, r25
     6ec:	71 f0       	breq	.+28     	; 0x70a <play_game+0xe2>
			oled_play_game(life, score);
     6ee:	60 91 6d 02 	lds	r22, 0x026D
     6f2:	70 91 6e 02 	lds	r23, 0x026E
     6f6:	80 91 78 02 	lds	r24, 0x0278
     6fa:	90 91 79 02 	lds	r25, 0x0279
     6fe:	0e 94 bd 09 	call	0x137a	; 0x137a <oled_play_game>
			oled_flag = 0;
     702:	10 92 74 02 	sts	0x0274, r1
     706:	10 92 73 02 	sts	0x0273, r1
		}
		
		//Send Can-message to node2
		if(send_can_flag){
     70a:	80 91 69 02 	lds	r24, 0x0269
     70e:	90 91 6a 02 	lds	r25, 0x026A
     712:	89 2b       	or	r24, r25
     714:	71 f0       	breq	.+28     	; 0x732 <play_game+0x10a>
			clr_bit(ETIMSK, TOIE3);
     716:	f8 01       	movw	r30, r16
     718:	80 81       	ld	r24, Z
     71a:	8b 7f       	andi	r24, 0xFB	; 251
     71c:	80 83       	st	Z, r24
			CAN_send_controllers();
     71e:	0e 94 ba 02 	call	0x574	; 0x574 <CAN_send_controllers>
			send_can_flag = 0;
     722:	10 92 6a 02 	sts	0x026A, r1
     726:	10 92 69 02 	sts	0x0269, r1
			set_bit(ETIMSK, TOIE3);
     72a:	f8 01       	movw	r30, r16
     72c:	80 81       	ld	r24, Z
     72e:	84 60       	ori	r24, 0x04	; 4
     730:	80 83       	st	Z, r24
		}
		
		
		if(rx_int_flag){							
     732:	80 91 68 02 	lds	r24, 0x0268
     736:	88 23       	and	r24, r24
     738:	09 f4       	brne	.+2      	; 0x73c <play_game+0x114>
     73a:	6e c0       	rjmp	.+220    	; 0x818 <play_game+0x1f0>
			//Score in Node 2
			printf("mottar melding fra node 2 \n");
     73c:	81 e8       	ldi	r24, 0x81	; 129
     73e:	91 e0       	ldi	r25, 0x01	; 1
     740:	0e 94 5c 0c 	call	0x18b8	; 0x18b8 <puts>
			oled_play_game(life, score);
     744:	60 91 6d 02 	lds	r22, 0x026D
     748:	70 91 6e 02 	lds	r23, 0x026E
     74c:	80 91 78 02 	lds	r24, 0x0278
     750:	90 91 79 02 	lds	r25, 0x0279
     754:	0e 94 bd 09 	call	0x137a	; 0x137a <oled_play_game>
			life --;
     758:	80 91 78 02 	lds	r24, 0x0278
     75c:	90 91 79 02 	lds	r25, 0x0279
     760:	01 97       	sbiw	r24, 0x01	; 1
     762:	90 93 79 02 	sts	0x0279, r25
     766:	80 93 78 02 	sts	0x0278, r24
			
			//check if new highscore
			if(score > highest_score){
     76a:	20 91 6d 02 	lds	r18, 0x026D
     76e:	30 91 6e 02 	lds	r19, 0x026E
     772:	40 91 6b 02 	lds	r20, 0x026B
     776:	50 91 6c 02 	lds	r21, 0x026C
     77a:	42 17       	cp	r20, r18
     77c:	53 07       	cpc	r21, r19
     77e:	24 f4       	brge	.+8      	; 0x788 <play_game+0x160>
				highest_score = score;
     780:	30 93 6c 02 	sts	0x026C, r19
     784:	20 93 6b 02 	sts	0x026B, r18
			}
			printf("life: %d\n", life);
     788:	9f 93       	push	r25
     78a:	8f 93       	push	r24
     78c:	bf 92       	push	r11
     78e:	af 92       	push	r10
     790:	0e 94 48 0c 	call	0x1890	; 0x1890 <printf>
			if(life == 0){
     794:	0f 90       	pop	r0
     796:	0f 90       	pop	r0
     798:	0f 90       	pop	r0
     79a:	0f 90       	pop	r0
     79c:	80 91 78 02 	lds	r24, 0x0278
     7a0:	90 91 79 02 	lds	r25, 0x0279
     7a4:	89 2b       	or	r24, r25
     7a6:	19 f4       	brne	.+6      	; 0x7ae <play_game+0x186>
				game_over = 1; 
				oled_game_over();
     7a8:	0e 94 f3 09 	call	0x13e6	; 0x13e6 <oled_game_over>
     7ac:	3c c0       	rjmp	.+120    	; 0x826 <play_game+0x1fe>
			} else{
				//Ask for a new game
				oled_play_again();
     7ae:	0e 94 00 0a 	call	0x1400	; 0x1400 <oled_play_again>
				while(!button_read(LEFT_BUTTON) & !button_read(RIGHT_BUTTON));
     7b2:	81 e0       	ldi	r24, 0x01	; 1
     7b4:	90 e0       	ldi	r25, 0x00	; 0
     7b6:	0e 94 c3 05 	call	0xb86	; 0xb86 <button_read>
     7ba:	6c 01       	movw	r12, r24
     7bc:	82 e0       	ldi	r24, 0x02	; 2
     7be:	90 e0       	ldi	r25, 0x00	; 0
     7c0:	0e 94 c3 05 	call	0xb86	; 0xb86 <button_read>
     7c4:	25 2d       	mov	r18, r5
     7c6:	89 2b       	or	r24, r25
     7c8:	09 f0       	breq	.+2      	; 0x7cc <play_game+0x1a4>
     7ca:	24 2d       	mov	r18, r4
     7cc:	22 23       	and	r18, r18
     7ce:	31 f0       	breq	.+12     	; 0x7dc <play_game+0x1b4>
     7d0:	85 2d       	mov	r24, r5
     7d2:	cd 28       	or	r12, r13
     7d4:	09 f0       	breq	.+2      	; 0x7d8 <play_game+0x1b0>
     7d6:	84 2d       	mov	r24, r4
     7d8:	81 11       	cpse	r24, r1
     7da:	eb cf       	rjmp	.-42     	; 0x7b2 <play_game+0x18a>
				
				//If no - game over
				if (button_read(RIGHT_BUTTON) != 0){
     7dc:	82 e0       	ldi	r24, 0x02	; 2
     7de:	90 e0       	ldi	r25, 0x00	; 0
     7e0:	0e 94 c3 05 	call	0xb86	; 0xb86 <button_read>
     7e4:	89 2b       	or	r24, r25
     7e6:	f9 f4       	brne	.+62     	; 0x826 <play_game+0x1fe>
					game_over = 1;
				}else{
					//If yes - Send play game signal to node 2
					Message new_game = {0, 4, {0, 0, 0, state}};
     7e8:	f4 01       	movw	r30, r8
     7ea:	8c e0       	ldi	r24, 0x0C	; 12
     7ec:	11 92       	st	Z+, r1
     7ee:	8a 95       	dec	r24
     7f0:	e9 f7       	brne	.-6      	; 0x7ec <play_game+0x1c4>
     7f2:	78 8a       	std	Y+16, r7	; 0x10
     7f4:	6f 86       	std	Y+15, r6	; 0x0f
     7f6:	3c 8a       	std	Y+20, r3	; 0x14
					CAN_send(&new_game);
     7f8:	c4 01       	movw	r24, r8
     7fa:	0e 94 5f 02 	call	0x4be	; 0x4be <CAN_send>
					score = 0;
     7fe:	10 92 6e 02 	sts	0x026E, r1
     802:	10 92 6d 02 	sts	0x026D, r1
					}
				}
			oled_reset();
     806:	0e 94 fa 08 	call	0x11f4	; 0x11f4 <oled_reset>
			rx_int_flag = 0; 	
     80a:	20 92 68 02 	sts	0x0268, r2
	score = 0;  
	highest_score = 0; 
	oled_reset();
	
	
	while(!game_over){
     80e:	e1 14       	cp	r14, r1
     810:	f1 04       	cpc	r15, r1
     812:	09 f4       	brne	.+2      	; 0x816 <play_game+0x1ee>
     814:	66 cf       	rjmp	.-308    	; 0x6e2 <play_game+0xba>
     816:	04 c0       	rjmp	.+8      	; 0x820 <play_game+0x1f8>
     818:	e1 14       	cp	r14, r1
     81a:	f1 04       	cpc	r15, r1
     81c:	09 f4       	brne	.+2      	; 0x820 <play_game+0x1f8>
     81e:	61 cf       	rjmp	.-318    	; 0x6e2 <play_game+0xba>
		char* typed_name = oled_type_in_name(int_to_str(highest_score));
		printf("Typed name %s \n ", typed_name);
		insert_highscore(place, highest_score, "HEI");
	}
	*/
	current_state = IDLE;
     820:	10 92 75 02 	sts	0x0275, r1
     824:	05 c0       	rjmp	.+10     	; 0x830 <play_game+0x208>
					Message new_game = {0, 4, {0, 0, 0, state}};
					CAN_send(&new_game);
					score = 0;
					}
				}
			oled_reset();
     826:	0e 94 fa 08 	call	0x11f4	; 0x11f4 <oled_reset>
			rx_int_flag = 0; 	
     82a:	10 92 68 02 	sts	0x0268, r1
     82e:	f8 cf       	rjmp	.-16     	; 0x820 <play_game+0x1f8>
		printf("Typed name %s \n ", typed_name);
		insert_highscore(place, highest_score, "HEI");
	}
	*/
	current_state = IDLE;
}
     830:	68 96       	adiw	r28, 0x18	; 24
     832:	0f b6       	in	r0, 0x3f	; 63
     834:	f8 94       	cli
     836:	de bf       	out	0x3e, r29	; 62
     838:	0f be       	out	0x3f, r0	; 63
     83a:	cd bf       	out	0x3d, r28	; 61
     83c:	df 91       	pop	r29
     83e:	cf 91       	pop	r28
     840:	1f 91       	pop	r17
     842:	0f 91       	pop	r16
     844:	ff 90       	pop	r15
     846:	ef 90       	pop	r14
     848:	df 90       	pop	r13
     84a:	cf 90       	pop	r12
     84c:	bf 90       	pop	r11
     84e:	af 90       	pop	r10
     850:	9f 90       	pop	r9
     852:	8f 90       	pop	r8
     854:	7f 90       	pop	r7
     856:	6f 90       	pop	r6
     858:	5f 90       	pop	r5
     85a:	4f 90       	pop	r4
     85c:	3f 90       	pop	r3
     85e:	2f 90       	pop	r2
     860:	08 95       	ret

00000862 <__vector_15>:
}*/




ISR(TIMER1_OVF_vect){
     862:	1f 92       	push	r1
     864:	0f 92       	push	r0
     866:	0f b6       	in	r0, 0x3f	; 63
     868:	0f 92       	push	r0
     86a:	11 24       	eor	r1, r1
     86c:	8f 93       	push	r24
     86e:	9f 93       	push	r25
	oled_flag = 1;
     870:	81 e0       	ldi	r24, 0x01	; 1
     872:	90 e0       	ldi	r25, 0x00	; 0
     874:	90 93 74 02 	sts	0x0274, r25
     878:	80 93 73 02 	sts	0x0273, r24
	score += 1;	
     87c:	80 91 6d 02 	lds	r24, 0x026D
     880:	90 91 6e 02 	lds	r25, 0x026E
     884:	01 96       	adiw	r24, 0x01	; 1
     886:	90 93 6e 02 	sts	0x026E, r25
     88a:	80 93 6d 02 	sts	0x026D, r24
}
     88e:	9f 91       	pop	r25
     890:	8f 91       	pop	r24
     892:	0f 90       	pop	r0
     894:	0f be       	out	0x3f, r0	; 63
     896:	0f 90       	pop	r0
     898:	1f 90       	pop	r1
     89a:	18 95       	reti

0000089c <__vector_9>:

ISR(TIMER3_OVF_vect){
     89c:	1f 92       	push	r1
     89e:	0f 92       	push	r0
     8a0:	0f b6       	in	r0, 0x3f	; 63
     8a2:	0f 92       	push	r0
     8a4:	11 24       	eor	r1, r1
     8a6:	8f 93       	push	r24
     8a8:	9f 93       	push	r25
	send_can_flag = 1;
     8aa:	81 e0       	ldi	r24, 0x01	; 1
     8ac:	90 e0       	ldi	r25, 0x00	; 0
     8ae:	90 93 6a 02 	sts	0x026A, r25
     8b2:	80 93 69 02 	sts	0x0269, r24
	
}
     8b6:	9f 91       	pop	r25
     8b8:	8f 91       	pop	r24
     8ba:	0f 90       	pop	r0
     8bc:	0f be       	out	0x3f, r0	; 63
     8be:	0f 90       	pop	r0
     8c0:	1f 90       	pop	r1
     8c2:	18 95       	reti

000008c4 <EEPROM_write>:

void EEPROM_write(uint8_t ucData, unsigned int uiAddress){
	/* 
	Wait for completion of previous write
	*/
	while(EECR & (1<<EEWE));
     8c4:	e1 99       	sbic	0x1c, 1	; 28
     8c6:	fe cf       	rjmp	.-4      	; 0x8c4 <EEPROM_write>
	/* Set up address and data registers */
	EEAR = uiAddress;
     8c8:	7f bb       	out	0x1f, r23	; 31
     8ca:	6e bb       	out	0x1e, r22	; 30
	EEDR = ucData;
     8cc:	8d bb       	out	0x1d, r24	; 29
	/* Write logical one to EEMWE */
	EECR |= (1<<EEMWE);
     8ce:	e2 9a       	sbi	0x1c, 2	; 28
	/* Start eeprom write by setting EEWE */
	EECR |= (1<<EEWE);
     8d0:	e1 9a       	sbi	0x1c, 1	; 28
     8d2:	08 95       	ret

000008d4 <EEPROM_read>:
}

unsigned char EEPROM_read(unsigned int uiAddress)
{
	/* Wait for completion of previous write */
	while(EECR & (1<<EEWE));
     8d4:	e1 99       	sbic	0x1c, 1	; 28
     8d6:	fe cf       	rjmp	.-4      	; 0x8d4 <EEPROM_read>
	/* Set up address register */
	EEAR = uiAddress;
     8d8:	9f bb       	out	0x1f, r25	; 31
     8da:	8e bb       	out	0x1e, r24	; 30
	/* Start eeprom read by writing EERE */
	EECR |= (1<<EERE);
     8dc:	e0 9a       	sbi	0x1c, 0	; 28
	/* Return data from data register */
	return EEDR;
     8de:	8d b3       	in	r24, 0x1d	; 29
}
     8e0:	08 95       	ret

000008e2 <read_highscore_list>:
	highscore_names[place] =  new_name;
	update_highscore_list();
}
	
	
void read_highscore_list(void){
     8e2:	af 92       	push	r10
     8e4:	bf 92       	push	r11
     8e6:	cf 92       	push	r12
     8e8:	df 92       	push	r13
     8ea:	ef 92       	push	r14
     8ec:	ff 92       	push	r15
     8ee:	0f 93       	push	r16
     8f0:	1f 93       	push	r17
     8f2:	cf 93       	push	r28
     8f4:	df 93       	push	r29
     8f6:	0f 2e       	mov	r0, r31
     8f8:	f0 e1       	ldi	r31, 0x10	; 16
     8fa:	cf 2e       	mov	r12, r31
     8fc:	f1 e0       	ldi	r31, 0x01	; 1
     8fe:	df 2e       	mov	r13, r31
     900:	f0 2d       	mov	r31, r0
     902:	00 e0       	ldi	r16, 0x00	; 0
     904:	10 e0       	ldi	r17, 0x00	; 0
     906:	a1 2c       	mov	r10, r1
     908:	b1 2c       	mov	r11, r1
     90a:	18 c0       	rjmp	.+48     	; 0x93c <read_highscore_list+0x5a>
	for (int i = 0; i < 5 ; i++){
		for(int j = 0 ; j < 3 ; j++){
			highscore_names[i][j] = EEPROM_read(3*i+j);
     90c:	f6 01       	movw	r30, r12
     90e:	e0 80       	ld	r14, Z
     910:	f1 80       	ldd	r15, Z+1	; 0x01
     912:	ec 0e       	add	r14, r28
     914:	fd 1e       	adc	r15, r29
     916:	ce 01       	movw	r24, r28
     918:	80 0f       	add	r24, r16
     91a:	91 1f       	adc	r25, r17
     91c:	0e 94 6a 04 	call	0x8d4	; 0x8d4 <EEPROM_read>
     920:	f7 01       	movw	r30, r14
     922:	80 83       	st	Z, r24
}
	
	
void read_highscore_list(void){
	for (int i = 0; i < 5 ; i++){
		for(int j = 0 ; j < 3 ; j++){
     924:	21 96       	adiw	r28, 0x01	; 1
     926:	c3 30       	cpi	r28, 0x03	; 3
     928:	d1 05       	cpc	r29, r1
     92a:	81 f7       	brne	.-32     	; 0x90c <read_highscore_list+0x2a>
     92c:	f2 e0       	ldi	r31, 0x02	; 2
     92e:	cf 0e       	add	r12, r31
     930:	d1 1c       	adc	r13, r1
     932:	0d 5f       	subi	r16, 0xFD	; 253
     934:	1f 4f       	sbci	r17, 0xFF	; 255
	update_highscore_list();
}
	
	
void read_highscore_list(void){
	for (int i = 0; i < 5 ; i++){
     936:	0f 30       	cpi	r16, 0x0F	; 15
     938:	11 05       	cpc	r17, r1
     93a:	19 f0       	breq	.+6      	; 0x942 <read_highscore_list+0x60>
	highscore_names[place] =  new_name;
	update_highscore_list();
}
	
	
void read_highscore_list(void){
     93c:	ca 2d       	mov	r28, r10
     93e:	db 2d       	mov	r29, r11
     940:	e5 cf       	rjmp	.-54     	; 0x90c <read_highscore_list+0x2a>
     942:	06 e0       	ldi	r16, 0x06	; 6
     944:	11 e0       	ldi	r17, 0x01	; 1
	for (int i = 0; i < 5 ; i++){
     946:	cf e0       	ldi	r28, 0x0F	; 15
     948:	d0 e0       	ldi	r29, 0x00	; 0
		for(int j = 0 ; j < 3 ; j++){
			highscore_names[i][j] = EEPROM_read(3*i+j);
		}
	}
	for (int i = 0; i < 5 ; i++){
		highscore_scores[i] = EEPROM_read(i+15);
     94a:	ce 01       	movw	r24, r28
     94c:	0e 94 6a 04 	call	0x8d4	; 0x8d4 <EEPROM_read>
     950:	90 e0       	ldi	r25, 0x00	; 0
     952:	f8 01       	movw	r30, r16
     954:	81 93       	st	Z+, r24
     956:	91 93       	st	Z+, r25
     958:	8f 01       	movw	r16, r30
     95a:	21 96       	adiw	r28, 0x01	; 1
	for (int i = 0; i < 5 ; i++){
		for(int j = 0 ; j < 3 ; j++){
			highscore_names[i][j] = EEPROM_read(3*i+j);
		}
	}
	for (int i = 0; i < 5 ; i++){
     95c:	c4 31       	cpi	r28, 0x14	; 20
     95e:	d1 05       	cpc	r29, r1
     960:	a1 f7       	brne	.-24     	; 0x94a <read_highscore_list+0x68>
		highscore_scores[i] = EEPROM_read(i+15);
	}
}
     962:	df 91       	pop	r29
     964:	cf 91       	pop	r28
     966:	1f 91       	pop	r17
     968:	0f 91       	pop	r16
     96a:	ff 90       	pop	r15
     96c:	ef 90       	pop	r14
     96e:	df 90       	pop	r13
     970:	cf 90       	pop	r12
     972:	bf 90       	pop	r11
     974:	af 90       	pop	r10
     976:	08 95       	ret

00000978 <oled_print_highscore>:

#include <avr/io.h>
#include "highscore.h"
#include "OLED_driver.h"

void oled_print_highscore(void){
     978:	cf 92       	push	r12
     97a:	df 92       	push	r13
     97c:	ef 92       	push	r14
     97e:	ff 92       	push	r15
     980:	0f 93       	push	r16
     982:	1f 93       	push	r17
     984:	cf 93       	push	r28
     986:	df 93       	push	r29
	oled_sram_reset();
     988:	0e 94 ba 08 	call	0x1174	; 0x1174 <oled_sram_reset>
	oled_sram_string("HIGHSCORE", 0, 3);
     98c:	43 e0       	ldi	r20, 0x03	; 3
     98e:	50 e0       	ldi	r21, 0x00	; 0
     990:	60 e0       	ldi	r22, 0x00	; 0
     992:	70 e0       	ldi	r23, 0x00	; 0
     994:	85 e2       	ldi	r24, 0x25	; 37
     996:	92 e0       	ldi	r25, 0x02	; 2
     998:	0e 94 36 09 	call	0x126c	; 0x126c <oled_sram_string>
	read_highscore_list();
     99c:	0e 94 71 04 	call	0x8e2	; 0x8e2 <read_highscore_list>
     9a0:	0f 2e       	mov	r0, r31
     9a2:	f0 e1       	ldi	r31, 0x10	; 16
     9a4:	cf 2e       	mov	r12, r31
     9a6:	f1 e0       	ldi	r31, 0x01	; 1
     9a8:	df 2e       	mov	r13, r31
     9aa:	f0 2d       	mov	r31, r0
     9ac:	0f 2e       	mov	r0, r31
     9ae:	f6 e0       	ldi	r31, 0x06	; 6
     9b0:	ef 2e       	mov	r14, r31
     9b2:	f1 e0       	ldi	r31, 0x01	; 1
     9b4:	ff 2e       	mov	r15, r31
     9b6:	f0 2d       	mov	r31, r0
	
	for(int i = 0; i < 5 ; i++){
     9b8:	c0 e0       	ldi	r28, 0x00	; 0
     9ba:	d0 e0       	ldi	r29, 0x00	; 0
     9bc:	8e 01       	movw	r16, r28
     9be:	0e 5f       	subi	r16, 0xFE	; 254
     9c0:	1f 4f       	sbci	r17, 0xFF	; 255
		oled_sram_string(highscore_names[i], i+2, 3);
     9c2:	43 e0       	ldi	r20, 0x03	; 3
     9c4:	50 e0       	ldi	r21, 0x00	; 0
     9c6:	b8 01       	movw	r22, r16
     9c8:	f6 01       	movw	r30, r12
     9ca:	81 91       	ld	r24, Z+
     9cc:	91 91       	ld	r25, Z+
     9ce:	6f 01       	movw	r12, r30
     9d0:	0e 94 36 09 	call	0x126c	; 0x126c <oled_sram_string>
		oled_sram_string(int_to_str(i+1),i+2, 0);
     9d4:	21 96       	adiw	r28, 0x01	; 1
     9d6:	ce 01       	movw	r24, r28
     9d8:	0e 94 1d 0a 	call	0x143a	; 0x143a <int_to_str>
     9dc:	40 e0       	ldi	r20, 0x00	; 0
     9de:	50 e0       	ldi	r21, 0x00	; 0
     9e0:	b8 01       	movw	r22, r16
     9e2:	0e 94 36 09 	call	0x126c	; 0x126c <oled_sram_string>
		oled_sram_string(".", i+2, 1);
     9e6:	41 e0       	ldi	r20, 0x01	; 1
     9e8:	50 e0       	ldi	r21, 0x00	; 0
     9ea:	b8 01       	movw	r22, r16
     9ec:	86 ea       	ldi	r24, 0xA6	; 166
     9ee:	91 e0       	ldi	r25, 0x01	; 1
     9f0:	0e 94 36 09 	call	0x126c	; 0x126c <oled_sram_string>
		oled_sram_string(int_to_str(highscore_scores[i]), i+2, 10);
     9f4:	f7 01       	movw	r30, r14
     9f6:	81 91       	ld	r24, Z+
     9f8:	91 91       	ld	r25, Z+
     9fa:	7f 01       	movw	r14, r30
     9fc:	0e 94 1d 0a 	call	0x143a	; 0x143a <int_to_str>
     a00:	4a e0       	ldi	r20, 0x0A	; 10
     a02:	50 e0       	ldi	r21, 0x00	; 0
     a04:	b8 01       	movw	r22, r16
     a06:	0e 94 36 09 	call	0x126c	; 0x126c <oled_sram_string>
void oled_print_highscore(void){
	oled_sram_reset();
	oled_sram_string("HIGHSCORE", 0, 3);
	read_highscore_list();
	
	for(int i = 0; i < 5 ; i++){
     a0a:	c5 30       	cpi	r28, 0x05	; 5
     a0c:	d1 05       	cpc	r29, r1
     a0e:	b1 f6       	brne	.-84     	; 0x9bc <oled_print_highscore+0x44>
		oled_sram_string(int_to_str(i+1),i+2, 0);
		oled_sram_string(".", i+2, 1);
		oled_sram_string(int_to_str(highscore_scores[i]), i+2, 10);
		
	}
	oled_update();
     a10:	0e 94 98 09 	call	0x1330	; 0x1330 <oled_update>
}
     a14:	df 91       	pop	r29
     a16:	cf 91       	pop	r28
     a18:	1f 91       	pop	r17
     a1a:	0f 91       	pop	r16
     a1c:	ff 90       	pop	r15
     a1e:	ef 90       	pop	r14
     a20:	df 90       	pop	r13
     a22:	cf 90       	pop	r12
     a24:	08 95       	ret

00000a26 <reset_highscore_list>:
	EECR |= (1<<EERE);
	/* Return data from data register */
	return EEDR;
}

void reset_highscore_list(){
     a26:	ef 92       	push	r14
     a28:	ff 92       	push	r15
     a2a:	0f 93       	push	r16
     a2c:	1f 93       	push	r17
     a2e:	cf 93       	push	r28
     a30:	df 93       	push	r29
     a32:	00 e0       	ldi	r16, 0x00	; 0
     a34:	10 e0       	ldi	r17, 0x00	; 0
     a36:	e1 2c       	mov	r14, r1
     a38:	f1 2c       	mov	r15, r1
     a3a:	0f c0       	rjmp	.+30     	; 0xa5a <reset_highscore_list+0x34>
     a3c:	b8 01       	movw	r22, r16
     a3e:	6c 0f       	add	r22, r28
     a40:	7d 1f       	adc	r23, r29
	for (int i = 0; i < 5 ; i++){
		for(int j = 0 ; j < 3 ; j++){
			EEPROM_write('-', 3*i+j);
     a42:	8d e2       	ldi	r24, 0x2D	; 45
     a44:	0e 94 62 04 	call	0x8c4	; 0x8c4 <EEPROM_write>
	return EEDR;
}

void reset_highscore_list(){
	for (int i = 0; i < 5 ; i++){
		for(int j = 0 ; j < 3 ; j++){
     a48:	21 96       	adiw	r28, 0x01	; 1
     a4a:	c3 30       	cpi	r28, 0x03	; 3
     a4c:	d1 05       	cpc	r29, r1
     a4e:	b1 f7       	brne	.-20     	; 0xa3c <reset_highscore_list+0x16>
     a50:	0d 5f       	subi	r16, 0xFD	; 253
     a52:	1f 4f       	sbci	r17, 0xFF	; 255
	/* Return data from data register */
	return EEDR;
}

void reset_highscore_list(){
	for (int i = 0; i < 5 ; i++){
     a54:	0f 30       	cpi	r16, 0x0F	; 15
     a56:	11 05       	cpc	r17, r1
     a58:	19 f0       	breq	.+6      	; 0xa60 <reset_highscore_list+0x3a>
	EECR |= (1<<EERE);
	/* Return data from data register */
	return EEDR;
}

void reset_highscore_list(){
     a5a:	ce 2d       	mov	r28, r14
     a5c:	df 2d       	mov	r29, r15
     a5e:	ee cf       	rjmp	.-36     	; 0xa3c <reset_highscore_list+0x16>
	for (int i = 0; i < 5 ; i++){
     a60:	cf e0       	ldi	r28, 0x0F	; 15
     a62:	d0 e0       	ldi	r29, 0x00	; 0
		for(int j = 0 ; j < 3 ; j++){
			EEPROM_write('-', 3*i+j);
		}
	}
	for (int i = 0; i < 5 ; i++){
		EEPROM_write(0, 15+i);
     a64:	be 01       	movw	r22, r28
     a66:	80 e0       	ldi	r24, 0x00	; 0
     a68:	0e 94 62 04 	call	0x8c4	; 0x8c4 <EEPROM_write>
     a6c:	21 96       	adiw	r28, 0x01	; 1
	for (int i = 0; i < 5 ; i++){
		for(int j = 0 ; j < 3 ; j++){
			EEPROM_write('-', 3*i+j);
		}
	}
	for (int i = 0; i < 5 ; i++){
     a6e:	c4 31       	cpi	r28, 0x14	; 20
     a70:	d1 05       	cpc	r29, r1
     a72:	c1 f7       	brne	.-16     	; 0xa64 <reset_highscore_list+0x3e>
		EEPROM_write(0, 15+i);
	}
     a74:	df 91       	pop	r29
     a76:	cf 91       	pop	r28
     a78:	1f 91       	pop	r17
     a7a:	0f 91       	pop	r16
     a7c:	ff 90       	pop	r15
     a7e:	ef 90       	pop	r14
     a80:	08 95       	ret

00000a82 <MCP2515_reset>:
	//set MCP2515 in configuration mode
	MCP2515_reset(); 
}

void MCP2515_reset(void){
	SPI_activate_SS();
     a82:	0e 94 2a 0a 	call	0x1454	; 0x1454 <SPI_activate_SS>
	SPI_read_write(MCP_RESET);
     a86:	80 ec       	ldi	r24, 0xC0	; 192
     a88:	0e 94 25 0a 	call	0x144a	; 0x144a <SPI_read_write>
	SPI_deactivate_SS();
     a8c:	0e 94 2c 0a 	call	0x1458	; 0x1458 <SPI_deactivate_SS>
     a90:	08 95       	ret

00000a92 <MCP2515_init>:
#include "MCP2515.h"
#include "MCP2515_driver.h"
#include <string.h>

void MCP2515_init(void){
	SPI_init();
     a92:	0e 94 2e 0a 	call	0x145c	; 0x145c <SPI_init>
	//set MCP2515 in configuration mode
	MCP2515_reset(); 
     a96:	0e 94 41 05 	call	0xa82	; 0xa82 <MCP2515_reset>
     a9a:	08 95       	ret

00000a9c <MCP2515_read>:
	SPI_activate_SS();
	SPI_read_write(MCP_RESET);
	SPI_deactivate_SS();
}

uint8_t MCP2515_read(uint8_t address){
     a9c:	cf 93       	push	r28
     a9e:	c8 2f       	mov	r28, r24
	uint8_t data;
	SPI_activate_SS();
     aa0:	0e 94 2a 0a 	call	0x1454	; 0x1454 <SPI_activate_SS>
	SPI_read_write(MCP_READ);
     aa4:	83 e0       	ldi	r24, 0x03	; 3
     aa6:	0e 94 25 0a 	call	0x144a	; 0x144a <SPI_read_write>
	SPI_read_write(address);
     aaa:	8c 2f       	mov	r24, r28
     aac:	0e 94 25 0a 	call	0x144a	; 0x144a <SPI_read_write>
	data = SPI_read_write(0x00);
     ab0:	80 e0       	ldi	r24, 0x00	; 0
     ab2:	0e 94 25 0a 	call	0x144a	; 0x144a <SPI_read_write>
     ab6:	c8 2f       	mov	r28, r24
	SPI_deactivate_SS();
     ab8:	0e 94 2c 0a 	call	0x1458	; 0x1458 <SPI_deactivate_SS>
	return data;
}
     abc:	8c 2f       	mov	r24, r28
     abe:	cf 91       	pop	r28
     ac0:	08 95       	ret

00000ac2 <MCP2515_write>:

void MCP2515_write(uint8_t address, char data){
     ac2:	cf 93       	push	r28
     ac4:	df 93       	push	r29
     ac6:	d8 2f       	mov	r29, r24
     ac8:	c6 2f       	mov	r28, r22
	SPI_activate_SS();
     aca:	0e 94 2a 0a 	call	0x1454	; 0x1454 <SPI_activate_SS>
	SPI_read_write(MCP_WRITE);
     ace:	82 e0       	ldi	r24, 0x02	; 2
     ad0:	0e 94 25 0a 	call	0x144a	; 0x144a <SPI_read_write>
	SPI_read_write(address);
     ad4:	8d 2f       	mov	r24, r29
     ad6:	0e 94 25 0a 	call	0x144a	; 0x144a <SPI_read_write>
	SPI_read_write(data);
     ada:	8c 2f       	mov	r24, r28
     adc:	0e 94 25 0a 	call	0x144a	; 0x144a <SPI_read_write>
	SPI_deactivate_SS();
     ae0:	0e 94 2c 0a 	call	0x1458	; 0x1458 <SPI_deactivate_SS>
}
     ae4:	df 91       	pop	r29
     ae6:	cf 91       	pop	r28
     ae8:	08 95       	ret

00000aea <MCP2515_request_to_send>:

 void MCP2515_request_to_send(uint8_t command){
     aea:	cf 93       	push	r28
     aec:	c8 2f       	mov	r28, r24
	SPI_activate_SS();
     aee:	0e 94 2a 0a 	call	0x1454	; 0x1454 <SPI_activate_SS>
	if (command <= 7){
     af2:	c8 30       	cpi	r28, 0x08	; 8
     af4:	28 f4       	brcc	.+10     	; 0xb00 <MCP2515_request_to_send+0x16>
		SPI_read_write(MCP_RTS | command);
     af6:	8c 2f       	mov	r24, r28
     af8:	80 68       	ori	r24, 0x80	; 128
     afa:	0e 94 25 0a 	call	0x144a	; 0x144a <SPI_read_write>
     afe:	03 c0       	rjmp	.+6      	; 0xb06 <MCP2515_request_to_send+0x1c>
	}
	else{
		SPI_read_write(MCP_RTS);
     b00:	80 e8       	ldi	r24, 0x80	; 128
     b02:	0e 94 25 0a 	call	0x144a	; 0x144a <SPI_read_write>
	}
	SPI_deactivate_SS();
     b06:	0e 94 2c 0a 	call	0x1458	; 0x1458 <SPI_deactivate_SS>
}
     b0a:	cf 91       	pop	r28
     b0c:	08 95       	ret

00000b0e <MCP2515_bit_modify>:
	SPI_deactivate_SS();	
	return status;
}


void MCP2515_bit_modify(uint8_t address, uint8_t mask_byte, uint8_t data_byte){
     b0e:	1f 93       	push	r17
     b10:	cf 93       	push	r28
     b12:	df 93       	push	r29
     b14:	18 2f       	mov	r17, r24
     b16:	d6 2f       	mov	r29, r22
     b18:	c4 2f       	mov	r28, r20
	SPI_activate_SS();
     b1a:	0e 94 2a 0a 	call	0x1454	; 0x1454 <SPI_activate_SS>
	SPI_read_write(MCP_BITMOD);
     b1e:	85 e0       	ldi	r24, 0x05	; 5
     b20:	0e 94 25 0a 	call	0x144a	; 0x144a <SPI_read_write>
	SPI_read_write(address);
     b24:	81 2f       	mov	r24, r17
     b26:	0e 94 25 0a 	call	0x144a	; 0x144a <SPI_read_write>
	SPI_read_write(mask_byte);
     b2a:	8d 2f       	mov	r24, r29
     b2c:	0e 94 25 0a 	call	0x144a	; 0x144a <SPI_read_write>
	SPI_read_write(data_byte);
     b30:	8c 2f       	mov	r24, r28
     b32:	0e 94 25 0a 	call	0x144a	; 0x144a <SPI_read_write>
	SPI_deactivate_SS();
     b36:	0e 94 2c 0a 	call	0x1458	; 0x1458 <SPI_deactivate_SS>
     b3a:	df 91       	pop	r29
     b3c:	cf 91       	pop	r28
     b3e:	1f 91       	pop	r17
     b40:	08 95       	ret

00000b42 <UART_transmit>:

int UART_transmit(unsigned char data, FILE *stream){
	
	//Wait for empty transmit buffer
	
	while( !( UCSR0A & (1<<UDRE0)) );
     b42:	5d 9b       	sbis	0x0b, 5	; 11
     b44:	fe cf       	rjmp	.-4      	; 0xb42 <UART_transmit>
 
	//Put data into buffer, sends the data
 
	UDR0 = data;
     b46:	8c b9       	out	0x0c, r24	; 12
	return 0; 
}
     b48:	80 e0       	ldi	r24, 0x00	; 0
     b4a:	90 e0       	ldi	r25, 0x00	; 0
     b4c:	08 95       	ret

00000b4e <UART_receive>:

unsigned char UART_receive(){

	//Wait for data to be received

	while( !(UCSR0A & (1<<RXC0)) );
     b4e:	5f 9b       	sbis	0x0b, 7	; 11
     b50:	fe cf       	rjmp	.-4      	; 0xb4e <UART_receive>
 
	//Get and return received data from buffer
 
	return UDR0;
     b52:	8c b1       	in	r24, 0x0c	; 12
}
     b54:	08 95       	ret

00000b56 <UART_init>:

int UART_init(unsigned int ubrr ){
/* 
Set baud rate
 */
	UBRR0L = ubrr;
     b56:	89 b9       	out	0x09, r24	; 9

/* 
Enable receiver and transmitter
 */
	UCSR0B =(1<<RXEN0)|(1<<TXEN0);
     b58:	88 e1       	ldi	r24, 0x18	; 24
     b5a:	8a b9       	out	0x0a, r24	; 10
	
	uart = fdevopen(&UART_transmit, &UART_receive);
     b5c:	67 ea       	ldi	r22, 0xA7	; 167
     b5e:	75 e0       	ldi	r23, 0x05	; 5
     b60:	81 ea       	ldi	r24, 0xA1	; 161
     b62:	95 e0       	ldi	r25, 0x05	; 5
     b64:	0e 94 fd 0b 	call	0x17fa	; 0x17fa <fdevopen>
     b68:	90 93 7b 02 	sts	0x027B, r25
     b6c:	80 93 7a 02 	sts	0x027A, r24
	
	return 0; 
}
     b70:	80 e0       	ldi	r24, 0x00	; 0
     b72:	90 e0       	ldi	r25, 0x00	; 0
     b74:	08 95       	ret

00000b76 <joystick_read>:



int joystick_read(int channel){
	//Return 0-255
	return ADC_read(channel);
     b76:	0e 94 e7 01 	call	0x3ce	; 0x3ce <ADC_read>
}
     b7a:	90 e0       	ldi	r25, 0x00	; 0
     b7c:	08 95       	ret

00000b7e <slider_read>:


int slider_read(int channel){
	//Return 0-255
	return ADC_read(channel);
     b7e:	0e 94 e7 01 	call	0x3ce	; 0x3ce <ADC_read>
}
     b82:	90 e0       	ldi	r25, 0x00	; 0
     b84:	08 95       	ret

00000b86 <button_read>:
	/*
	Left button = 1
	Right button = 2
	*/
	
	if (button == 1){
     b86:	81 30       	cpi	r24, 0x01	; 1
     b88:	91 05       	cpc	r25, r1
     b8a:	21 f4       	brne	.+8      	; 0xb94 <button_read+0xe>
		return (test_bit(PINB, PINB1));		//returns 2??
     b8c:	46 b3       	in	r20, 0x16	; 22
     b8e:	42 70       	andi	r20, 0x02	; 2
     b90:	50 e0       	ldi	r21, 0x00	; 0
     b92:	09 c0       	rjmp	.+18     	; 0xba6 <button_read+0x20>
		}else if(button == 2){
     b94:	02 97       	sbiw	r24, 0x02	; 2
     b96:	29 f4       	brne	.+10     	; 0xba2 <button_read+0x1c>
		return test_bit(PINB, PINB0);
     b98:	86 b3       	in	r24, 0x16	; 22
     b9a:	48 2f       	mov	r20, r24
     b9c:	41 70       	andi	r20, 0x01	; 1
     b9e:	50 e0       	ldi	r21, 0x00	; 0
     ba0:	02 c0       	rjmp	.+4      	; 0xba6 <button_read+0x20>
	}
	return -1;
     ba2:	4f ef       	ldi	r20, 0xFF	; 255
     ba4:	5f ef       	ldi	r21, 0xFF	; 255
}
     ba6:	ca 01       	movw	r24, r20
     ba8:	08 95       	ret

00000baa <find_joystick_dir>:

joystick_dir find_joystick_dir(void){
     baa:	cf 93       	push	r28



int joystick_read(int channel){
	//Return 0-255
	return ADC_read(channel);
     bac:	85 e0       	ldi	r24, 0x05	; 5
     bae:	0e 94 e7 01 	call	0x3ce	; 0x3ce <ADC_read>
     bb2:	c8 2f       	mov	r28, r24
     bb4:	84 e0       	ldi	r24, 0x04	; 4
     bb6:	0e 94 e7 01 	call	0x3ce	; 0x3ce <ADC_read>
     bba:	28 2f       	mov	r18, r24
     bbc:	30 e0       	ldi	r19, 0x00	; 0

joystick_dir find_joystick_dir(void){
	int joystick_x = joystick_read(CHANNEL_X);
	int joystick_y = joystick_read(CHANNEL_Y);
	
	if (joystick_y > 150){
     bbe:	27 39       	cpi	r18, 0x97	; 151
     bc0:	31 05       	cpc	r19, r1
     bc2:	6c f4       	brge	.+26     	; 0xbde <find_joystick_dir+0x34>
		return UP;
	}
	else if (joystick_y < 110){
     bc4:	2e 36       	cpi	r18, 0x6E	; 110
     bc6:	31 05       	cpc	r19, r1
     bc8:	64 f0       	brlt	.+24     	; 0xbe2 <find_joystick_dir+0x38>



int joystick_read(int channel){
	//Return 0-255
	return ADC_read(channel);
     bca:	8c 2f       	mov	r24, r28
     bcc:	90 e0       	ldi	r25, 0x00	; 0
		return UP;
	}
	else if (joystick_y < 110){
		return DOWN;
	}
	else if(joystick_x > 150){
     bce:	87 39       	cpi	r24, 0x97	; 151
     bd0:	91 05       	cpc	r25, r1
     bd2:	4c f4       	brge	.+18     	; 0xbe6 <find_joystick_dir+0x3c>
		return RIGHT;
	}
	else if(joystick_x < 110){
     bd4:	8e 36       	cpi	r24, 0x6E	; 110
     bd6:	91 05       	cpc	r25, r1
     bd8:	44 f4       	brge	.+16     	; 0xbea <find_joystick_dir+0x40>
		return LEFT;
     bda:	83 e0       	ldi	r24, 0x03	; 3
     bdc:	07 c0       	rjmp	.+14     	; 0xbec <find_joystick_dir+0x42>
joystick_dir find_joystick_dir(void){
	int joystick_x = joystick_read(CHANNEL_X);
	int joystick_y = joystick_read(CHANNEL_Y);
	
	if (joystick_y > 150){
		return UP;
     bde:	80 e0       	ldi	r24, 0x00	; 0
     be0:	05 c0       	rjmp	.+10     	; 0xbec <find_joystick_dir+0x42>
	}
	else if (joystick_y < 110){
		return DOWN;
     be2:	81 e0       	ldi	r24, 0x01	; 1
     be4:	03 c0       	rjmp	.+6      	; 0xbec <find_joystick_dir+0x42>
	}
	else if(joystick_x > 150){
		return RIGHT;
     be6:	82 e0       	ldi	r24, 0x02	; 2
     be8:	01 c0       	rjmp	.+2      	; 0xbec <find_joystick_dir+0x42>
	}
	else if(joystick_x < 110){
		return LEFT;
	}
	return CENTER;
     bea:	84 e0       	ldi	r24, 0x04	; 4
}
     bec:	cf 91       	pop	r28
     bee:	08 95       	ret

00000bf0 <read_joystick_button>:
	
	CAN_send(&msg);
}

int read_joystick_button(void){
	return test_bit(PINB, PINB2);
     bf0:	86 b3       	in	r24, 0x16	; 22
     bf2:	84 70       	andi	r24, 0x04	; 4
     bf4:	90 e0       	ldi	r25, 0x00	; 0
     bf6:	08 95       	ret

00000bf8 <menu_sram_update>:
	}
	print_selection_sign(page);
	
}*/

void menu_sram_update(menu* menu_node, int selector_pos){
     bf8:	ef 92       	push	r14
     bfa:	ff 92       	push	r15
     bfc:	0f 93       	push	r16
     bfe:	1f 93       	push	r17
     c00:	cf 93       	push	r28
     c02:	df 93       	push	r29
     c04:	8c 01       	movw	r16, r24
     c06:	7b 01       	movw	r14, r22
	int col = 0; 
	int page = 0; 
	oled_sram_reset();
     c08:	0e 94 ba 08 	call	0x1174	; 0x1174 <oled_sram_reset>
	
	menu* current = menu_node->child;
     c0c:	f8 01       	movw	r30, r16
     c0e:	c6 81       	ldd	r28, Z+6	; 0x06
     c10:	d7 81       	ldd	r29, Z+7	; 0x07
	
	oled_sram_string(menu_node->name, page, col);
     c12:	40 e0       	ldi	r20, 0x00	; 0
     c14:	50 e0       	ldi	r21, 0x00	; 0
     c16:	60 e0       	ldi	r22, 0x00	; 0
     c18:	70 e0       	ldi	r23, 0x00	; 0
     c1a:	80 81       	ld	r24, Z
     c1c:	91 81       	ldd	r25, Z+1	; 0x01
     c1e:	0e 94 36 09 	call	0x126c	; 0x126c <oled_sram_string>
	
	page = 1;
	col = 2;
	while(current != NULL){
     c22:	20 97       	sbiw	r28, 0x00	; 0
     c24:	81 f0       	breq	.+32     	; 0xc46 <menu_sram_update+0x4e>
	
	menu* current = menu_node->child;
	
	oled_sram_string(menu_node->name, page, col);
	
	page = 1;
     c26:	01 e0       	ldi	r16, 0x01	; 1
     c28:	10 e0       	ldi	r17, 0x00	; 0
	col = 2;
	while(current != NULL){
		oled_sram_string(current->name, page, col);
     c2a:	42 e0       	ldi	r20, 0x02	; 2
     c2c:	50 e0       	ldi	r21, 0x00	; 0
     c2e:	b8 01       	movw	r22, r16
     c30:	88 81       	ld	r24, Y
     c32:	99 81       	ldd	r25, Y+1	; 0x01
     c34:	0e 94 36 09 	call	0x126c	; 0x126c <oled_sram_string>
		current = current->next_sibling;
     c38:	0a 80       	ldd	r0, Y+2	; 0x02
     c3a:	db 81       	ldd	r29, Y+3	; 0x03
     c3c:	c0 2d       	mov	r28, r0
		page++;
     c3e:	0f 5f       	subi	r16, 0xFF	; 255
     c40:	1f 4f       	sbci	r17, 0xFF	; 255
	
	oled_sram_string(menu_node->name, page, col);
	
	page = 1;
	col = 2;
	while(current != NULL){
     c42:	20 97       	sbiw	r28, 0x00	; 0
     c44:	91 f7       	brne	.-28     	; 0xc2a <menu_sram_update+0x32>
		oled_sram_string(current->name, page, col);
		current = current->next_sibling;
		page++;
	}
	oled_sram_char('*', selector_pos, 0);
     c46:	40 e0       	ldi	r20, 0x00	; 0
     c48:	50 e0       	ldi	r21, 0x00	; 0
     c4a:	b7 01       	movw	r22, r14
     c4c:	8a e2       	ldi	r24, 0x2A	; 42
     c4e:	0e 94 7a 09 	call	0x12f4	; 0x12f4 <oled_sram_char>
	
}
     c52:	df 91       	pop	r29
     c54:	cf 91       	pop	r28
     c56:	1f 91       	pop	r17
     c58:	0f 91       	pop	r16
     c5a:	ff 90       	pop	r15
     c5c:	ef 90       	pop	r14
     c5e:	08 95       	ret

00000c60 <create_menu>:


menu* create_menu(char* new_name){
     c60:	cf 93       	push	r28
     c62:	df 93       	push	r29
     c64:	ec 01       	movw	r28, r24
	menu* new_menu = (menu*)malloc(sizeof(menu));
     c66:	8c e0       	ldi	r24, 0x0C	; 12
     c68:	90 e0       	ldi	r25, 0x00	; 0
     c6a:	0e 94 b1 0a 	call	0x1562	; 0x1562 <malloc>
     c6e:	fc 01       	movw	r30, r24
	
	if(new_menu == NULL){
     c70:	00 97       	sbiw	r24, 0x00	; 0
     c72:	41 f4       	brne	.+16     	; 0xc84 <create_menu+0x24>
		printf("Out of mem\n");
     c74:	8c eb       	ldi	r24, 0xBC	; 188
     c76:	91 e0       	ldi	r25, 0x01	; 1
     c78:	0e 94 5c 0c 	call	0x18b8	; 0x18b8 <puts>
		exit(1);
     c7c:	81 e0       	ldi	r24, 0x01	; 1
     c7e:	90 e0       	ldi	r25, 0x00	; 0
     c80:	0e 94 6b 0f 	call	0x1ed6	; 0x1ed6 <_exit>
	}
	
	new_menu->name = new_name;
     c84:	d1 83       	std	Z+1, r29	; 0x01
     c86:	c0 83       	st	Z, r28
	new_menu->next_sibling = NULL;
     c88:	13 82       	std	Z+3, r1	; 0x03
     c8a:	12 82       	std	Z+2, r1	; 0x02
	new_menu->prev_sibling = NULL;
     c8c:	15 82       	std	Z+5, r1	; 0x05
     c8e:	14 82       	std	Z+4, r1	; 0x04
	new_menu->parent = NULL;
     c90:	11 86       	std	Z+9, r1	; 0x09
     c92:	10 86       	std	Z+8, r1	; 0x08
	new_menu->child = NULL;
     c94:	17 82       	std	Z+7, r1	; 0x07
     c96:	16 82       	std	Z+6, r1	; 0x06
	new_menu->number_of_childs = 0;
     c98:	13 86       	std	Z+11, r1	; 0x0b
     c9a:	12 86       	std	Z+10, r1	; 0x0a
	
	return new_menu;
}
     c9c:	df 91       	pop	r29
     c9e:	cf 91       	pop	r28
     ca0:	08 95       	ret

00000ca2 <create_submenu>:

menu* create_submenu(menu* parent_menu, menu* child_menu){ //tar inn liste av submenu struct
	if (parent_menu->child == NULL){
     ca2:	dc 01       	movw	r26, r24
     ca4:	16 96       	adiw	r26, 0x06	; 6
     ca6:	ed 91       	ld	r30, X+
     ca8:	fc 91       	ld	r31, X
     caa:	17 97       	sbiw	r26, 0x07	; 7
     cac:	30 97       	sbiw	r30, 0x00	; 0
     cae:	29 f4       	brne	.+10     	; 0xcba <create_submenu+0x18>
		//make new child
		parent_menu->child = child_menu;
     cb0:	17 96       	adiw	r26, 0x07	; 7
     cb2:	7c 93       	st	X, r23
     cb4:	6e 93       	st	-X, r22
     cb6:	16 97       	sbiw	r26, 0x06	; 6
     cb8:	0e c0       	rjmp	.+28     	; 0xcd6 <create_submenu+0x34>
	}
	
	else{
		//make new sibling
		menu* current = parent_menu->child;
		while (current->next_sibling != NULL){
     cba:	22 81       	ldd	r18, Z+2	; 0x02
     cbc:	33 81       	ldd	r19, Z+3	; 0x03
     cbe:	21 15       	cp	r18, r1
     cc0:	31 05       	cpc	r19, r1
     cc2:	11 f0       	breq	.+4      	; 0xcc8 <create_submenu+0x26>
			current = current->next_sibling;
     cc4:	f9 01       	movw	r30, r18
     cc6:	f9 cf       	rjmp	.-14     	; 0xcba <create_submenu+0x18>
		}
		
		current->next_sibling =child_menu;
     cc8:	73 83       	std	Z+3, r23	; 0x03
     cca:	62 83       	std	Z+2, r22	; 0x02
		child_menu->prev_sibling =current;
     ccc:	db 01       	movw	r26, r22
     cce:	15 96       	adiw	r26, 0x05	; 5
     cd0:	fc 93       	st	X, r31
     cd2:	ee 93       	st	-X, r30
     cd4:	14 97       	sbiw	r26, 0x04	; 4
		
	}
	parent_menu->number_of_childs++;
     cd6:	fc 01       	movw	r30, r24
     cd8:	22 85       	ldd	r18, Z+10	; 0x0a
     cda:	33 85       	ldd	r19, Z+11	; 0x0b
     cdc:	2f 5f       	subi	r18, 0xFF	; 255
     cde:	3f 4f       	sbci	r19, 0xFF	; 255
     ce0:	33 87       	std	Z+11, r19	; 0x0b
     ce2:	22 87       	std	Z+10, r18	; 0x0a
	child_menu->parent = parent_menu;
     ce4:	db 01       	movw	r26, r22
     ce6:	19 96       	adiw	r26, 0x09	; 9
     ce8:	9c 93       	st	X, r25
     cea:	8e 93       	st	-X, r24
     cec:	18 97       	sbiw	r26, 0x08	; 8
	
	return parent_menu;
}
     cee:	08 95       	ret

00000cf0 <menu_setup>:


extern states current_state; 


void menu_setup(void){
     cf0:	2f 92       	push	r2
     cf2:	3f 92       	push	r3
     cf4:	4f 92       	push	r4
     cf6:	5f 92       	push	r5
     cf8:	6f 92       	push	r6
     cfa:	7f 92       	push	r7
     cfc:	8f 92       	push	r8
     cfe:	9f 92       	push	r9
     d00:	af 92       	push	r10
     d02:	bf 92       	push	r11
     d04:	cf 92       	push	r12
     d06:	df 92       	push	r13
     d08:	ef 92       	push	r14
     d0a:	ff 92       	push	r15
     d0c:	0f 93       	push	r16
     d0e:	1f 93       	push	r17
     d10:	cf 93       	push	r28
     d12:	df 93       	push	r29
     d14:	00 d0       	rcall	.+0      	; 0xd16 <menu_setup+0x26>
     d16:	00 d0       	rcall	.+0      	; 0xd18 <menu_setup+0x28>
     d18:	cd b7       	in	r28, 0x3d	; 61
     d1a:	de b7       	in	r29, 0x3e	; 62
	menu* menu_front_page = create_menu("JAJ PINGPONG");
     d1c:	87 ec       	ldi	r24, 0xC7	; 199
     d1e:	91 e0       	ldi	r25, 0x01	; 1
     d20:	0e 94 30 06 	call	0xc60	; 0xc60 <create_menu>
     d24:	6c 01       	movw	r12, r24
	display_menu = menu_front_page;
     d26:	90 93 7d 02 	sts	0x027D, r25
     d2a:	80 93 7c 02 	sts	0x027C, r24

	menu* sub1 = create_menu("Play game");
     d2e:	84 ed       	ldi	r24, 0xD4	; 212
     d30:	91 e0       	ldi	r25, 0x01	; 1
     d32:	0e 94 30 06 	call	0xc60	; 0xc60 <create_menu>
     d36:	9c 83       	std	Y+4, r25	; 0x04
     d38:	8b 83       	std	Y+3, r24	; 0x03
	menu* sub2 = create_menu("Highscore");
     d3a:	8e ed       	ldi	r24, 0xDE	; 222
     d3c:	91 e0       	ldi	r25, 0x01	; 1
     d3e:	0e 94 30 06 	call	0xc60	; 0xc60 <create_menu>
     d42:	7c 01       	movw	r14, r24
	menu* subsub1 = create_menu("Easy");
     d44:	88 ee       	ldi	r24, 0xE8	; 232
     d46:	91 e0       	ldi	r25, 0x01	; 1
     d48:	0e 94 30 06 	call	0xc60	; 0xc60 <create_menu>
     d4c:	5c 01       	movw	r10, r24
	menu* subsub2 = create_menu("Medium");
     d4e:	8d ee       	ldi	r24, 0xED	; 237
     d50:	91 e0       	ldi	r25, 0x01	; 1
     d52:	0e 94 30 06 	call	0xc60	; 0xc60 <create_menu>
     d56:	4c 01       	movw	r8, r24
	menu* subsub3 = create_menu("Hard");
     d58:	84 ef       	ldi	r24, 0xF4	; 244
     d5a:	91 e0       	ldi	r25, 0x01	; 1
     d5c:	0e 94 30 06 	call	0xc60	; 0xc60 <create_menu>
     d60:	3c 01       	movw	r6, r24
	menu* subsub4 = create_menu("View highscore");
     d62:	89 ef       	ldi	r24, 0xF9	; 249
     d64:	91 e0       	ldi	r25, 0x01	; 1
     d66:	0e 94 30 06 	call	0xc60	; 0xc60 <create_menu>
     d6a:	2c 01       	movw	r4, r24
	menu* subsub5 = create_menu("Reset highscore");
     d6c:	88 e0       	ldi	r24, 0x08	; 8
     d6e:	92 e0       	ldi	r25, 0x02	; 2
     d70:	0e 94 30 06 	call	0xc60	; 0xc60 <create_menu>
     d74:	8c 01       	movw	r16, r24
	menu* subsubsub1 = create_menu("YES");
     d76:	88 e1       	ldi	r24, 0x18	; 24
     d78:	92 e0       	ldi	r25, 0x02	; 2
     d7a:	0e 94 30 06 	call	0xc60	; 0xc60 <create_menu>
     d7e:	1c 01       	movw	r2, r24
	menu* subsubsub2 = create_menu("NO");
     d80:	8c e1       	ldi	r24, 0x1C	; 28
     d82:	92 e0       	ldi	r25, 0x02	; 2
     d84:	0e 94 30 06 	call	0xc60	; 0xc60 <create_menu>
     d88:	9a 83       	std	Y+2, r25	; 0x02
     d8a:	89 83       	std	Y+1, r24	; 0x01
	
	
	create_submenu(menu_front_page, sub1);
     d8c:	6b 81       	ldd	r22, Y+3	; 0x03
     d8e:	7c 81       	ldd	r23, Y+4	; 0x04
     d90:	c6 01       	movw	r24, r12
     d92:	0e 94 51 06 	call	0xca2	; 0xca2 <create_submenu>
	create_submenu(menu_front_page, sub2);
     d96:	b7 01       	movw	r22, r14
     d98:	c6 01       	movw	r24, r12
     d9a:	0e 94 51 06 	call	0xca2	; 0xca2 <create_submenu>
	create_submenu(sub1, subsub1);
     d9e:	b5 01       	movw	r22, r10
     da0:	8b 81       	ldd	r24, Y+3	; 0x03
     da2:	9c 81       	ldd	r25, Y+4	; 0x04
     da4:	0e 94 51 06 	call	0xca2	; 0xca2 <create_submenu>
	create_submenu(sub1, subsub2);
     da8:	b4 01       	movw	r22, r8
     daa:	8b 81       	ldd	r24, Y+3	; 0x03
     dac:	9c 81       	ldd	r25, Y+4	; 0x04
     dae:	0e 94 51 06 	call	0xca2	; 0xca2 <create_submenu>
	create_submenu(sub1, subsub3);
     db2:	b3 01       	movw	r22, r6
     db4:	8b 81       	ldd	r24, Y+3	; 0x03
     db6:	9c 81       	ldd	r25, Y+4	; 0x04
     db8:	0e 94 51 06 	call	0xca2	; 0xca2 <create_submenu>
	create_submenu(sub2, subsub4);
     dbc:	b2 01       	movw	r22, r4
     dbe:	c7 01       	movw	r24, r14
     dc0:	0e 94 51 06 	call	0xca2	; 0xca2 <create_submenu>
	create_submenu(sub2, subsub5);
     dc4:	b8 01       	movw	r22, r16
     dc6:	c7 01       	movw	r24, r14
     dc8:	0e 94 51 06 	call	0xca2	; 0xca2 <create_submenu>
	create_submenu(subsub5, subsubsub1);
     dcc:	b1 01       	movw	r22, r2
     dce:	c8 01       	movw	r24, r16
     dd0:	0e 94 51 06 	call	0xca2	; 0xca2 <create_submenu>
	create_submenu(subsub5, subsubsub2);
     dd4:	69 81       	ldd	r22, Y+1	; 0x01
     dd6:	7a 81       	ldd	r23, Y+2	; 0x02
     dd8:	c8 01       	movw	r24, r16
     dda:	0e 94 51 06 	call	0xca2	; 0xca2 <create_submenu>
	
	oled_reset();
     dde:	0e 94 fa 08 	call	0x11f4	; 0x11f4 <oled_reset>
	menu_sram_update(display_menu, current_page);
     de2:	60 91 1b 01 	lds	r22, 0x011B
     de6:	70 91 1c 01 	lds	r23, 0x011C
     dea:	80 91 7c 02 	lds	r24, 0x027C
     dee:	90 91 7d 02 	lds	r25, 0x027D
     df2:	0e 94 fc 05 	call	0xbf8	; 0xbf8 <menu_sram_update>
	oled_update();
     df6:	0e 94 98 09 	call	0x1330	; 0x1330 <oled_update>
	current_menu = display_menu->child;
     dfa:	e0 91 7c 02 	lds	r30, 0x027C
     dfe:	f0 91 7d 02 	lds	r31, 0x027D
     e02:	86 81       	ldd	r24, Z+6	; 0x06
     e04:	97 81       	ldd	r25, Z+7	; 0x07
     e06:	90 93 70 02 	sts	0x0270, r25
     e0a:	80 93 6f 02 	sts	0x026F, r24
}
     e0e:	0f 90       	pop	r0
     e10:	0f 90       	pop	r0
     e12:	0f 90       	pop	r0
     e14:	0f 90       	pop	r0
     e16:	df 91       	pop	r29
     e18:	cf 91       	pop	r28
     e1a:	1f 91       	pop	r17
     e1c:	0f 91       	pop	r16
     e1e:	ff 90       	pop	r15
     e20:	ef 90       	pop	r14
     e22:	df 90       	pop	r13
     e24:	cf 90       	pop	r12
     e26:	bf 90       	pop	r11
     e28:	af 90       	pop	r10
     e2a:	9f 90       	pop	r9
     e2c:	8f 90       	pop	r8
     e2e:	7f 90       	pop	r7
     e30:	6f 90       	pop	r6
     e32:	5f 90       	pop	r5
     e34:	4f 90       	pop	r4
     e36:	3f 90       	pop	r3
     e38:	2f 90       	pop	r2
     e3a:	08 95       	ret

00000e3c <main_menu>:
	oled_goto_page(page);
	oled_print_string("*");
}


void main_menu(void){
     e3c:	cf 93       	push	r28
	
	joystick_dir joy_dir = find_joystick_dir();
     e3e:	0e 94 d5 05 	call	0xbaa	; 0xbaa <find_joystick_dir>
     e42:	c8 2f       	mov	r28, r24
	if(joy_dir != last_joy_dir){
     e44:	80 91 1a 01 	lds	r24, 0x011A
     e48:	c8 17       	cp	r28, r24
     e4a:	09 f4       	brne	.+2      	; 0xe4e <main_menu+0x12>
     e4c:	d4 c0       	rjmp	.+424    	; 0xff6 <main_menu+0x1ba>
		switch(joy_dir){
     e4e:	c1 30       	cpi	r28, 0x01	; 1
     e50:	61 f1       	breq	.+88     	; 0xeaa <main_menu+0x6e>
     e52:	38 f0       	brcs	.+14     	; 0xe62 <main_menu+0x26>
     e54:	c2 30       	cpi	r28, 0x02	; 2
     e56:	09 f4       	brne	.+2      	; 0xe5a <main_menu+0x1e>
     e58:	51 c0       	rjmp	.+162    	; 0xefc <main_menu+0xc0>
     e5a:	c3 30       	cpi	r28, 0x03	; 3
     e5c:	09 f4       	brne	.+2      	; 0xe60 <main_menu+0x24>
     e5e:	92 c0       	rjmp	.+292    	; 0xf84 <main_menu+0x148>
     e60:	ca c0       	rjmp	.+404    	; 0xff6 <main_menu+0x1ba>
			case UP:
				if(current_page > 1){
     e62:	20 91 1b 01 	lds	r18, 0x011B
     e66:	30 91 1c 01 	lds	r19, 0x011C
     e6a:	22 30       	cpi	r18, 0x02	; 2
     e6c:	31 05       	cpc	r19, r1
     e6e:	84 f0       	brlt	.+32     	; 0xe90 <main_menu+0x54>
					current_menu = current_menu->prev_sibling;
     e70:	e0 91 6f 02 	lds	r30, 0x026F
     e74:	f0 91 70 02 	lds	r31, 0x0270
     e78:	84 81       	ldd	r24, Z+4	; 0x04
     e7a:	95 81       	ldd	r25, Z+5	; 0x05
     e7c:	90 93 70 02 	sts	0x0270, r25
     e80:	80 93 6f 02 	sts	0x026F, r24
					current_page--;
     e84:	21 50       	subi	r18, 0x01	; 1
     e86:	31 09       	sbc	r19, r1
     e88:	30 93 1c 01 	sts	0x011C, r19
     e8c:	20 93 1b 01 	sts	0x011B, r18
				}
				menu_sram_update(display_menu, current_page);
     e90:	60 91 1b 01 	lds	r22, 0x011B
     e94:	70 91 1c 01 	lds	r23, 0x011C
     e98:	80 91 7c 02 	lds	r24, 0x027C
     e9c:	90 91 7d 02 	lds	r25, 0x027D
     ea0:	0e 94 fc 05 	call	0xbf8	; 0xbf8 <menu_sram_update>
				oled_update();
     ea4:	0e 94 98 09 	call	0x1330	; 0x1330 <oled_update>
				break;
     ea8:	a6 c0       	rjmp	.+332    	; 0xff6 <main_menu+0x1ba>
			case DOWN:
				if(current_page < display_menu->number_of_childs){
     eaa:	e0 91 7c 02 	lds	r30, 0x027C
     eae:	f0 91 7d 02 	lds	r31, 0x027D
     eb2:	20 91 1b 01 	lds	r18, 0x011B
     eb6:	30 91 1c 01 	lds	r19, 0x011C
     eba:	82 85       	ldd	r24, Z+10	; 0x0a
     ebc:	93 85       	ldd	r25, Z+11	; 0x0b
     ebe:	28 17       	cp	r18, r24
     ec0:	39 07       	cpc	r19, r25
     ec2:	94 f4       	brge	.+36     	; 0xee8 <main_menu+0xac>
					current_menu = current_menu ->next_sibling;
     ec4:	a0 91 6f 02 	lds	r26, 0x026F
     ec8:	b0 91 70 02 	lds	r27, 0x0270
     ecc:	12 96       	adiw	r26, 0x02	; 2
     ece:	8d 91       	ld	r24, X+
     ed0:	9c 91       	ld	r25, X
     ed2:	13 97       	sbiw	r26, 0x03	; 3
     ed4:	90 93 70 02 	sts	0x0270, r25
     ed8:	80 93 6f 02 	sts	0x026F, r24
					current_page++;
     edc:	2f 5f       	subi	r18, 0xFF	; 255
     ede:	3f 4f       	sbci	r19, 0xFF	; 255
     ee0:	30 93 1c 01 	sts	0x011C, r19
     ee4:	20 93 1b 01 	sts	0x011B, r18
				}
				menu_sram_update(display_menu, current_page);
     ee8:	60 91 1b 01 	lds	r22, 0x011B
     eec:	70 91 1c 01 	lds	r23, 0x011C
     ef0:	cf 01       	movw	r24, r30
     ef2:	0e 94 fc 05 	call	0xbf8	; 0xbf8 <menu_sram_update>
				oled_update();
     ef6:	0e 94 98 09 	call	0x1330	; 0x1330 <oled_update>
				break;
     efa:	7d c0       	rjmp	.+250    	; 0xff6 <main_menu+0x1ba>
			case RIGHT:
				if(current_menu->child != NULL){
     efc:	e0 91 6f 02 	lds	r30, 0x026F
     f00:	f0 91 70 02 	lds	r31, 0x0270
     f04:	86 81       	ldd	r24, Z+6	; 0x06
     f06:	97 81       	ldd	r25, Z+7	; 0x07
     f08:	89 2b       	or	r24, r25
     f0a:	09 f4       	brne	.+2      	; 0xf0e <main_menu+0xd2>
     f0c:	74 c0       	rjmp	.+232    	; 0xff6 <main_menu+0x1ba>
					display_menu = update_display_menu(display_menu, current_page, RIGHT);
     f0e:	40 91 1b 01 	lds	r20, 0x011B
     f12:	50 91 1c 01 	lds	r21, 0x011C
     f16:	a0 91 7c 02 	lds	r26, 0x027C
     f1a:	b0 91 7d 02 	lds	r27, 0x027D
	return parent_menu;
}


menu* update_display_menu(menu* current_menu, int page, joystick_dir dir){
	menu* current = current_menu->child;
     f1e:	16 96       	adiw	r26, 0x06	; 6
     f20:	ed 91       	ld	r30, X+
     f22:	fc 91       	ld	r31, X
     f24:	17 97       	sbiw	r26, 0x07	; 7
	if(dir == RIGHT){
		for(int i = 1; i < page; i++){
     f26:	42 30       	cpi	r20, 0x02	; 2
     f28:	51 05       	cpc	r21, r1
     f2a:	54 f0       	brlt	.+20     	; 0xf40 <main_menu+0x104>
     f2c:	21 e0       	ldi	r18, 0x01	; 1
     f2e:	30 e0       	ldi	r19, 0x00	; 0
				current = current->next_sibling;
     f30:	02 80       	ldd	r0, Z+2	; 0x02
     f32:	f3 81       	ldd	r31, Z+3	; 0x03
     f34:	e0 2d       	mov	r30, r0


menu* update_display_menu(menu* current_menu, int page, joystick_dir dir){
	menu* current = current_menu->child;
	if(dir == RIGHT){
		for(int i = 1; i < page; i++){
     f36:	2f 5f       	subi	r18, 0xFF	; 255
     f38:	3f 4f       	sbci	r19, 0xFF	; 255
     f3a:	24 17       	cp	r18, r20
     f3c:	35 07       	cpc	r19, r21
     f3e:	c1 f7       	brne	.-16     	; 0xf30 <main_menu+0xf4>
		current = current_menu->parent;
	}
	
	
	
	if(current != NULL){
     f40:	30 97       	sbiw	r30, 0x00	; 0
     f42:	19 f0       	breq	.+6      	; 0xf4a <main_menu+0x10e>
     f44:	8e 2f       	mov	r24, r30
     f46:	9f 2f       	mov	r25, r31
     f48:	02 c0       	rjmp	.+4      	; 0xf4e <main_menu+0x112>
		return current;
	}
	return current_menu;
     f4a:	8a 2f       	mov	r24, r26
     f4c:	9b 2f       	mov	r25, r27
				menu_sram_update(display_menu, current_page);
				oled_update();
				break;
			case RIGHT:
				if(current_menu->child != NULL){
					display_menu = update_display_menu(display_menu, current_page, RIGHT);
     f4e:	80 93 7c 02 	sts	0x027C, r24
     f52:	90 93 7d 02 	sts	0x027D, r25
					current_page = 1;
     f56:	21 e0       	ldi	r18, 0x01	; 1
     f58:	30 e0       	ldi	r19, 0x00	; 0
     f5a:	30 93 1c 01 	sts	0x011C, r19
     f5e:	20 93 1b 01 	sts	0x011B, r18
					menu_sram_update(display_menu, current_page);
     f62:	61 e0       	ldi	r22, 0x01	; 1
     f64:	70 e0       	ldi	r23, 0x00	; 0
     f66:	0e 94 fc 05 	call	0xbf8	; 0xbf8 <menu_sram_update>
					oled_update();
     f6a:	0e 94 98 09 	call	0x1330	; 0x1330 <oled_update>
					current_menu = current_menu->child;
     f6e:	e0 91 6f 02 	lds	r30, 0x026F
     f72:	f0 91 70 02 	lds	r31, 0x0270
     f76:	86 81       	ldd	r24, Z+6	; 0x06
     f78:	97 81       	ldd	r25, Z+7	; 0x07
     f7a:	90 93 70 02 	sts	0x0270, r25
     f7e:	80 93 6f 02 	sts	0x026F, r24
     f82:	39 c0       	rjmp	.+114    	; 0xff6 <main_menu+0x1ba>
				}
				break;
			case LEFT:
				if(current_menu->parent->parent != NULL){
     f84:	e0 91 6f 02 	lds	r30, 0x026F
     f88:	f0 91 70 02 	lds	r31, 0x0270
     f8c:	00 84       	ldd	r0, Z+8	; 0x08
     f8e:	f1 85       	ldd	r31, Z+9	; 0x09
     f90:	e0 2d       	mov	r30, r0
     f92:	20 85       	ldd	r18, Z+8	; 0x08
     f94:	31 85       	ldd	r19, Z+9	; 0x09
     f96:	23 2b       	or	r18, r19
     f98:	71 f1       	breq	.+92     	; 0xff6 <main_menu+0x1ba>
					display_menu = update_display_menu(display_menu, current_page, LEFT);
     f9a:	e0 91 7c 02 	lds	r30, 0x027C
     f9e:	f0 91 7d 02 	lds	r31, 0x027D
	if(dir == RIGHT){
		for(int i = 1; i < page; i++){
				current = current->next_sibling;
		}
	}else{
		current = current_menu->parent;
     fa2:	20 85       	ldd	r18, Z+8	; 0x08
     fa4:	31 85       	ldd	r19, Z+9	; 0x09
	}
	
	
	
	if(current != NULL){
     fa6:	21 15       	cp	r18, r1
     fa8:	31 05       	cpc	r19, r1
     faa:	19 f0       	breq	.+6      	; 0xfb2 <main_menu+0x176>
		return current;
     fac:	82 2f       	mov	r24, r18
     fae:	93 2f       	mov	r25, r19
     fb0:	02 c0       	rjmp	.+4      	; 0xfb6 <main_menu+0x17a>
	}
	return current_menu;
     fb2:	8e 2f       	mov	r24, r30
     fb4:	9f 2f       	mov	r25, r31
					current_menu = current_menu->child;
				}
				break;
			case LEFT:
				if(current_menu->parent->parent != NULL){
					display_menu = update_display_menu(display_menu, current_page, LEFT);
     fb6:	80 93 7c 02 	sts	0x027C, r24
     fba:	90 93 7d 02 	sts	0x027D, r25
					current_page = 1;
     fbe:	21 e0       	ldi	r18, 0x01	; 1
     fc0:	30 e0       	ldi	r19, 0x00	; 0
     fc2:	30 93 1c 01 	sts	0x011C, r19
     fc6:	20 93 1b 01 	sts	0x011B, r18
					menu_sram_update(display_menu, current_page);
     fca:	61 e0       	ldi	r22, 0x01	; 1
     fcc:	70 e0       	ldi	r23, 0x00	; 0
     fce:	0e 94 fc 05 	call	0xbf8	; 0xbf8 <menu_sram_update>
					oled_update();
     fd2:	0e 94 98 09 	call	0x1330	; 0x1330 <oled_update>
					current_menu = current_menu->parent->parent->child;
     fd6:	e0 91 6f 02 	lds	r30, 0x026F
     fda:	f0 91 70 02 	lds	r31, 0x0270
     fde:	00 84       	ldd	r0, Z+8	; 0x08
     fe0:	f1 85       	ldd	r31, Z+9	; 0x09
     fe2:	e0 2d       	mov	r30, r0
     fe4:	00 84       	ldd	r0, Z+8	; 0x08
     fe6:	f1 85       	ldd	r31, Z+9	; 0x09
     fe8:	e0 2d       	mov	r30, r0
     fea:	86 81       	ldd	r24, Z+6	; 0x06
     fec:	97 81       	ldd	r25, Z+7	; 0x07
     fee:	90 93 70 02 	sts	0x0270, r25
     ff2:	80 93 6f 02 	sts	0x026F, r24
				break;
		}
		
	}
	
	last_joy_dir = joy_dir;
     ff6:	c0 93 1a 01 	sts	0x011A, r28

	
	if(read_joystick_button() == 0){
     ffa:	0e 94 f8 05 	call	0xbf0	; 0xbf0 <read_joystick_button>
     ffe:	89 2b       	or	r24, r25
    1000:	99 f5       	brne	.+102    	; 0x1068 <main_menu+0x22c>
		if (current_menu->name == "Easy"){
    1002:	e0 91 6f 02 	lds	r30, 0x026F
    1006:	f0 91 70 02 	lds	r31, 0x0270
    100a:	80 81       	ld	r24, Z
    100c:	91 81       	ldd	r25, Z+1	; 0x01
    100e:	21 e0       	ldi	r18, 0x01	; 1
    1010:	88 3e       	cpi	r24, 0xE8	; 232
    1012:	92 07       	cpc	r25, r18
    1014:	21 f4       	brne	.+8      	; 0x101e <main_menu+0x1e2>
			current_state = EASY;
    1016:	81 e0       	ldi	r24, 0x01	; 1
    1018:	80 93 75 02 	sts	0x0275, r24
    101c:	25 c0       	rjmp	.+74     	; 0x1068 <main_menu+0x22c>
		}else if (current_menu->name == "Medium"){
    101e:	21 e0       	ldi	r18, 0x01	; 1
    1020:	8d 3e       	cpi	r24, 0xED	; 237
    1022:	92 07       	cpc	r25, r18
    1024:	21 f4       	brne	.+8      	; 0x102e <main_menu+0x1f2>
			current_state = MEDIUM;
    1026:	82 e0       	ldi	r24, 0x02	; 2
    1028:	80 93 75 02 	sts	0x0275, r24
    102c:	1d c0       	rjmp	.+58     	; 0x1068 <main_menu+0x22c>
		}else if (current_menu->name == "Hard"){
    102e:	21 e0       	ldi	r18, 0x01	; 1
    1030:	84 3f       	cpi	r24, 0xF4	; 244
    1032:	92 07       	cpc	r25, r18
    1034:	21 f4       	brne	.+8      	; 0x103e <main_menu+0x202>
			current_state = HARD;
    1036:	83 e0       	ldi	r24, 0x03	; 3
    1038:	80 93 75 02 	sts	0x0275, r24
    103c:	15 c0       	rjmp	.+42     	; 0x1068 <main_menu+0x22c>
		}
		else if (current_menu->name == "View highscore"){
    103e:	21 e0       	ldi	r18, 0x01	; 1
    1040:	89 3f       	cpi	r24, 0xF9	; 249
    1042:	92 07       	cpc	r25, r18
    1044:	21 f4       	brne	.+8      	; 0x104e <main_menu+0x212>
			current_state = HIGHSCORE;
    1046:	84 e0       	ldi	r24, 0x04	; 4
    1048:	80 93 75 02 	sts	0x0275, r24
    104c:	0d c0       	rjmp	.+26     	; 0x1068 <main_menu+0x22c>
		}
		else if (current_menu->name == "YES"){
    104e:	22 e0       	ldi	r18, 0x02	; 2
    1050:	88 31       	cpi	r24, 0x18	; 24
    1052:	92 07       	cpc	r25, r18
    1054:	21 f4       	brne	.+8      	; 0x105e <main_menu+0x222>
			current_state = RESET_HIGHSCORE;
    1056:	85 e0       	ldi	r24, 0x05	; 5
    1058:	80 93 75 02 	sts	0x0275, r24
    105c:	05 c0       	rjmp	.+10     	; 0x1068 <main_menu+0x22c>
		}
		else if (current_menu->name == "NO"){
    105e:	8c 51       	subi	r24, 0x1C	; 28
    1060:	92 40       	sbci	r25, 0x02	; 2
    1062:	11 f4       	brne	.+4      	; 0x1068 <main_menu+0x22c>
			current_state = IDLE;
    1064:	10 92 75 02 	sts	0x0275, r1
		}
	}
}
    1068:	cf 91       	pop	r28
    106a:	08 95       	ret

0000106c <oled_init>:
char* highscore_names[5];
int highscore_scores[5];

void oled_init(){
	//  display  off
	*OLED_c = 0xae;
    106c:	e0 91 21 01 	lds	r30, 0x0121
    1070:	f0 91 22 01 	lds	r31, 0x0122
    1074:	8e ea       	ldi	r24, 0xAE	; 174
    1076:	80 83       	st	Z, r24

	//segment  remap
	*OLED_c = 0xa1;	
    1078:	e0 91 21 01 	lds	r30, 0x0121
    107c:	f0 91 22 01 	lds	r31, 0x0122
    1080:	81 ea       	ldi	r24, 0xA1	; 161
    1082:	80 83       	st	Z, r24

	//common  pads  hardware:  alternative		
	*OLED_c = 0xda;			
    1084:	e0 91 21 01 	lds	r30, 0x0121
    1088:	f0 91 22 01 	lds	r31, 0x0122
    108c:	8a ed       	ldi	r24, 0xDA	; 218
    108e:	80 83       	st	Z, r24
	*OLED_c = 0x12;
    1090:	e0 91 21 01 	lds	r30, 0x0121
    1094:	f0 91 22 01 	lds	r31, 0x0122
    1098:	82 e1       	ldi	r24, 0x12	; 18
    109a:	80 83       	st	Z, r24

	//common output scan direction:com63~com0
	*OLED_c = 0xc8;
    109c:	e0 91 21 01 	lds	r30, 0x0121
    10a0:	f0 91 22 01 	lds	r31, 0x0122
    10a4:	88 ec       	ldi	r24, 0xC8	; 200
    10a6:	80 83       	st	Z, r24

	//multiplex  ration  mode:63
	*OLED_c = 0xa8;
    10a8:	e0 91 21 01 	lds	r30, 0x0121
    10ac:	f0 91 22 01 	lds	r31, 0x0122
    10b0:	88 ea       	ldi	r24, 0xA8	; 168
    10b2:	80 83       	st	Z, r24
	*OLED_c = 0x3f;
    10b4:	e0 91 21 01 	lds	r30, 0x0121
    10b8:	f0 91 22 01 	lds	r31, 0x0122
    10bc:	8f e3       	ldi	r24, 0x3F	; 63
    10be:	80 83       	st	Z, r24

	//display divide ratio/osc. freq. mode
	*OLED_c = 0xd5;
    10c0:	e0 91 21 01 	lds	r30, 0x0121
    10c4:	f0 91 22 01 	lds	r31, 0x0122
    10c8:	85 ed       	ldi	r24, 0xD5	; 213
    10ca:	80 83       	st	Z, r24
	*OLED_c = 0x80;
    10cc:	e0 91 21 01 	lds	r30, 0x0121
    10d0:	f0 91 22 01 	lds	r31, 0x0122
    10d4:	80 e8       	ldi	r24, 0x80	; 128
    10d6:	80 83       	st	Z, r24

	//contrast  control
	*OLED_c = 0x81;
    10d8:	e0 91 21 01 	lds	r30, 0x0121
    10dc:	f0 91 22 01 	lds	r31, 0x0122
    10e0:	81 e8       	ldi	r24, 0x81	; 129
    10e2:	80 83       	st	Z, r24
	*OLED_c = 0x50;
    10e4:	e0 91 21 01 	lds	r30, 0x0121
    10e8:	f0 91 22 01 	lds	r31, 0x0122
    10ec:	80 e5       	ldi	r24, 0x50	; 80
    10ee:	80 83       	st	Z, r24

	//set  pre-charge  period
	*OLED_c = 0xd9;
    10f0:	e0 91 21 01 	lds	r30, 0x0121
    10f4:	f0 91 22 01 	lds	r31, 0x0122
    10f8:	89 ed       	ldi	r24, 0xD9	; 217
    10fa:	80 83       	st	Z, r24
	*OLED_c = 0x21;
    10fc:	e0 91 21 01 	lds	r30, 0x0121
    1100:	f0 91 22 01 	lds	r31, 0x0122
    1104:	81 e2       	ldi	r24, 0x21	; 33
    1106:	80 83       	st	Z, r24

	 //Set  Memory  Addressing  Mode
	*OLED_c = 0x20;
    1108:	e0 91 21 01 	lds	r30, 0x0121
    110c:	f0 91 22 01 	lds	r31, 0x0122
    1110:	80 e2       	ldi	r24, 0x20	; 32
    1112:	80 83       	st	Z, r24
	*OLED_c = 0x02;
    1114:	e0 91 21 01 	lds	r30, 0x0121
    1118:	f0 91 22 01 	lds	r31, 0x0122
    111c:	82 e0       	ldi	r24, 0x02	; 2
    111e:	80 83       	st	Z, r24

	//VCOM  deselect  level  mode
	*OLED_c = 0xdb;
    1120:	e0 91 21 01 	lds	r30, 0x0121
    1124:	f0 91 22 01 	lds	r31, 0x0122
    1128:	8b ed       	ldi	r24, 0xDB	; 219
    112a:	80 83       	st	Z, r24
	*OLED_c = 0x30;
    112c:	e0 91 21 01 	lds	r30, 0x0121
    1130:	f0 91 22 01 	lds	r31, 0x0122
    1134:	80 e3       	ldi	r24, 0x30	; 48
    1136:	80 83       	st	Z, r24

	//master  configuration
	*OLED_c = 0xad;
    1138:	e0 91 21 01 	lds	r30, 0x0121
    113c:	f0 91 22 01 	lds	r31, 0x0122
    1140:	8d ea       	ldi	r24, 0xAD	; 173
    1142:	80 83       	st	Z, r24

	//out follows RAM content 
	*OLED_c = 0x00;
    1144:	e0 91 21 01 	lds	r30, 0x0121
    1148:	f0 91 22 01 	lds	r31, 0x0122
    114c:	10 82       	st	Z, r1
	
	//set  normal  display
	*OLED_c = 0xa4;
    114e:	e0 91 21 01 	lds	r30, 0x0121
    1152:	f0 91 22 01 	lds	r31, 0x0122
    1156:	84 ea       	ldi	r24, 0xA4	; 164
    1158:	80 83       	st	Z, r24
	*OLED_c = 0xa6;
    115a:	e0 91 21 01 	lds	r30, 0x0121
    115e:	f0 91 22 01 	lds	r31, 0x0122
    1162:	86 ea       	ldi	r24, 0xA6	; 166
    1164:	80 83       	st	Z, r24
	
	//  display  on
	*OLED_c = 0xaf;
    1166:	e0 91 21 01 	lds	r30, 0x0121
    116a:	f0 91 22 01 	lds	r31, 0x0122
    116e:	8f ea       	ldi	r24, 0xAF	; 175
    1170:	80 83       	st	Z, r24
    1172:	08 95       	ret

00001174 <oled_sram_reset>:
	

	
}
void oled_sram_reset(){
	for(int i = 0; i < 128*8; i++){
    1174:	80 e0       	ldi	r24, 0x00	; 0
    1176:	90 e0       	ldi	r25, 0x00	; 0
		SRAM[i] = ' ';
    1178:	20 e2       	ldi	r18, 0x20	; 32
    117a:	e0 91 1d 01 	lds	r30, 0x011D
    117e:	f0 91 1e 01 	lds	r31, 0x011E
    1182:	e8 0f       	add	r30, r24
    1184:	f9 1f       	adc	r31, r25
    1186:	20 83       	st	Z, r18
	

	
}
void oled_sram_reset(){
	for(int i = 0; i < 128*8; i++){
    1188:	01 96       	adiw	r24, 0x01	; 1
    118a:	81 15       	cp	r24, r1
    118c:	34 e0       	ldi	r19, 0x04	; 4
    118e:	93 07       	cpc	r25, r19
    1190:	a1 f7       	brne	.-24     	; 0x117a <oled_sram_reset+0x6>
		SRAM[i] = ' ';
	}
}
    1192:	08 95       	ret

00001194 <oled_goto_page>:
		}
	}
}

void oled_goto_page(int page){
	*OLED_c = (page | 0xb0);
    1194:	e0 91 21 01 	lds	r30, 0x0121
    1198:	f0 91 22 01 	lds	r31, 0x0122
    119c:	98 2f       	mov	r25, r24
    119e:	90 6b       	ori	r25, 0xB0	; 176
    11a0:	90 83       	st	Z, r25
	current_page = page;
    11a2:	80 93 72 02 	sts	0x0272, r24
    11a6:	08 95       	ret

000011a8 <oled_goto_column>:
}


void oled_goto_column(int column){
	*OLED_c = (column & 0x0f); //clearer de 4 frste bitsene
    11a8:	e0 91 21 01 	lds	r30, 0x0121
    11ac:	f0 91 22 01 	lds	r31, 0x0122
    11b0:	28 2f       	mov	r18, r24
    11b2:	2f 70       	andi	r18, 0x0F	; 15
    11b4:	20 83       	st	Z, r18
	*OLED_c = ((column & 0xf0) >> 4) | (0x10);
    11b6:	e0 91 21 01 	lds	r30, 0x0121
    11ba:	f0 91 22 01 	lds	r31, 0x0122
    11be:	9c 01       	movw	r18, r24
    11c0:	20 7f       	andi	r18, 0xF0	; 240
    11c2:	33 27       	eor	r19, r19
    11c4:	35 95       	asr	r19
    11c6:	27 95       	ror	r18
    11c8:	35 95       	asr	r19
    11ca:	27 95       	ror	r18
    11cc:	35 95       	asr	r19
    11ce:	27 95       	ror	r18
    11d0:	35 95       	asr	r19
    11d2:	27 95       	ror	r18
    11d4:	20 61       	ori	r18, 0x10	; 16
    11d6:	20 83       	st	Z, r18
	current_col = column;
    11d8:	80 93 71 02 	sts	0x0271, r24
    11dc:	08 95       	ret

000011de <oled_pos>:

int oled_return_page(void){
	return current_page;
}

void oled_pos(int row,int column){
    11de:	cf 93       	push	r28
    11e0:	df 93       	push	r29
    11e2:	eb 01       	movw	r28, r22
	oled_goto_page(row);
    11e4:	0e 94 ca 08 	call	0x1194	; 0x1194 <oled_goto_page>
	oled_goto_column(column);
    11e8:	ce 01       	movw	r24, r28
    11ea:	0e 94 d4 08 	call	0x11a8	; 0x11a8 <oled_goto_column>
}
    11ee:	df 91       	pop	r29
    11f0:	cf 91       	pop	r28
    11f2:	08 95       	ret

000011f4 <oled_reset>:
void oled_sram_reset(){
	for(int i = 0; i < 128*8; i++){
		SRAM[i] = ' ';
	}
}
void oled_reset(){
    11f4:	0f 93       	push	r16
    11f6:	1f 93       	push	r17
    11f8:	cf 93       	push	r28
    11fa:	df 93       	push	r29
    11fc:	c0 e0       	ldi	r28, 0x00	; 0
    11fe:	d0 e0       	ldi	r29, 0x00	; 0
	
	for (uint8_t i = 0 ; i < 8; i++){
		oled_pos(i, 0);
    1200:	00 e8       	ldi	r16, 0x80	; 128
    1202:	10 e0       	ldi	r17, 0x00	; 0
    1204:	60 e0       	ldi	r22, 0x00	; 0
    1206:	70 e0       	ldi	r23, 0x00	; 0
    1208:	ce 01       	movw	r24, r28
    120a:	0e 94 ef 08 	call	0x11de	; 0x11de <oled_pos>
    120e:	20 2f       	mov	r18, r16
    1210:	31 2f       	mov	r19, r17
		for (uint16_t i = 0 ; i < 128; i++){
			*OLED_d = 0x00;
    1212:	e0 91 1f 01 	lds	r30, 0x011F
    1216:	f0 91 20 01 	lds	r31, 0x0120
    121a:	10 82       	st	Z, r1
    121c:	21 50       	subi	r18, 0x01	; 1
    121e:	31 09       	sbc	r19, r1
}
void oled_reset(){
	
	for (uint8_t i = 0 ; i < 8; i++){
		oled_pos(i, 0);
		for (uint16_t i = 0 ; i < 128; i++){
    1220:	21 15       	cp	r18, r1
    1222:	31 05       	cpc	r19, r1
    1224:	b1 f7       	brne	.-20     	; 0x1212 <oled_reset+0x1e>
    1226:	21 96       	adiw	r28, 0x01	; 1
		SRAM[i] = ' ';
	}
}
void oled_reset(){
	
	for (uint8_t i = 0 ; i < 8; i++){
    1228:	c8 30       	cpi	r28, 0x08	; 8
    122a:	d1 05       	cpc	r29, r1
    122c:	59 f7       	brne	.-42     	; 0x1204 <oled_reset+0x10>
		oled_pos(i, 0);
		for (uint16_t i = 0 ; i < 128; i++){
			*OLED_d = 0x00;
		}
	}
}
    122e:	df 91       	pop	r29
    1230:	cf 91       	pop	r28
    1232:	1f 91       	pop	r17
    1234:	0f 91       	pop	r16
    1236:	08 95       	ret

00001238 <oled_home>:
	oled_goto_column(column);
}


void oled_home(){
	oled_pos(0,0);
    1238:	60 e0       	ldi	r22, 0x00	; 0
    123a:	70 e0       	ldi	r23, 0x00	; 0
    123c:	80 e0       	ldi	r24, 0x00	; 0
    123e:	90 e0       	ldi	r25, 0x00	; 0
    1240:	0e 94 ef 08 	call	0x11de	; 0x11de <oled_pos>
    1244:	08 95       	ret

00001246 <oled_print_char>:
	for (uint16_t i = 0 ; i < 128; i++){
		*OLED_d = 0xff;
	}
}

void oled_print_char(char c){
    1246:	28 e0       	ldi	r18, 0x08	; 8
    1248:	82 9f       	mul	r24, r18
    124a:	c0 01       	movw	r24, r0
    124c:	11 24       	eor	r1, r1
    124e:	fc 01       	movw	r30, r24
    1250:	e0 59       	subi	r30, 0x90	; 144
    1252:	f0 40       	sbci	r31, 0x00	; 0
	for (uint8_t i = 0 ; i < 8 ; i++){  //i < 8 fordi vi bruker font8
    1254:	80 e0       	ldi	r24, 0x00	; 0
		*OLED_d = pgm_read_byte(&(font8[c - ASCII_OFFSET][i]));
    1256:	a0 91 1f 01 	lds	r26, 0x011F
    125a:	b0 91 20 01 	lds	r27, 0x0120
    125e:	94 91       	lpm	r25, Z
    1260:	9c 93       	st	X, r25
		*OLED_d = 0xff;
	}
}

void oled_print_char(char c){
	for (uint8_t i = 0 ; i < 8 ; i++){  //i < 8 fordi vi bruker font8
    1262:	8f 5f       	subi	r24, 0xFF	; 255
    1264:	31 96       	adiw	r30, 0x01	; 1
    1266:	88 30       	cpi	r24, 0x08	; 8
    1268:	b1 f7       	brne	.-20     	; 0x1256 <oled_print_char+0x10>
		*OLED_d = pgm_read_byte(&(font8[c - ASCII_OFFSET][i]));
	}
}
    126a:	08 95       	ret

0000126c <oled_sram_string>:
			oled_print_char(oled_read_SRAM(i, j)); 
		}
	}
}

void oled_sram_string(char* string, int page, int start_col){
    126c:	0f 93       	push	r16
    126e:	1f 93       	push	r17
    1270:	cf 93       	push	r28
    1272:	df 93       	push	r29
    1274:	dc 01       	movw	r26, r24
	int col = start_col;
    1276:	9a 01       	movw	r18, r20
	
	for(uint8_t i = 0 ; i < strlen(string) ; i++){
    1278:	c0 e0       	ldi	r28, 0x00	; 0
		if (i+start_col == 16){
			//16 char per column, linjeskift
			page = (page+1)%8;
			col = start_col;
    127a:	14 2f       	mov	r17, r20
    127c:	d5 2f       	mov	r29, r21
}

void oled_sram_string(char* string, int page, int start_col){
	int col = start_col;
	
	for(uint8_t i = 0 ; i < strlen(string) ; i++){
    127e:	29 c0       	rjmp	.+82     	; 0x12d2 <oled_sram_string+0x66>
		if (i+start_col == 16){
    1280:	fa 01       	movw	r30, r20
    1282:	ec 0f       	add	r30, r28
    1284:	f1 1d       	adc	r31, r1
    1286:	70 97       	sbiw	r30, 0x10	; 16
    1288:	71 f4       	brne	.+28     	; 0x12a6 <oled_sram_string+0x3a>
			//16 char per column, linjeskift
			page = (page+1)%8;
    128a:	6f 5f       	subi	r22, 0xFF	; 255
    128c:	7f 4f       	sbci	r23, 0xFF	; 255
    128e:	67 70       	andi	r22, 0x07	; 7
    1290:	70 78       	andi	r23, 0x80	; 128
    1292:	77 23       	and	r23, r23
    1294:	34 f4       	brge	.+12     	; 0x12a2 <oled_sram_string+0x36>
    1296:	61 50       	subi	r22, 0x01	; 1
    1298:	71 09       	sbc	r23, r1
    129a:	68 6f       	ori	r22, 0xF8	; 248
    129c:	7f 6f       	ori	r23, 0xFF	; 255
    129e:	6f 5f       	subi	r22, 0xFF	; 255
    12a0:	7f 4f       	sbci	r23, 0xFF	; 255
			col = start_col;
    12a2:	21 2f       	mov	r18, r17
    12a4:	3d 2f       	mov	r19, r29
		}
		oled_sram_char(string[i], page, col);
    12a6:	fd 01       	movw	r30, r26
    12a8:	e8 0f       	add	r30, r24
    12aa:	f9 1f       	adc	r31, r25
    12ac:	00 81       	ld	r16, Z
	}
}


void oled_sram_char(char c, int page, int col){
	SRAM[128 * page + col] = c;
    12ae:	fb 01       	movw	r30, r22
    12b0:	f6 95       	lsr	r31
    12b2:	fe 2f       	mov	r31, r30
    12b4:	ee 27       	eor	r30, r30
    12b6:	f7 95       	ror	r31
    12b8:	e7 95       	ror	r30
    12ba:	e2 0f       	add	r30, r18
    12bc:	f3 1f       	adc	r31, r19
    12be:	80 91 1d 01 	lds	r24, 0x011D
    12c2:	90 91 1e 01 	lds	r25, 0x011E
    12c6:	e8 0f       	add	r30, r24
    12c8:	f9 1f       	adc	r31, r25
    12ca:	00 83       	st	Z, r16
			//16 char per column, linjeskift
			page = (page+1)%8;
			col = start_col;
		}
		oled_sram_char(string[i], page, col);
		col++;
    12cc:	2f 5f       	subi	r18, 0xFF	; 255
    12ce:	3f 4f       	sbci	r19, 0xFF	; 255
}

void oled_sram_string(char* string, int page, int start_col){
	int col = start_col;
	
	for(uint8_t i = 0 ; i < strlen(string) ; i++){
    12d0:	cf 5f       	subi	r28, 0xFF	; 255
    12d2:	8c 2f       	mov	r24, r28
    12d4:	90 e0       	ldi	r25, 0x00	; 0
    12d6:	fd 01       	movw	r30, r26
    12d8:	01 90       	ld	r0, Z+
    12da:	00 20       	and	r0, r0
    12dc:	e9 f7       	brne	.-6      	; 0x12d8 <oled_sram_string+0x6c>
    12de:	31 97       	sbiw	r30, 0x01	; 1
    12e0:	ea 1b       	sub	r30, r26
    12e2:	fb 0b       	sbc	r31, r27
    12e4:	8e 17       	cp	r24, r30
    12e6:	9f 07       	cpc	r25, r31
    12e8:	58 f2       	brcs	.-106    	; 0x1280 <oled_sram_string+0x14>
			col = start_col;
		}
		oled_sram_char(string[i], page, col);
		col++;
	}
}
    12ea:	df 91       	pop	r29
    12ec:	cf 91       	pop	r28
    12ee:	1f 91       	pop	r17
    12f0:	0f 91       	pop	r16
    12f2:	08 95       	ret

000012f4 <oled_sram_char>:


void oled_sram_char(char c, int page, int col){
	SRAM[128 * page + col] = c;
    12f4:	76 95       	lsr	r23
    12f6:	76 2f       	mov	r23, r22
    12f8:	66 27       	eor	r22, r22
    12fa:	77 95       	ror	r23
    12fc:	67 95       	ror	r22
    12fe:	64 0f       	add	r22, r20
    1300:	75 1f       	adc	r23, r21
    1302:	e0 91 1d 01 	lds	r30, 0x011D
    1306:	f0 91 1e 01 	lds	r31, 0x011E
    130a:	e6 0f       	add	r30, r22
    130c:	f7 1f       	adc	r31, r23
    130e:	80 83       	st	Z, r24
    1310:	08 95       	ret

00001312 <oled_read_SRAM>:
}


char oled_read_SRAM(int page, int col){
	return SRAM[128 * page + col];
    1312:	96 95       	lsr	r25
    1314:	98 2f       	mov	r25, r24
    1316:	88 27       	eor	r24, r24
    1318:	97 95       	ror	r25
    131a:	87 95       	ror	r24
    131c:	68 0f       	add	r22, r24
    131e:	79 1f       	adc	r23, r25
    1320:	e0 91 1d 01 	lds	r30, 0x011D
    1324:	f0 91 1e 01 	lds	r31, 0x011E
    1328:	e6 0f       	add	r30, r22
    132a:	f7 1f       	adc	r31, r23
    132c:	80 81       	ld	r24, Z
}
    132e:	08 95       	ret

00001330 <oled_update>:
		*OLED_d = pgm_read_byte(&(font8[c - ASCII_OFFSET][i]));
	}
}


void oled_update(){
    1330:	0f 93       	push	r16
    1332:	1f 93       	push	r17
    1334:	cf 93       	push	r28
    1336:	df 93       	push	r29
	oled_reset();
    1338:	0e 94 fa 08 	call	0x11f4	; 0x11f4 <oled_reset>
	oled_home();
    133c:	0e 94 1c 09 	call	0x1238	; 0x1238 <oled_home>
	for(int i = 0; i<8; i++){
    1340:	00 e0       	ldi	r16, 0x00	; 0
    1342:	10 e0       	ldi	r17, 0x00	; 0
		oled_pos(i,0);
    1344:	60 e0       	ldi	r22, 0x00	; 0
    1346:	70 e0       	ldi	r23, 0x00	; 0
    1348:	c8 01       	movw	r24, r16
    134a:	0e 94 ef 08 	call	0x11de	; 0x11de <oled_pos>
		for(int j = 0; j < 16; j++){
    134e:	c0 e0       	ldi	r28, 0x00	; 0
    1350:	d0 e0       	ldi	r29, 0x00	; 0
			oled_print_char(oled_read_SRAM(i, j)); 
    1352:	be 01       	movw	r22, r28
    1354:	c8 01       	movw	r24, r16
    1356:	0e 94 89 09 	call	0x1312	; 0x1312 <oled_read_SRAM>
    135a:	0e 94 23 09 	call	0x1246	; 0x1246 <oled_print_char>
void oled_update(){
	oled_reset();
	oled_home();
	for(int i = 0; i<8; i++){
		oled_pos(i,0);
		for(int j = 0; j < 16; j++){
    135e:	21 96       	adiw	r28, 0x01	; 1
    1360:	c0 31       	cpi	r28, 0x10	; 16
    1362:	d1 05       	cpc	r29, r1
    1364:	b1 f7       	brne	.-20     	; 0x1352 <oled_update+0x22>


void oled_update(){
	oled_reset();
	oled_home();
	for(int i = 0; i<8; i++){
    1366:	0f 5f       	subi	r16, 0xFF	; 255
    1368:	1f 4f       	sbci	r17, 0xFF	; 255
    136a:	08 30       	cpi	r16, 0x08	; 8
    136c:	11 05       	cpc	r17, r1
    136e:	51 f7       	brne	.-44     	; 0x1344 <oled_update+0x14>
		oled_pos(i,0);
		for(int j = 0; j < 16; j++){
			oled_print_char(oled_read_SRAM(i, j)); 
		}
	}
}
    1370:	df 91       	pop	r29
    1372:	cf 91       	pop	r28
    1374:	1f 91       	pop	r17
    1376:	0f 91       	pop	r16
    1378:	08 95       	ret

0000137a <oled_play_game>:
	}
	printf("Ut av while\n");
	return letters;
}

void oled_play_game(int life, int score){
    137a:	cf 93       	push	r28
    137c:	c8 2f       	mov	r28, r24
    137e:	cb 01       	movw	r24, r22
    } else if (__radix < 2 || __radix > 36) {
	*__s = 0;
	return __s;
    } else {
	extern char *__itoa_ncheck (int, char *, unsigned char);
	return __itoa_ncheck (__val, __s, __radix);
    1380:	4a e0       	ldi	r20, 0x0A	; 10
    1382:	65 ea       	ldi	r22, 0xA5	; 165
    1384:	71 e0       	ldi	r23, 0x01	; 1
    1386:	0e 94 d8 0b 	call	0x17b0	; 0x17b0 <__itoa_ncheck>
	char* score_send = ""; 
	itoa(score, score_send, 10);
	oled_sram_reset();
    138a:	0e 94 ba 08 	call	0x1174	; 0x1174 <oled_sram_reset>
	oled_sram_string("PINGPONG GAME", 0, 0);
    138e:	40 e0       	ldi	r20, 0x00	; 0
    1390:	50 e0       	ldi	r21, 0x00	; 0
    1392:	60 e0       	ldi	r22, 0x00	; 0
    1394:	70 e0       	ldi	r23, 0x00	; 0
    1396:	8f e3       	ldi	r24, 0x3F	; 63
    1398:	92 e0       	ldi	r25, 0x02	; 2
    139a:	0e 94 36 09 	call	0x126c	; 0x126c <oled_sram_string>
	oled_sram_string("LIVES", 3, 0);
    139e:	40 e0       	ldi	r20, 0x00	; 0
    13a0:	50 e0       	ldi	r21, 0x00	; 0
    13a2:	63 e0       	ldi	r22, 0x03	; 3
    13a4:	70 e0       	ldi	r23, 0x00	; 0
    13a6:	8d e4       	ldi	r24, 0x4D	; 77
    13a8:	92 e0       	ldi	r25, 0x02	; 2
    13aa:	0e 94 36 09 	call	0x126c	; 0x126c <oled_sram_string>
	oled_sram_string("SCORE", 3, 9);
    13ae:	49 e0       	ldi	r20, 0x09	; 9
    13b0:	50 e0       	ldi	r21, 0x00	; 0
    13b2:	63 e0       	ldi	r22, 0x03	; 3
    13b4:	70 e0       	ldi	r23, 0x00	; 0
    13b6:	89 e2       	ldi	r24, 0x29	; 41
    13b8:	92 e0       	ldi	r25, 0x02	; 2
    13ba:	0e 94 36 09 	call	0x126c	; 0x126c <oled_sram_string>
	oled_sram_char(life + '0', 5, 2);
    13be:	c0 5d       	subi	r28, 0xD0	; 208
	}
}


void oled_sram_char(char c, int page, int col){
	SRAM[128 * page + col] = c;
    13c0:	e0 91 1d 01 	lds	r30, 0x011D
    13c4:	f0 91 1e 01 	lds	r31, 0x011E
    13c8:	ee 57       	subi	r30, 0x7E	; 126
    13ca:	fd 4f       	sbci	r31, 0xFD	; 253
    13cc:	c0 83       	st	Z, r28
	oled_sram_reset();
	oled_sram_string("PINGPONG GAME", 0, 0);
	oled_sram_string("LIVES", 3, 0);
	oled_sram_string("SCORE", 3, 9);
	oled_sram_char(life + '0', 5, 2);
	oled_sram_string(score_send, 5, 10);
    13ce:	4a e0       	ldi	r20, 0x0A	; 10
    13d0:	50 e0       	ldi	r21, 0x00	; 0
    13d2:	65 e0       	ldi	r22, 0x05	; 5
    13d4:	70 e0       	ldi	r23, 0x00	; 0
    13d6:	85 ea       	ldi	r24, 0xA5	; 165
    13d8:	91 e0       	ldi	r25, 0x01	; 1
    13da:	0e 94 36 09 	call	0x126c	; 0x126c <oled_sram_string>
	oled_update();
    13de:	0e 94 98 09 	call	0x1330	; 0x1330 <oled_update>
		
}
    13e2:	cf 91       	pop	r28
    13e4:	08 95       	ret

000013e6 <oled_game_over>:
void oled_game_over(void){
	oled_sram_reset(); 
    13e6:	0e 94 ba 08 	call	0x1174	; 0x1174 <oled_sram_reset>
	oled_sram_string("YOU LOSE", 4, 0); 
    13ea:	40 e0       	ldi	r20, 0x00	; 0
    13ec:	50 e0       	ldi	r21, 0x00	; 0
    13ee:	64 e0       	ldi	r22, 0x04	; 4
    13f0:	70 e0       	ldi	r23, 0x00	; 0
    13f2:	83 e5       	ldi	r24, 0x53	; 83
    13f4:	92 e0       	ldi	r25, 0x02	; 2
    13f6:	0e 94 36 09 	call	0x126c	; 0x126c <oled_sram_string>
	oled_update(); 
    13fa:	0e 94 98 09 	call	0x1330	; 0x1330 <oled_update>
    13fe:	08 95       	ret

00001400 <oled_play_again>:
}

void oled_play_again(){
	oled_sram_reset();
    1400:	0e 94 ba 08 	call	0x1174	; 0x1174 <oled_sram_reset>
	oled_sram_string("Play again?", 0, 0); 
    1404:	40 e0       	ldi	r20, 0x00	; 0
    1406:	50 e0       	ldi	r21, 0x00	; 0
    1408:	60 e0       	ldi	r22, 0x00	; 0
    140a:	70 e0       	ldi	r23, 0x00	; 0
    140c:	8c e5       	ldi	r24, 0x5C	; 92
    140e:	92 e0       	ldi	r25, 0x02	; 2
    1410:	0e 94 36 09 	call	0x126c	; 0x126c <oled_sram_string>
	oled_sram_string("YES", 4, 0); 
    1414:	40 e0       	ldi	r20, 0x00	; 0
    1416:	50 e0       	ldi	r21, 0x00	; 0
    1418:	64 e0       	ldi	r22, 0x04	; 4
    141a:	70 e0       	ldi	r23, 0x00	; 0
    141c:	88 e1       	ldi	r24, 0x18	; 24
    141e:	92 e0       	ldi	r25, 0x02	; 2
    1420:	0e 94 36 09 	call	0x126c	; 0x126c <oled_sram_string>
	oled_sram_string("NO", 4, 9);
    1424:	49 e0       	ldi	r20, 0x09	; 9
    1426:	50 e0       	ldi	r21, 0x00	; 0
    1428:	64 e0       	ldi	r22, 0x04	; 4
    142a:	70 e0       	ldi	r23, 0x00	; 0
    142c:	8c e1       	ldi	r24, 0x1C	; 28
    142e:	92 e0       	ldi	r25, 0x02	; 2
    1430:	0e 94 36 09 	call	0x126c	; 0x126c <oled_sram_string>
	oled_update();
    1434:	0e 94 98 09 	call	0x1330	; 0x1330 <oled_update>
    1438:	08 95       	ret

0000143a <int_to_str>:
    143a:	4a e0       	ldi	r20, 0x0A	; 10
    143c:	65 ea       	ldi	r22, 0xA5	; 165
    143e:	71 e0       	ldi	r23, 0x01	; 1
    1440:	0e 94 d8 0b 	call	0x17b0	; 0x17b0 <__itoa_ncheck>

char* int_to_str(int data){
	char* data_str = "";
	itoa(data, data_str, 10);
	return data_str;
}
    1444:	85 ea       	ldi	r24, 0xA5	; 165
    1446:	91 e0       	ldi	r25, 0x01	; 1
    1448:	08 95       	ret

0000144a <SPI_read_write>:
}

uint8_t SPI_read_write(char cData){
	/* Start transmission */
	
	SPDR = cData;
    144a:	8f b9       	out	0x0f, r24	; 15
	/* Wait for transmission complete */
	while(!(test_bit(SPSR, SPIF)));   //wait until SPIF-flag is set. 
    144c:	77 9b       	sbis	0x0e, 7	; 14
    144e:	fe cf       	rjmp	.-4      	; 0x144c <SPI_read_write+0x2>
	return SPDR;
    1450:	8f b1       	in	r24, 0x0f	; 15
}
    1452:	08 95       	ret

00001454 <SPI_activate_SS>:

void SPI_activate_SS(){
	clr_bit(PORTB, SS);
    1454:	c4 98       	cbi	0x18, 4	; 24
    1456:	08 95       	ret

00001458 <SPI_deactivate_SS>:
}

void SPI_deactivate_SS(){
	set_bit(PORTB, SS);
    1458:	c4 9a       	sbi	0x18, 4	; 24
    145a:	08 95       	ret

0000145c <SPI_init>:
#include <avr/io.h>


void SPI_init(void){
	//SPI enable
	set_bit(SPCR, SPE);
    145c:	6e 9a       	sbi	0x0d, 6	; 13
	//Data order MSB transmitted first
	//clr_bit(SPCR, DORD);
	//Set SPI to master mode
	set_bit(SPCR, MSTR);
    145e:	6c 9a       	sbi	0x0d, 4	; 13
	
	//set SPI clock rate = Fosc/2
	set_bit(SPSR, SPI2X);
    1460:	70 9a       	sbi	0x0e, 0	; 14
	
	
	//set MOSI and SCK to output, all others input
	set_bit(DDRB, MOSI);
    1462:	bd 9a       	sbi	0x17, 5	; 23
	set_bit(DDRB, SCK);
    1464:	bf 9a       	sbi	0x17, 7	; 23
	set_bit(DDRB, SS);
    1466:	bc 9a       	sbi	0x17, 4	; 23
	
	SPI_deactivate_SS();
    1468:	0e 94 2c 0a 	call	0x1458	; 0x1458 <SPI_deactivate_SS>
    146c:	08 95       	ret

0000146e <register_init>:
#define REGISTER_INIT_H_
void register_init(void);

void register_init(void){
	//enabler externt minne i MCU
	set_bit(MCUCR, SRE);
    146e:	85 b7       	in	r24, 0x35	; 53
    1470:	80 68       	ori	r24, 0x80	; 128
    1472:	85 bf       	out	0x35, r24	; 53
	set_bit(SFIOR, XMM2);
    1474:	80 b7       	in	r24, 0x30	; 48
    1476:	80 62       	ori	r24, 0x20	; 32
    1478:	80 bf       	out	0x30, r24	; 48

	//enable interrupts in MCU
	clr_bit(MCUCR,ISC00);
    147a:	85 b7       	in	r24, 0x35	; 53
    147c:	8e 7f       	andi	r24, 0xFE	; 254
    147e:	85 bf       	out	0x35, r24	; 53
	set_bit(MCUCR,ISC01);
    1480:	85 b7       	in	r24, 0x35	; 53
    1482:	82 60       	ori	r24, 0x02	; 2
    1484:	85 bf       	out	0x35, r24	; 53
	set_bit(GICR,INT0);
    1486:	8b b7       	in	r24, 0x3b	; 59
    1488:	80 64       	ori	r24, 0x40	; 64
    148a:	8b bf       	out	0x3b, r24	; 59
	
	
	clr_bit(DDRD, DDD2);
    148c:	8a 98       	cbi	0x11, 2	; 17
	
	//Set timer/counter1 interrupt
	//Normal mode
	clr_bit(TCCR1A, WGM11);
    148e:	8f b5       	in	r24, 0x2f	; 47
    1490:	8d 7f       	andi	r24, 0xFD	; 253
    1492:	8f bd       	out	0x2f, r24	; 47
	clr_bit(TCCR1A, WGM10);
    1494:	8f b5       	in	r24, 0x2f	; 47
    1496:	8e 7f       	andi	r24, 0xFE	; 254
    1498:	8f bd       	out	0x2f, r24	; 47
	clr_bit(TCCR3A, WGM31);
    149a:	eb e8       	ldi	r30, 0x8B	; 139
    149c:	f0 e0       	ldi	r31, 0x00	; 0
    149e:	80 81       	ld	r24, Z
    14a0:	8d 7f       	andi	r24, 0xFD	; 253
    14a2:	80 83       	st	Z, r24
	clr_bit(TCCR3A, WGM30);
    14a4:	80 81       	ld	r24, Z
    14a6:	8e 7f       	andi	r24, 0xFE	; 254
    14a8:	80 83       	st	Z, r24
	
	//Timer 1: Prescaler Fosc/1024
	set_bit(TCCR1B, CS11);
    14aa:	8e b5       	in	r24, 0x2e	; 46
    14ac:	82 60       	ori	r24, 0x02	; 2
    14ae:	8e bd       	out	0x2e, r24	; 46
	set_bit(TCCR1B, CS10);
    14b0:	8e b5       	in	r24, 0x2e	; 46
    14b2:	81 60       	ori	r24, 0x01	; 1
    14b4:	8e bd       	out	0x2e, r24	; 46
	
	
	//Timer 2: Precale Fosc/8
	set_bit(TCCR3B, CS31);
    14b6:	ea e8       	ldi	r30, 0x8A	; 138
    14b8:	f0 e0       	ldi	r31, 0x00	; 0
    14ba:	80 81       	ld	r24, Z
    14bc:	82 60       	ori	r24, 0x02	; 2
    14be:	80 83       	st	Z, r24


	
	//Interrupt enable overflow
	set_bit(TIMSK, TOIE1);
    14c0:	89 b7       	in	r24, 0x39	; 57
    14c2:	80 68       	ori	r24, 0x80	; 128
    14c4:	89 bf       	out	0x39, r24	; 57
	set_bit(ETIMSK, TOIE3);		//Enable Can_send interrupt
    14c6:	ed e7       	ldi	r30, 0x7D	; 125
    14c8:	f0 e0       	ldi	r31, 0x00	; 0
    14ca:	80 81       	ld	r24, Z
    14cc:	84 60       	ori	r24, 0x04	; 4
    14ce:	80 83       	st	Z, r24
    14d0:	08 95       	ret

000014d2 <main>:



int main(void) {
	// Disable global interrupts
	cli();
    14d2:	f8 94       	cli
	UART_init(31);
    14d4:	8f e1       	ldi	r24, 0x1F	; 31
    14d6:	90 e0       	ldi	r25, 0x00	; 0
    14d8:	0e 94 ab 05 	call	0xb56	; 0xb56 <UART_init>
	register_init();
    14dc:	0e 94 37 0a 	call	0x146e	; 0x146e <register_init>
	oled_init();
    14e0:	0e 94 36 08 	call	0x106c	; 0x106c <oled_init>
	ADC_init();
    14e4:	0e 94 d3 01 	call	0x3a6	; 0x3a6 <ADC_init>
	CAN_init();
    14e8:	0e 94 15 02 	call	0x42a	; 0x42a <CAN_init>
	//Enable global interrupts
	sei();
    14ec:	78 94       	sei
	
	
	menu_setup();
    14ee:	0e 94 78 06 	call	0xcf0	; 0xcf0 <menu_setup>
			case HARD:
				play_game(HARD);
				break;
			case RESET_HIGHSCORE:
				reset_highscore_list();
				current_state = HIGHSCORE;
    14f2:	c4 e0       	ldi	r28, 0x04	; 4
	//insert_highscore(1, 10, "YOO");
	//oled_print_highscore();
	
	while(1){
		
		switch(current_state){
    14f4:	80 91 75 02 	lds	r24, 0x0275
    14f8:	82 30       	cpi	r24, 0x02	; 2
    14fa:	99 f0       	breq	.+38     	; 0x1522 <main+0x50>
    14fc:	28 f4       	brcc	.+10     	; 0x1508 <main+0x36>
    14fe:	88 23       	and	r24, r24
    1500:	49 f0       	breq	.+18     	; 0x1514 <main+0x42>
    1502:	81 30       	cpi	r24, 0x01	; 1
    1504:	51 f0       	breq	.+20     	; 0x151a <main+0x48>
    1506:	f8 cf       	rjmp	.-16     	; 0x14f8 <main+0x26>
    1508:	84 30       	cpi	r24, 0x04	; 4
    150a:	c1 f0       	breq	.+48     	; 0x153c <main+0x6a>
    150c:	70 f0       	brcs	.+28     	; 0x152a <main+0x58>
    150e:	85 30       	cpi	r24, 0x05	; 5
    1510:	81 f0       	breq	.+32     	; 0x1532 <main+0x60>
    1512:	f2 cf       	rjmp	.-28     	; 0x14f8 <main+0x26>
			case IDLE:
				main_menu();
    1514:	0e 94 1e 07 	call	0xe3c	; 0xe3c <main_menu>
				break;
    1518:	ed cf       	rjmp	.-38     	; 0x14f4 <main+0x22>
			case EASY:
				play_game(EASY);
    151a:	81 e0       	ldi	r24, 0x01	; 1
    151c:	0e 94 14 03 	call	0x628	; 0x628 <play_game>
				break;
    1520:	e9 cf       	rjmp	.-46     	; 0x14f4 <main+0x22>
			case MEDIUM:
				play_game(MEDIUM);
    1522:	82 e0       	ldi	r24, 0x02	; 2
    1524:	0e 94 14 03 	call	0x628	; 0x628 <play_game>
				break;
    1528:	e5 cf       	rjmp	.-54     	; 0x14f4 <main+0x22>
			case HARD:
				play_game(HARD);
    152a:	83 e0       	ldi	r24, 0x03	; 3
    152c:	0e 94 14 03 	call	0x628	; 0x628 <play_game>
				break;
    1530:	e1 cf       	rjmp	.-62     	; 0x14f4 <main+0x22>
			case RESET_HIGHSCORE:
				reset_highscore_list();
    1532:	0e 94 13 05 	call	0xa26	; 0xa26 <reset_highscore_list>
				current_state = HIGHSCORE;
    1536:	c0 93 75 02 	sts	0x0275, r28
				break;
    153a:	dc cf       	rjmp	.-72     	; 0x14f4 <main+0x22>
			case HIGHSCORE:
				if(find_joystick_dir() == LEFT){
    153c:	0e 94 d5 05 	call	0xbaa	; 0xbaa <find_joystick_dir>
    1540:	83 30       	cpi	r24, 0x03	; 3
    1542:	11 f4       	brne	.+4      	; 0x1548 <main+0x76>
					current_state = IDLE; 
    1544:	10 92 75 02 	sts	0x0275, r1
				}
				if (oled_flag){
    1548:	80 91 73 02 	lds	r24, 0x0273
    154c:	90 91 74 02 	lds	r25, 0x0274
    1550:	89 2b       	or	r24, r25
    1552:	81 f2       	breq	.-96     	; 0x14f4 <main+0x22>
					oled_print_highscore();
    1554:	0e 94 bc 04 	call	0x978	; 0x978 <oled_print_highscore>
					oled_flag = 0;
    1558:	10 92 74 02 	sts	0x0274, r1
    155c:	10 92 73 02 	sts	0x0273, r1
    1560:	c9 cf       	rjmp	.-110    	; 0x14f4 <main+0x22>

00001562 <malloc>:
    1562:	cf 93       	push	r28
    1564:	df 93       	push	r29
    1566:	82 30       	cpi	r24, 0x02	; 2
    1568:	91 05       	cpc	r25, r1
    156a:	10 f4       	brcc	.+4      	; 0x1570 <malloc+0xe>
    156c:	82 e0       	ldi	r24, 0x02	; 2
    156e:	90 e0       	ldi	r25, 0x00	; 0
    1570:	e0 91 80 02 	lds	r30, 0x0280
    1574:	f0 91 81 02 	lds	r31, 0x0281
    1578:	20 e0       	ldi	r18, 0x00	; 0
    157a:	30 e0       	ldi	r19, 0x00	; 0
    157c:	a0 e0       	ldi	r26, 0x00	; 0
    157e:	b0 e0       	ldi	r27, 0x00	; 0
    1580:	30 97       	sbiw	r30, 0x00	; 0
    1582:	39 f1       	breq	.+78     	; 0x15d2 <malloc+0x70>
    1584:	40 81       	ld	r20, Z
    1586:	51 81       	ldd	r21, Z+1	; 0x01
    1588:	48 17       	cp	r20, r24
    158a:	59 07       	cpc	r21, r25
    158c:	b8 f0       	brcs	.+46     	; 0x15bc <malloc+0x5a>
    158e:	48 17       	cp	r20, r24
    1590:	59 07       	cpc	r21, r25
    1592:	71 f4       	brne	.+28     	; 0x15b0 <malloc+0x4e>
    1594:	82 81       	ldd	r24, Z+2	; 0x02
    1596:	93 81       	ldd	r25, Z+3	; 0x03
    1598:	10 97       	sbiw	r26, 0x00	; 0
    159a:	29 f0       	breq	.+10     	; 0x15a6 <malloc+0x44>
    159c:	13 96       	adiw	r26, 0x03	; 3
    159e:	9c 93       	st	X, r25
    15a0:	8e 93       	st	-X, r24
    15a2:	12 97       	sbiw	r26, 0x02	; 2
    15a4:	2c c0       	rjmp	.+88     	; 0x15fe <malloc+0x9c>
    15a6:	90 93 81 02 	sts	0x0281, r25
    15aa:	80 93 80 02 	sts	0x0280, r24
    15ae:	27 c0       	rjmp	.+78     	; 0x15fe <malloc+0x9c>
    15b0:	21 15       	cp	r18, r1
    15b2:	31 05       	cpc	r19, r1
    15b4:	31 f0       	breq	.+12     	; 0x15c2 <malloc+0x60>
    15b6:	42 17       	cp	r20, r18
    15b8:	53 07       	cpc	r21, r19
    15ba:	18 f0       	brcs	.+6      	; 0x15c2 <malloc+0x60>
    15bc:	a9 01       	movw	r20, r18
    15be:	db 01       	movw	r26, r22
    15c0:	01 c0       	rjmp	.+2      	; 0x15c4 <malloc+0x62>
    15c2:	ef 01       	movw	r28, r30
    15c4:	9a 01       	movw	r18, r20
    15c6:	bd 01       	movw	r22, r26
    15c8:	df 01       	movw	r26, r30
    15ca:	02 80       	ldd	r0, Z+2	; 0x02
    15cc:	f3 81       	ldd	r31, Z+3	; 0x03
    15ce:	e0 2d       	mov	r30, r0
    15d0:	d7 cf       	rjmp	.-82     	; 0x1580 <malloc+0x1e>
    15d2:	21 15       	cp	r18, r1
    15d4:	31 05       	cpc	r19, r1
    15d6:	f9 f0       	breq	.+62     	; 0x1616 <malloc+0xb4>
    15d8:	28 1b       	sub	r18, r24
    15da:	39 0b       	sbc	r19, r25
    15dc:	24 30       	cpi	r18, 0x04	; 4
    15de:	31 05       	cpc	r19, r1
    15e0:	80 f4       	brcc	.+32     	; 0x1602 <malloc+0xa0>
    15e2:	8a 81       	ldd	r24, Y+2	; 0x02
    15e4:	9b 81       	ldd	r25, Y+3	; 0x03
    15e6:	61 15       	cp	r22, r1
    15e8:	71 05       	cpc	r23, r1
    15ea:	21 f0       	breq	.+8      	; 0x15f4 <malloc+0x92>
    15ec:	fb 01       	movw	r30, r22
    15ee:	93 83       	std	Z+3, r25	; 0x03
    15f0:	82 83       	std	Z+2, r24	; 0x02
    15f2:	04 c0       	rjmp	.+8      	; 0x15fc <malloc+0x9a>
    15f4:	90 93 81 02 	sts	0x0281, r25
    15f8:	80 93 80 02 	sts	0x0280, r24
    15fc:	fe 01       	movw	r30, r28
    15fe:	32 96       	adiw	r30, 0x02	; 2
    1600:	44 c0       	rjmp	.+136    	; 0x168a <malloc+0x128>
    1602:	fe 01       	movw	r30, r28
    1604:	e2 0f       	add	r30, r18
    1606:	f3 1f       	adc	r31, r19
    1608:	81 93       	st	Z+, r24
    160a:	91 93       	st	Z+, r25
    160c:	22 50       	subi	r18, 0x02	; 2
    160e:	31 09       	sbc	r19, r1
    1610:	39 83       	std	Y+1, r19	; 0x01
    1612:	28 83       	st	Y, r18
    1614:	3a c0       	rjmp	.+116    	; 0x168a <malloc+0x128>
    1616:	20 91 7e 02 	lds	r18, 0x027E
    161a:	30 91 7f 02 	lds	r19, 0x027F
    161e:	23 2b       	or	r18, r19
    1620:	41 f4       	brne	.+16     	; 0x1632 <malloc+0xd0>
    1622:	20 91 02 01 	lds	r18, 0x0102
    1626:	30 91 03 01 	lds	r19, 0x0103
    162a:	30 93 7f 02 	sts	0x027F, r19
    162e:	20 93 7e 02 	sts	0x027E, r18
    1632:	20 91 00 01 	lds	r18, 0x0100
    1636:	30 91 01 01 	lds	r19, 0x0101
    163a:	21 15       	cp	r18, r1
    163c:	31 05       	cpc	r19, r1
    163e:	41 f4       	brne	.+16     	; 0x1650 <malloc+0xee>
    1640:	2d b7       	in	r18, 0x3d	; 61
    1642:	3e b7       	in	r19, 0x3e	; 62
    1644:	40 91 04 01 	lds	r20, 0x0104
    1648:	50 91 05 01 	lds	r21, 0x0105
    164c:	24 1b       	sub	r18, r20
    164e:	35 0b       	sbc	r19, r21
    1650:	e0 91 7e 02 	lds	r30, 0x027E
    1654:	f0 91 7f 02 	lds	r31, 0x027F
    1658:	e2 17       	cp	r30, r18
    165a:	f3 07       	cpc	r31, r19
    165c:	a0 f4       	brcc	.+40     	; 0x1686 <malloc+0x124>
    165e:	2e 1b       	sub	r18, r30
    1660:	3f 0b       	sbc	r19, r31
    1662:	28 17       	cp	r18, r24
    1664:	39 07       	cpc	r19, r25
    1666:	78 f0       	brcs	.+30     	; 0x1686 <malloc+0x124>
    1668:	ac 01       	movw	r20, r24
    166a:	4e 5f       	subi	r20, 0xFE	; 254
    166c:	5f 4f       	sbci	r21, 0xFF	; 255
    166e:	24 17       	cp	r18, r20
    1670:	35 07       	cpc	r19, r21
    1672:	48 f0       	brcs	.+18     	; 0x1686 <malloc+0x124>
    1674:	4e 0f       	add	r20, r30
    1676:	5f 1f       	adc	r21, r31
    1678:	50 93 7f 02 	sts	0x027F, r21
    167c:	40 93 7e 02 	sts	0x027E, r20
    1680:	81 93       	st	Z+, r24
    1682:	91 93       	st	Z+, r25
    1684:	02 c0       	rjmp	.+4      	; 0x168a <malloc+0x128>
    1686:	e0 e0       	ldi	r30, 0x00	; 0
    1688:	f0 e0       	ldi	r31, 0x00	; 0
    168a:	cf 01       	movw	r24, r30
    168c:	df 91       	pop	r29
    168e:	cf 91       	pop	r28
    1690:	08 95       	ret

00001692 <free>:
    1692:	cf 93       	push	r28
    1694:	df 93       	push	r29
    1696:	00 97       	sbiw	r24, 0x00	; 0
    1698:	09 f4       	brne	.+2      	; 0x169c <free+0xa>
    169a:	87 c0       	rjmp	.+270    	; 0x17aa <free+0x118>
    169c:	fc 01       	movw	r30, r24
    169e:	32 97       	sbiw	r30, 0x02	; 2
    16a0:	13 82       	std	Z+3, r1	; 0x03
    16a2:	12 82       	std	Z+2, r1	; 0x02
    16a4:	c0 91 80 02 	lds	r28, 0x0280
    16a8:	d0 91 81 02 	lds	r29, 0x0281
    16ac:	20 97       	sbiw	r28, 0x00	; 0
    16ae:	81 f4       	brne	.+32     	; 0x16d0 <free+0x3e>
    16b0:	20 81       	ld	r18, Z
    16b2:	31 81       	ldd	r19, Z+1	; 0x01
    16b4:	28 0f       	add	r18, r24
    16b6:	39 1f       	adc	r19, r25
    16b8:	80 91 7e 02 	lds	r24, 0x027E
    16bc:	90 91 7f 02 	lds	r25, 0x027F
    16c0:	82 17       	cp	r24, r18
    16c2:	93 07       	cpc	r25, r19
    16c4:	79 f5       	brne	.+94     	; 0x1724 <free+0x92>
    16c6:	f0 93 7f 02 	sts	0x027F, r31
    16ca:	e0 93 7e 02 	sts	0x027E, r30
    16ce:	6d c0       	rjmp	.+218    	; 0x17aa <free+0x118>
    16d0:	de 01       	movw	r26, r28
    16d2:	20 e0       	ldi	r18, 0x00	; 0
    16d4:	30 e0       	ldi	r19, 0x00	; 0
    16d6:	ae 17       	cp	r26, r30
    16d8:	bf 07       	cpc	r27, r31
    16da:	50 f4       	brcc	.+20     	; 0x16f0 <free+0x5e>
    16dc:	12 96       	adiw	r26, 0x02	; 2
    16de:	4d 91       	ld	r20, X+
    16e0:	5c 91       	ld	r21, X
    16e2:	13 97       	sbiw	r26, 0x03	; 3
    16e4:	9d 01       	movw	r18, r26
    16e6:	41 15       	cp	r20, r1
    16e8:	51 05       	cpc	r21, r1
    16ea:	09 f1       	breq	.+66     	; 0x172e <free+0x9c>
    16ec:	da 01       	movw	r26, r20
    16ee:	f3 cf       	rjmp	.-26     	; 0x16d6 <free+0x44>
    16f0:	b3 83       	std	Z+3, r27	; 0x03
    16f2:	a2 83       	std	Z+2, r26	; 0x02
    16f4:	40 81       	ld	r20, Z
    16f6:	51 81       	ldd	r21, Z+1	; 0x01
    16f8:	84 0f       	add	r24, r20
    16fa:	95 1f       	adc	r25, r21
    16fc:	8a 17       	cp	r24, r26
    16fe:	9b 07       	cpc	r25, r27
    1700:	71 f4       	brne	.+28     	; 0x171e <free+0x8c>
    1702:	8d 91       	ld	r24, X+
    1704:	9c 91       	ld	r25, X
    1706:	11 97       	sbiw	r26, 0x01	; 1
    1708:	84 0f       	add	r24, r20
    170a:	95 1f       	adc	r25, r21
    170c:	02 96       	adiw	r24, 0x02	; 2
    170e:	91 83       	std	Z+1, r25	; 0x01
    1710:	80 83       	st	Z, r24
    1712:	12 96       	adiw	r26, 0x02	; 2
    1714:	8d 91       	ld	r24, X+
    1716:	9c 91       	ld	r25, X
    1718:	13 97       	sbiw	r26, 0x03	; 3
    171a:	93 83       	std	Z+3, r25	; 0x03
    171c:	82 83       	std	Z+2, r24	; 0x02
    171e:	21 15       	cp	r18, r1
    1720:	31 05       	cpc	r19, r1
    1722:	29 f4       	brne	.+10     	; 0x172e <free+0x9c>
    1724:	f0 93 81 02 	sts	0x0281, r31
    1728:	e0 93 80 02 	sts	0x0280, r30
    172c:	3e c0       	rjmp	.+124    	; 0x17aa <free+0x118>
    172e:	d9 01       	movw	r26, r18
    1730:	13 96       	adiw	r26, 0x03	; 3
    1732:	fc 93       	st	X, r31
    1734:	ee 93       	st	-X, r30
    1736:	12 97       	sbiw	r26, 0x02	; 2
    1738:	4d 91       	ld	r20, X+
    173a:	5d 91       	ld	r21, X+
    173c:	a4 0f       	add	r26, r20
    173e:	b5 1f       	adc	r27, r21
    1740:	ea 17       	cp	r30, r26
    1742:	fb 07       	cpc	r31, r27
    1744:	79 f4       	brne	.+30     	; 0x1764 <free+0xd2>
    1746:	80 81       	ld	r24, Z
    1748:	91 81       	ldd	r25, Z+1	; 0x01
    174a:	84 0f       	add	r24, r20
    174c:	95 1f       	adc	r25, r21
    174e:	02 96       	adiw	r24, 0x02	; 2
    1750:	d9 01       	movw	r26, r18
    1752:	11 96       	adiw	r26, 0x01	; 1
    1754:	9c 93       	st	X, r25
    1756:	8e 93       	st	-X, r24
    1758:	82 81       	ldd	r24, Z+2	; 0x02
    175a:	93 81       	ldd	r25, Z+3	; 0x03
    175c:	13 96       	adiw	r26, 0x03	; 3
    175e:	9c 93       	st	X, r25
    1760:	8e 93       	st	-X, r24
    1762:	12 97       	sbiw	r26, 0x02	; 2
    1764:	e0 e0       	ldi	r30, 0x00	; 0
    1766:	f0 e0       	ldi	r31, 0x00	; 0
    1768:	8a 81       	ldd	r24, Y+2	; 0x02
    176a:	9b 81       	ldd	r25, Y+3	; 0x03
    176c:	00 97       	sbiw	r24, 0x00	; 0
    176e:	19 f0       	breq	.+6      	; 0x1776 <free+0xe4>
    1770:	fe 01       	movw	r30, r28
    1772:	ec 01       	movw	r28, r24
    1774:	f9 cf       	rjmp	.-14     	; 0x1768 <free+0xd6>
    1776:	ce 01       	movw	r24, r28
    1778:	02 96       	adiw	r24, 0x02	; 2
    177a:	28 81       	ld	r18, Y
    177c:	39 81       	ldd	r19, Y+1	; 0x01
    177e:	82 0f       	add	r24, r18
    1780:	93 1f       	adc	r25, r19
    1782:	20 91 7e 02 	lds	r18, 0x027E
    1786:	30 91 7f 02 	lds	r19, 0x027F
    178a:	28 17       	cp	r18, r24
    178c:	39 07       	cpc	r19, r25
    178e:	69 f4       	brne	.+26     	; 0x17aa <free+0x118>
    1790:	30 97       	sbiw	r30, 0x00	; 0
    1792:	29 f4       	brne	.+10     	; 0x179e <free+0x10c>
    1794:	10 92 81 02 	sts	0x0281, r1
    1798:	10 92 80 02 	sts	0x0280, r1
    179c:	02 c0       	rjmp	.+4      	; 0x17a2 <free+0x110>
    179e:	13 82       	std	Z+3, r1	; 0x03
    17a0:	12 82       	std	Z+2, r1	; 0x02
    17a2:	d0 93 7f 02 	sts	0x027F, r29
    17a6:	c0 93 7e 02 	sts	0x027E, r28
    17aa:	df 91       	pop	r29
    17ac:	cf 91       	pop	r28
    17ae:	08 95       	ret

000017b0 <__itoa_ncheck>:
    17b0:	bb 27       	eor	r27, r27
    17b2:	4a 30       	cpi	r20, 0x0A	; 10
    17b4:	31 f4       	brne	.+12     	; 0x17c2 <__itoa_ncheck+0x12>
    17b6:	99 23       	and	r25, r25
    17b8:	22 f4       	brpl	.+8      	; 0x17c2 <__itoa_ncheck+0x12>
    17ba:	bd e2       	ldi	r27, 0x2D	; 45
    17bc:	90 95       	com	r25
    17be:	81 95       	neg	r24
    17c0:	9f 4f       	sbci	r25, 0xFF	; 255
    17c2:	0c 94 e4 0b 	jmp	0x17c8	; 0x17c8 <__utoa_common>

000017c6 <__utoa_ncheck>:
    17c6:	bb 27       	eor	r27, r27

000017c8 <__utoa_common>:
    17c8:	fb 01       	movw	r30, r22
    17ca:	55 27       	eor	r21, r21
    17cc:	aa 27       	eor	r26, r26
    17ce:	88 0f       	add	r24, r24
    17d0:	99 1f       	adc	r25, r25
    17d2:	aa 1f       	adc	r26, r26
    17d4:	a4 17       	cp	r26, r20
    17d6:	10 f0       	brcs	.+4      	; 0x17dc <__utoa_common+0x14>
    17d8:	a4 1b       	sub	r26, r20
    17da:	83 95       	inc	r24
    17dc:	50 51       	subi	r21, 0x10	; 16
    17de:	b9 f7       	brne	.-18     	; 0x17ce <__utoa_common+0x6>
    17e0:	a0 5d       	subi	r26, 0xD0	; 208
    17e2:	aa 33       	cpi	r26, 0x3A	; 58
    17e4:	08 f0       	brcs	.+2      	; 0x17e8 <__utoa_common+0x20>
    17e6:	a9 5d       	subi	r26, 0xD9	; 217
    17e8:	a1 93       	st	Z+, r26
    17ea:	00 97       	sbiw	r24, 0x00	; 0
    17ec:	79 f7       	brne	.-34     	; 0x17cc <__utoa_common+0x4>
    17ee:	b1 11       	cpse	r27, r1
    17f0:	b1 93       	st	Z+, r27
    17f2:	11 92       	st	Z+, r1
    17f4:	cb 01       	movw	r24, r22
    17f6:	0c 94 94 0e 	jmp	0x1d28	; 0x1d28 <strrev>

000017fa <fdevopen>:
    17fa:	0f 93       	push	r16
    17fc:	1f 93       	push	r17
    17fe:	cf 93       	push	r28
    1800:	df 93       	push	r29
    1802:	ec 01       	movw	r28, r24
    1804:	8b 01       	movw	r16, r22
    1806:	00 97       	sbiw	r24, 0x00	; 0
    1808:	31 f4       	brne	.+12     	; 0x1816 <fdevopen+0x1c>
    180a:	61 15       	cp	r22, r1
    180c:	71 05       	cpc	r23, r1
    180e:	19 f4       	brne	.+6      	; 0x1816 <fdevopen+0x1c>
    1810:	80 e0       	ldi	r24, 0x00	; 0
    1812:	90 e0       	ldi	r25, 0x00	; 0
    1814:	38 c0       	rjmp	.+112    	; 0x1886 <fdevopen+0x8c>
    1816:	6e e0       	ldi	r22, 0x0E	; 14
    1818:	70 e0       	ldi	r23, 0x00	; 0
    181a:	81 e0       	ldi	r24, 0x01	; 1
    181c:	90 e0       	ldi	r25, 0x00	; 0
    181e:	0e 94 5b 0e 	call	0x1cb6	; 0x1cb6 <calloc>
    1822:	fc 01       	movw	r30, r24
    1824:	00 97       	sbiw	r24, 0x00	; 0
    1826:	a1 f3       	breq	.-24     	; 0x1810 <fdevopen+0x16>
    1828:	80 e8       	ldi	r24, 0x80	; 128
    182a:	83 83       	std	Z+3, r24	; 0x03
    182c:	01 15       	cp	r16, r1
    182e:	11 05       	cpc	r17, r1
    1830:	71 f0       	breq	.+28     	; 0x184e <fdevopen+0x54>
    1832:	13 87       	std	Z+11, r17	; 0x0b
    1834:	02 87       	std	Z+10, r16	; 0x0a
    1836:	81 e8       	ldi	r24, 0x81	; 129
    1838:	83 83       	std	Z+3, r24	; 0x03
    183a:	80 91 82 02 	lds	r24, 0x0282
    183e:	90 91 83 02 	lds	r25, 0x0283
    1842:	89 2b       	or	r24, r25
    1844:	21 f4       	brne	.+8      	; 0x184e <fdevopen+0x54>
    1846:	f0 93 83 02 	sts	0x0283, r31
    184a:	e0 93 82 02 	sts	0x0282, r30
    184e:	20 97       	sbiw	r28, 0x00	; 0
    1850:	c9 f0       	breq	.+50     	; 0x1884 <fdevopen+0x8a>
    1852:	d1 87       	std	Z+9, r29	; 0x09
    1854:	c0 87       	std	Z+8, r28	; 0x08
    1856:	83 81       	ldd	r24, Z+3	; 0x03
    1858:	82 60       	ori	r24, 0x02	; 2
    185a:	83 83       	std	Z+3, r24	; 0x03
    185c:	80 91 84 02 	lds	r24, 0x0284
    1860:	90 91 85 02 	lds	r25, 0x0285
    1864:	89 2b       	or	r24, r25
    1866:	71 f4       	brne	.+28     	; 0x1884 <fdevopen+0x8a>
    1868:	f0 93 85 02 	sts	0x0285, r31
    186c:	e0 93 84 02 	sts	0x0284, r30
    1870:	80 91 86 02 	lds	r24, 0x0286
    1874:	90 91 87 02 	lds	r25, 0x0287
    1878:	89 2b       	or	r24, r25
    187a:	21 f4       	brne	.+8      	; 0x1884 <fdevopen+0x8a>
    187c:	f0 93 87 02 	sts	0x0287, r31
    1880:	e0 93 86 02 	sts	0x0286, r30
    1884:	cf 01       	movw	r24, r30
    1886:	df 91       	pop	r29
    1888:	cf 91       	pop	r28
    188a:	1f 91       	pop	r17
    188c:	0f 91       	pop	r16
    188e:	08 95       	ret

00001890 <printf>:
    1890:	a0 e0       	ldi	r26, 0x00	; 0
    1892:	b0 e0       	ldi	r27, 0x00	; 0
    1894:	ee e4       	ldi	r30, 0x4E	; 78
    1896:	fc e0       	ldi	r31, 0x0C	; 12
    1898:	0c 94 44 0f 	jmp	0x1e88	; 0x1e88 <__prologue_saves__+0x20>
    189c:	fe 01       	movw	r30, r28
    189e:	35 96       	adiw	r30, 0x05	; 5
    18a0:	61 91       	ld	r22, Z+
    18a2:	71 91       	ld	r23, Z+
    18a4:	af 01       	movw	r20, r30
    18a6:	80 91 84 02 	lds	r24, 0x0284
    18aa:	90 91 85 02 	lds	r25, 0x0285
    18ae:	0e 94 89 0c 	call	0x1912	; 0x1912 <vfprintf>
    18b2:	e2 e0       	ldi	r30, 0x02	; 2
    18b4:	0c 94 60 0f 	jmp	0x1ec0	; 0x1ec0 <__epilogue_restores__+0x20>

000018b8 <puts>:
    18b8:	0f 93       	push	r16
    18ba:	1f 93       	push	r17
    18bc:	cf 93       	push	r28
    18be:	df 93       	push	r29
    18c0:	e0 91 84 02 	lds	r30, 0x0284
    18c4:	f0 91 85 02 	lds	r31, 0x0285
    18c8:	23 81       	ldd	r18, Z+3	; 0x03
    18ca:	21 ff       	sbrs	r18, 1
    18cc:	1b c0       	rjmp	.+54     	; 0x1904 <puts+0x4c>
    18ce:	ec 01       	movw	r28, r24
    18d0:	00 e0       	ldi	r16, 0x00	; 0
    18d2:	10 e0       	ldi	r17, 0x00	; 0
    18d4:	89 91       	ld	r24, Y+
    18d6:	60 91 84 02 	lds	r22, 0x0284
    18da:	70 91 85 02 	lds	r23, 0x0285
    18de:	db 01       	movw	r26, r22
    18e0:	18 96       	adiw	r26, 0x08	; 8
    18e2:	ed 91       	ld	r30, X+
    18e4:	fc 91       	ld	r31, X
    18e6:	19 97       	sbiw	r26, 0x09	; 9
    18e8:	88 23       	and	r24, r24
    18ea:	31 f0       	breq	.+12     	; 0x18f8 <puts+0x40>
    18ec:	09 95       	icall
    18ee:	89 2b       	or	r24, r25
    18f0:	89 f3       	breq	.-30     	; 0x18d4 <puts+0x1c>
    18f2:	0f ef       	ldi	r16, 0xFF	; 255
    18f4:	1f ef       	ldi	r17, 0xFF	; 255
    18f6:	ee cf       	rjmp	.-36     	; 0x18d4 <puts+0x1c>
    18f8:	8a e0       	ldi	r24, 0x0A	; 10
    18fa:	09 95       	icall
    18fc:	89 2b       	or	r24, r25
    18fe:	11 f4       	brne	.+4      	; 0x1904 <puts+0x4c>
    1900:	c8 01       	movw	r24, r16
    1902:	02 c0       	rjmp	.+4      	; 0x1908 <puts+0x50>
    1904:	8f ef       	ldi	r24, 0xFF	; 255
    1906:	9f ef       	ldi	r25, 0xFF	; 255
    1908:	df 91       	pop	r29
    190a:	cf 91       	pop	r28
    190c:	1f 91       	pop	r17
    190e:	0f 91       	pop	r16
    1910:	08 95       	ret

00001912 <vfprintf>:
    1912:	ac e0       	ldi	r26, 0x0C	; 12
    1914:	b0 e0       	ldi	r27, 0x00	; 0
    1916:	ef e8       	ldi	r30, 0x8F	; 143
    1918:	fc e0       	ldi	r31, 0x0C	; 12
    191a:	0c 94 34 0f 	jmp	0x1e68	; 0x1e68 <__prologue_saves__>
    191e:	7c 01       	movw	r14, r24
    1920:	6b 01       	movw	r12, r22
    1922:	8a 01       	movw	r16, r20
    1924:	fc 01       	movw	r30, r24
    1926:	17 82       	std	Z+7, r1	; 0x07
    1928:	16 82       	std	Z+6, r1	; 0x06
    192a:	83 81       	ldd	r24, Z+3	; 0x03
    192c:	81 ff       	sbrs	r24, 1
    192e:	bd c1       	rjmp	.+890    	; 0x1caa <vfprintf+0x398>
    1930:	ce 01       	movw	r24, r28
    1932:	01 96       	adiw	r24, 0x01	; 1
    1934:	4c 01       	movw	r8, r24
    1936:	f7 01       	movw	r30, r14
    1938:	93 81       	ldd	r25, Z+3	; 0x03
    193a:	f6 01       	movw	r30, r12
    193c:	93 fd       	sbrc	r25, 3
    193e:	85 91       	lpm	r24, Z+
    1940:	93 ff       	sbrs	r25, 3
    1942:	81 91       	ld	r24, Z+
    1944:	6f 01       	movw	r12, r30
    1946:	88 23       	and	r24, r24
    1948:	09 f4       	brne	.+2      	; 0x194c <vfprintf+0x3a>
    194a:	ab c1       	rjmp	.+854    	; 0x1ca2 <vfprintf+0x390>
    194c:	85 32       	cpi	r24, 0x25	; 37
    194e:	39 f4       	brne	.+14     	; 0x195e <vfprintf+0x4c>
    1950:	93 fd       	sbrc	r25, 3
    1952:	85 91       	lpm	r24, Z+
    1954:	93 ff       	sbrs	r25, 3
    1956:	81 91       	ld	r24, Z+
    1958:	6f 01       	movw	r12, r30
    195a:	85 32       	cpi	r24, 0x25	; 37
    195c:	29 f4       	brne	.+10     	; 0x1968 <vfprintf+0x56>
    195e:	b7 01       	movw	r22, r14
    1960:	90 e0       	ldi	r25, 0x00	; 0
    1962:	0e 94 a4 0e 	call	0x1d48	; 0x1d48 <fputc>
    1966:	e7 cf       	rjmp	.-50     	; 0x1936 <vfprintf+0x24>
    1968:	51 2c       	mov	r5, r1
    196a:	31 2c       	mov	r3, r1
    196c:	20 e0       	ldi	r18, 0x00	; 0
    196e:	20 32       	cpi	r18, 0x20	; 32
    1970:	a0 f4       	brcc	.+40     	; 0x199a <vfprintf+0x88>
    1972:	8b 32       	cpi	r24, 0x2B	; 43
    1974:	69 f0       	breq	.+26     	; 0x1990 <vfprintf+0x7e>
    1976:	30 f4       	brcc	.+12     	; 0x1984 <vfprintf+0x72>
    1978:	80 32       	cpi	r24, 0x20	; 32
    197a:	59 f0       	breq	.+22     	; 0x1992 <vfprintf+0x80>
    197c:	83 32       	cpi	r24, 0x23	; 35
    197e:	69 f4       	brne	.+26     	; 0x199a <vfprintf+0x88>
    1980:	20 61       	ori	r18, 0x10	; 16
    1982:	2c c0       	rjmp	.+88     	; 0x19dc <vfprintf+0xca>
    1984:	8d 32       	cpi	r24, 0x2D	; 45
    1986:	39 f0       	breq	.+14     	; 0x1996 <vfprintf+0x84>
    1988:	80 33       	cpi	r24, 0x30	; 48
    198a:	39 f4       	brne	.+14     	; 0x199a <vfprintf+0x88>
    198c:	21 60       	ori	r18, 0x01	; 1
    198e:	26 c0       	rjmp	.+76     	; 0x19dc <vfprintf+0xca>
    1990:	22 60       	ori	r18, 0x02	; 2
    1992:	24 60       	ori	r18, 0x04	; 4
    1994:	23 c0       	rjmp	.+70     	; 0x19dc <vfprintf+0xca>
    1996:	28 60       	ori	r18, 0x08	; 8
    1998:	21 c0       	rjmp	.+66     	; 0x19dc <vfprintf+0xca>
    199a:	27 fd       	sbrc	r18, 7
    199c:	27 c0       	rjmp	.+78     	; 0x19ec <vfprintf+0xda>
    199e:	30 ed       	ldi	r19, 0xD0	; 208
    19a0:	38 0f       	add	r19, r24
    19a2:	3a 30       	cpi	r19, 0x0A	; 10
    19a4:	78 f4       	brcc	.+30     	; 0x19c4 <vfprintf+0xb2>
    19a6:	26 ff       	sbrs	r18, 6
    19a8:	06 c0       	rjmp	.+12     	; 0x19b6 <vfprintf+0xa4>
    19aa:	fa e0       	ldi	r31, 0x0A	; 10
    19ac:	5f 9e       	mul	r5, r31
    19ae:	30 0d       	add	r19, r0
    19b0:	11 24       	eor	r1, r1
    19b2:	53 2e       	mov	r5, r19
    19b4:	13 c0       	rjmp	.+38     	; 0x19dc <vfprintf+0xca>
    19b6:	8a e0       	ldi	r24, 0x0A	; 10
    19b8:	38 9e       	mul	r3, r24
    19ba:	30 0d       	add	r19, r0
    19bc:	11 24       	eor	r1, r1
    19be:	33 2e       	mov	r3, r19
    19c0:	20 62       	ori	r18, 0x20	; 32
    19c2:	0c c0       	rjmp	.+24     	; 0x19dc <vfprintf+0xca>
    19c4:	8e 32       	cpi	r24, 0x2E	; 46
    19c6:	21 f4       	brne	.+8      	; 0x19d0 <vfprintf+0xbe>
    19c8:	26 fd       	sbrc	r18, 6
    19ca:	6b c1       	rjmp	.+726    	; 0x1ca2 <vfprintf+0x390>
    19cc:	20 64       	ori	r18, 0x40	; 64
    19ce:	06 c0       	rjmp	.+12     	; 0x19dc <vfprintf+0xca>
    19d0:	8c 36       	cpi	r24, 0x6C	; 108
    19d2:	11 f4       	brne	.+4      	; 0x19d8 <vfprintf+0xc6>
    19d4:	20 68       	ori	r18, 0x80	; 128
    19d6:	02 c0       	rjmp	.+4      	; 0x19dc <vfprintf+0xca>
    19d8:	88 36       	cpi	r24, 0x68	; 104
    19da:	41 f4       	brne	.+16     	; 0x19ec <vfprintf+0xda>
    19dc:	f6 01       	movw	r30, r12
    19de:	93 fd       	sbrc	r25, 3
    19e0:	85 91       	lpm	r24, Z+
    19e2:	93 ff       	sbrs	r25, 3
    19e4:	81 91       	ld	r24, Z+
    19e6:	6f 01       	movw	r12, r30
    19e8:	81 11       	cpse	r24, r1
    19ea:	c1 cf       	rjmp	.-126    	; 0x196e <vfprintf+0x5c>
    19ec:	98 2f       	mov	r25, r24
    19ee:	9f 7d       	andi	r25, 0xDF	; 223
    19f0:	95 54       	subi	r25, 0x45	; 69
    19f2:	93 30       	cpi	r25, 0x03	; 3
    19f4:	28 f4       	brcc	.+10     	; 0x1a00 <vfprintf+0xee>
    19f6:	0c 5f       	subi	r16, 0xFC	; 252
    19f8:	1f 4f       	sbci	r17, 0xFF	; 255
    19fa:	ff e3       	ldi	r31, 0x3F	; 63
    19fc:	f9 83       	std	Y+1, r31	; 0x01
    19fe:	0d c0       	rjmp	.+26     	; 0x1a1a <vfprintf+0x108>
    1a00:	83 36       	cpi	r24, 0x63	; 99
    1a02:	31 f0       	breq	.+12     	; 0x1a10 <vfprintf+0xfe>
    1a04:	83 37       	cpi	r24, 0x73	; 115
    1a06:	71 f0       	breq	.+28     	; 0x1a24 <vfprintf+0x112>
    1a08:	83 35       	cpi	r24, 0x53	; 83
    1a0a:	09 f0       	breq	.+2      	; 0x1a0e <vfprintf+0xfc>
    1a0c:	5b c0       	rjmp	.+182    	; 0x1ac4 <vfprintf+0x1b2>
    1a0e:	22 c0       	rjmp	.+68     	; 0x1a54 <vfprintf+0x142>
    1a10:	f8 01       	movw	r30, r16
    1a12:	80 81       	ld	r24, Z
    1a14:	89 83       	std	Y+1, r24	; 0x01
    1a16:	0e 5f       	subi	r16, 0xFE	; 254
    1a18:	1f 4f       	sbci	r17, 0xFF	; 255
    1a1a:	44 24       	eor	r4, r4
    1a1c:	43 94       	inc	r4
    1a1e:	51 2c       	mov	r5, r1
    1a20:	54 01       	movw	r10, r8
    1a22:	15 c0       	rjmp	.+42     	; 0x1a4e <vfprintf+0x13c>
    1a24:	38 01       	movw	r6, r16
    1a26:	f2 e0       	ldi	r31, 0x02	; 2
    1a28:	6f 0e       	add	r6, r31
    1a2a:	71 1c       	adc	r7, r1
    1a2c:	f8 01       	movw	r30, r16
    1a2e:	a0 80       	ld	r10, Z
    1a30:	b1 80       	ldd	r11, Z+1	; 0x01
    1a32:	26 ff       	sbrs	r18, 6
    1a34:	03 c0       	rjmp	.+6      	; 0x1a3c <vfprintf+0x12a>
    1a36:	65 2d       	mov	r22, r5
    1a38:	70 e0       	ldi	r23, 0x00	; 0
    1a3a:	02 c0       	rjmp	.+4      	; 0x1a40 <vfprintf+0x12e>
    1a3c:	6f ef       	ldi	r22, 0xFF	; 255
    1a3e:	7f ef       	ldi	r23, 0xFF	; 255
    1a40:	c5 01       	movw	r24, r10
    1a42:	2c 87       	std	Y+12, r18	; 0x0c
    1a44:	0e 94 89 0e 	call	0x1d12	; 0x1d12 <strnlen>
    1a48:	2c 01       	movw	r4, r24
    1a4a:	83 01       	movw	r16, r6
    1a4c:	2c 85       	ldd	r18, Y+12	; 0x0c
    1a4e:	2f 77       	andi	r18, 0x7F	; 127
    1a50:	22 2e       	mov	r2, r18
    1a52:	17 c0       	rjmp	.+46     	; 0x1a82 <vfprintf+0x170>
    1a54:	38 01       	movw	r6, r16
    1a56:	f2 e0       	ldi	r31, 0x02	; 2
    1a58:	6f 0e       	add	r6, r31
    1a5a:	71 1c       	adc	r7, r1
    1a5c:	f8 01       	movw	r30, r16
    1a5e:	a0 80       	ld	r10, Z
    1a60:	b1 80       	ldd	r11, Z+1	; 0x01
    1a62:	26 ff       	sbrs	r18, 6
    1a64:	03 c0       	rjmp	.+6      	; 0x1a6c <vfprintf+0x15a>
    1a66:	65 2d       	mov	r22, r5
    1a68:	70 e0       	ldi	r23, 0x00	; 0
    1a6a:	02 c0       	rjmp	.+4      	; 0x1a70 <vfprintf+0x15e>
    1a6c:	6f ef       	ldi	r22, 0xFF	; 255
    1a6e:	7f ef       	ldi	r23, 0xFF	; 255
    1a70:	c5 01       	movw	r24, r10
    1a72:	2c 87       	std	Y+12, r18	; 0x0c
    1a74:	0e 94 77 0e 	call	0x1cee	; 0x1cee <strnlen_P>
    1a78:	2c 01       	movw	r4, r24
    1a7a:	2c 85       	ldd	r18, Y+12	; 0x0c
    1a7c:	20 68       	ori	r18, 0x80	; 128
    1a7e:	22 2e       	mov	r2, r18
    1a80:	83 01       	movw	r16, r6
    1a82:	23 fc       	sbrc	r2, 3
    1a84:	1b c0       	rjmp	.+54     	; 0x1abc <vfprintf+0x1aa>
    1a86:	83 2d       	mov	r24, r3
    1a88:	90 e0       	ldi	r25, 0x00	; 0
    1a8a:	48 16       	cp	r4, r24
    1a8c:	59 06       	cpc	r5, r25
    1a8e:	b0 f4       	brcc	.+44     	; 0x1abc <vfprintf+0x1aa>
    1a90:	b7 01       	movw	r22, r14
    1a92:	80 e2       	ldi	r24, 0x20	; 32
    1a94:	90 e0       	ldi	r25, 0x00	; 0
    1a96:	0e 94 a4 0e 	call	0x1d48	; 0x1d48 <fputc>
    1a9a:	3a 94       	dec	r3
    1a9c:	f4 cf       	rjmp	.-24     	; 0x1a86 <vfprintf+0x174>
    1a9e:	f5 01       	movw	r30, r10
    1aa0:	27 fc       	sbrc	r2, 7
    1aa2:	85 91       	lpm	r24, Z+
    1aa4:	27 fe       	sbrs	r2, 7
    1aa6:	81 91       	ld	r24, Z+
    1aa8:	5f 01       	movw	r10, r30
    1aaa:	b7 01       	movw	r22, r14
    1aac:	90 e0       	ldi	r25, 0x00	; 0
    1aae:	0e 94 a4 0e 	call	0x1d48	; 0x1d48 <fputc>
    1ab2:	31 10       	cpse	r3, r1
    1ab4:	3a 94       	dec	r3
    1ab6:	f1 e0       	ldi	r31, 0x01	; 1
    1ab8:	4f 1a       	sub	r4, r31
    1aba:	51 08       	sbc	r5, r1
    1abc:	41 14       	cp	r4, r1
    1abe:	51 04       	cpc	r5, r1
    1ac0:	71 f7       	brne	.-36     	; 0x1a9e <vfprintf+0x18c>
    1ac2:	e5 c0       	rjmp	.+458    	; 0x1c8e <vfprintf+0x37c>
    1ac4:	84 36       	cpi	r24, 0x64	; 100
    1ac6:	11 f0       	breq	.+4      	; 0x1acc <vfprintf+0x1ba>
    1ac8:	89 36       	cpi	r24, 0x69	; 105
    1aca:	39 f5       	brne	.+78     	; 0x1b1a <vfprintf+0x208>
    1acc:	f8 01       	movw	r30, r16
    1ace:	27 ff       	sbrs	r18, 7
    1ad0:	07 c0       	rjmp	.+14     	; 0x1ae0 <vfprintf+0x1ce>
    1ad2:	60 81       	ld	r22, Z
    1ad4:	71 81       	ldd	r23, Z+1	; 0x01
    1ad6:	82 81       	ldd	r24, Z+2	; 0x02
    1ad8:	93 81       	ldd	r25, Z+3	; 0x03
    1ada:	0c 5f       	subi	r16, 0xFC	; 252
    1adc:	1f 4f       	sbci	r17, 0xFF	; 255
    1ade:	08 c0       	rjmp	.+16     	; 0x1af0 <vfprintf+0x1de>
    1ae0:	60 81       	ld	r22, Z
    1ae2:	71 81       	ldd	r23, Z+1	; 0x01
    1ae4:	88 27       	eor	r24, r24
    1ae6:	77 fd       	sbrc	r23, 7
    1ae8:	80 95       	com	r24
    1aea:	98 2f       	mov	r25, r24
    1aec:	0e 5f       	subi	r16, 0xFE	; 254
    1aee:	1f 4f       	sbci	r17, 0xFF	; 255
    1af0:	2f 76       	andi	r18, 0x6F	; 111
    1af2:	b2 2e       	mov	r11, r18
    1af4:	97 ff       	sbrs	r25, 7
    1af6:	09 c0       	rjmp	.+18     	; 0x1b0a <vfprintf+0x1f8>
    1af8:	90 95       	com	r25
    1afa:	80 95       	com	r24
    1afc:	70 95       	com	r23
    1afe:	61 95       	neg	r22
    1b00:	7f 4f       	sbci	r23, 0xFF	; 255
    1b02:	8f 4f       	sbci	r24, 0xFF	; 255
    1b04:	9f 4f       	sbci	r25, 0xFF	; 255
    1b06:	20 68       	ori	r18, 0x80	; 128
    1b08:	b2 2e       	mov	r11, r18
    1b0a:	2a e0       	ldi	r18, 0x0A	; 10
    1b0c:	30 e0       	ldi	r19, 0x00	; 0
    1b0e:	a4 01       	movw	r20, r8
    1b10:	0e 94 d6 0e 	call	0x1dac	; 0x1dac <__ultoa_invert>
    1b14:	a8 2e       	mov	r10, r24
    1b16:	a8 18       	sub	r10, r8
    1b18:	44 c0       	rjmp	.+136    	; 0x1ba2 <vfprintf+0x290>
    1b1a:	85 37       	cpi	r24, 0x75	; 117
    1b1c:	29 f4       	brne	.+10     	; 0x1b28 <vfprintf+0x216>
    1b1e:	2f 7e       	andi	r18, 0xEF	; 239
    1b20:	b2 2e       	mov	r11, r18
    1b22:	2a e0       	ldi	r18, 0x0A	; 10
    1b24:	30 e0       	ldi	r19, 0x00	; 0
    1b26:	25 c0       	rjmp	.+74     	; 0x1b72 <vfprintf+0x260>
    1b28:	f2 2f       	mov	r31, r18
    1b2a:	f9 7f       	andi	r31, 0xF9	; 249
    1b2c:	bf 2e       	mov	r11, r31
    1b2e:	8f 36       	cpi	r24, 0x6F	; 111
    1b30:	c1 f0       	breq	.+48     	; 0x1b62 <vfprintf+0x250>
    1b32:	18 f4       	brcc	.+6      	; 0x1b3a <vfprintf+0x228>
    1b34:	88 35       	cpi	r24, 0x58	; 88
    1b36:	79 f0       	breq	.+30     	; 0x1b56 <vfprintf+0x244>
    1b38:	b4 c0       	rjmp	.+360    	; 0x1ca2 <vfprintf+0x390>
    1b3a:	80 37       	cpi	r24, 0x70	; 112
    1b3c:	19 f0       	breq	.+6      	; 0x1b44 <vfprintf+0x232>
    1b3e:	88 37       	cpi	r24, 0x78	; 120
    1b40:	21 f0       	breq	.+8      	; 0x1b4a <vfprintf+0x238>
    1b42:	af c0       	rjmp	.+350    	; 0x1ca2 <vfprintf+0x390>
    1b44:	2f 2f       	mov	r18, r31
    1b46:	20 61       	ori	r18, 0x10	; 16
    1b48:	b2 2e       	mov	r11, r18
    1b4a:	b4 fe       	sbrs	r11, 4
    1b4c:	0d c0       	rjmp	.+26     	; 0x1b68 <vfprintf+0x256>
    1b4e:	8b 2d       	mov	r24, r11
    1b50:	84 60       	ori	r24, 0x04	; 4
    1b52:	b8 2e       	mov	r11, r24
    1b54:	09 c0       	rjmp	.+18     	; 0x1b68 <vfprintf+0x256>
    1b56:	24 ff       	sbrs	r18, 4
    1b58:	0a c0       	rjmp	.+20     	; 0x1b6e <vfprintf+0x25c>
    1b5a:	9f 2f       	mov	r25, r31
    1b5c:	96 60       	ori	r25, 0x06	; 6
    1b5e:	b9 2e       	mov	r11, r25
    1b60:	06 c0       	rjmp	.+12     	; 0x1b6e <vfprintf+0x25c>
    1b62:	28 e0       	ldi	r18, 0x08	; 8
    1b64:	30 e0       	ldi	r19, 0x00	; 0
    1b66:	05 c0       	rjmp	.+10     	; 0x1b72 <vfprintf+0x260>
    1b68:	20 e1       	ldi	r18, 0x10	; 16
    1b6a:	30 e0       	ldi	r19, 0x00	; 0
    1b6c:	02 c0       	rjmp	.+4      	; 0x1b72 <vfprintf+0x260>
    1b6e:	20 e1       	ldi	r18, 0x10	; 16
    1b70:	32 e0       	ldi	r19, 0x02	; 2
    1b72:	f8 01       	movw	r30, r16
    1b74:	b7 fe       	sbrs	r11, 7
    1b76:	07 c0       	rjmp	.+14     	; 0x1b86 <vfprintf+0x274>
    1b78:	60 81       	ld	r22, Z
    1b7a:	71 81       	ldd	r23, Z+1	; 0x01
    1b7c:	82 81       	ldd	r24, Z+2	; 0x02
    1b7e:	93 81       	ldd	r25, Z+3	; 0x03
    1b80:	0c 5f       	subi	r16, 0xFC	; 252
    1b82:	1f 4f       	sbci	r17, 0xFF	; 255
    1b84:	06 c0       	rjmp	.+12     	; 0x1b92 <vfprintf+0x280>
    1b86:	60 81       	ld	r22, Z
    1b88:	71 81       	ldd	r23, Z+1	; 0x01
    1b8a:	80 e0       	ldi	r24, 0x00	; 0
    1b8c:	90 e0       	ldi	r25, 0x00	; 0
    1b8e:	0e 5f       	subi	r16, 0xFE	; 254
    1b90:	1f 4f       	sbci	r17, 0xFF	; 255
    1b92:	a4 01       	movw	r20, r8
    1b94:	0e 94 d6 0e 	call	0x1dac	; 0x1dac <__ultoa_invert>
    1b98:	a8 2e       	mov	r10, r24
    1b9a:	a8 18       	sub	r10, r8
    1b9c:	fb 2d       	mov	r31, r11
    1b9e:	ff 77       	andi	r31, 0x7F	; 127
    1ba0:	bf 2e       	mov	r11, r31
    1ba2:	b6 fe       	sbrs	r11, 6
    1ba4:	0b c0       	rjmp	.+22     	; 0x1bbc <vfprintf+0x2aa>
    1ba6:	2b 2d       	mov	r18, r11
    1ba8:	2e 7f       	andi	r18, 0xFE	; 254
    1baa:	a5 14       	cp	r10, r5
    1bac:	50 f4       	brcc	.+20     	; 0x1bc2 <vfprintf+0x2b0>
    1bae:	b4 fe       	sbrs	r11, 4
    1bb0:	0a c0       	rjmp	.+20     	; 0x1bc6 <vfprintf+0x2b4>
    1bb2:	b2 fc       	sbrc	r11, 2
    1bb4:	08 c0       	rjmp	.+16     	; 0x1bc6 <vfprintf+0x2b4>
    1bb6:	2b 2d       	mov	r18, r11
    1bb8:	2e 7e       	andi	r18, 0xEE	; 238
    1bba:	05 c0       	rjmp	.+10     	; 0x1bc6 <vfprintf+0x2b4>
    1bbc:	7a 2c       	mov	r7, r10
    1bbe:	2b 2d       	mov	r18, r11
    1bc0:	03 c0       	rjmp	.+6      	; 0x1bc8 <vfprintf+0x2b6>
    1bc2:	7a 2c       	mov	r7, r10
    1bc4:	01 c0       	rjmp	.+2      	; 0x1bc8 <vfprintf+0x2b6>
    1bc6:	75 2c       	mov	r7, r5
    1bc8:	24 ff       	sbrs	r18, 4
    1bca:	0d c0       	rjmp	.+26     	; 0x1be6 <vfprintf+0x2d4>
    1bcc:	fe 01       	movw	r30, r28
    1bce:	ea 0d       	add	r30, r10
    1bd0:	f1 1d       	adc	r31, r1
    1bd2:	80 81       	ld	r24, Z
    1bd4:	80 33       	cpi	r24, 0x30	; 48
    1bd6:	11 f4       	brne	.+4      	; 0x1bdc <vfprintf+0x2ca>
    1bd8:	29 7e       	andi	r18, 0xE9	; 233
    1bda:	09 c0       	rjmp	.+18     	; 0x1bee <vfprintf+0x2dc>
    1bdc:	22 ff       	sbrs	r18, 2
    1bde:	06 c0       	rjmp	.+12     	; 0x1bec <vfprintf+0x2da>
    1be0:	73 94       	inc	r7
    1be2:	73 94       	inc	r7
    1be4:	04 c0       	rjmp	.+8      	; 0x1bee <vfprintf+0x2dc>
    1be6:	82 2f       	mov	r24, r18
    1be8:	86 78       	andi	r24, 0x86	; 134
    1bea:	09 f0       	breq	.+2      	; 0x1bee <vfprintf+0x2dc>
    1bec:	73 94       	inc	r7
    1bee:	23 fd       	sbrc	r18, 3
    1bf0:	13 c0       	rjmp	.+38     	; 0x1c18 <vfprintf+0x306>
    1bf2:	20 ff       	sbrs	r18, 0
    1bf4:	06 c0       	rjmp	.+12     	; 0x1c02 <vfprintf+0x2f0>
    1bf6:	5a 2c       	mov	r5, r10
    1bf8:	73 14       	cp	r7, r3
    1bfa:	18 f4       	brcc	.+6      	; 0x1c02 <vfprintf+0x2f0>
    1bfc:	53 0c       	add	r5, r3
    1bfe:	57 18       	sub	r5, r7
    1c00:	73 2c       	mov	r7, r3
    1c02:	73 14       	cp	r7, r3
    1c04:	68 f4       	brcc	.+26     	; 0x1c20 <vfprintf+0x30e>
    1c06:	b7 01       	movw	r22, r14
    1c08:	80 e2       	ldi	r24, 0x20	; 32
    1c0a:	90 e0       	ldi	r25, 0x00	; 0
    1c0c:	2c 87       	std	Y+12, r18	; 0x0c
    1c0e:	0e 94 a4 0e 	call	0x1d48	; 0x1d48 <fputc>
    1c12:	73 94       	inc	r7
    1c14:	2c 85       	ldd	r18, Y+12	; 0x0c
    1c16:	f5 cf       	rjmp	.-22     	; 0x1c02 <vfprintf+0x2f0>
    1c18:	73 14       	cp	r7, r3
    1c1a:	10 f4       	brcc	.+4      	; 0x1c20 <vfprintf+0x30e>
    1c1c:	37 18       	sub	r3, r7
    1c1e:	01 c0       	rjmp	.+2      	; 0x1c22 <vfprintf+0x310>
    1c20:	31 2c       	mov	r3, r1
    1c22:	24 ff       	sbrs	r18, 4
    1c24:	12 c0       	rjmp	.+36     	; 0x1c4a <vfprintf+0x338>
    1c26:	b7 01       	movw	r22, r14
    1c28:	80 e3       	ldi	r24, 0x30	; 48
    1c2a:	90 e0       	ldi	r25, 0x00	; 0
    1c2c:	2c 87       	std	Y+12, r18	; 0x0c
    1c2e:	0e 94 a4 0e 	call	0x1d48	; 0x1d48 <fputc>
    1c32:	2c 85       	ldd	r18, Y+12	; 0x0c
    1c34:	22 ff       	sbrs	r18, 2
    1c36:	17 c0       	rjmp	.+46     	; 0x1c66 <vfprintf+0x354>
    1c38:	21 ff       	sbrs	r18, 1
    1c3a:	03 c0       	rjmp	.+6      	; 0x1c42 <vfprintf+0x330>
    1c3c:	88 e5       	ldi	r24, 0x58	; 88
    1c3e:	90 e0       	ldi	r25, 0x00	; 0
    1c40:	02 c0       	rjmp	.+4      	; 0x1c46 <vfprintf+0x334>
    1c42:	88 e7       	ldi	r24, 0x78	; 120
    1c44:	90 e0       	ldi	r25, 0x00	; 0
    1c46:	b7 01       	movw	r22, r14
    1c48:	0c c0       	rjmp	.+24     	; 0x1c62 <vfprintf+0x350>
    1c4a:	82 2f       	mov	r24, r18
    1c4c:	86 78       	andi	r24, 0x86	; 134
    1c4e:	59 f0       	breq	.+22     	; 0x1c66 <vfprintf+0x354>
    1c50:	21 fd       	sbrc	r18, 1
    1c52:	02 c0       	rjmp	.+4      	; 0x1c58 <vfprintf+0x346>
    1c54:	80 e2       	ldi	r24, 0x20	; 32
    1c56:	01 c0       	rjmp	.+2      	; 0x1c5a <vfprintf+0x348>
    1c58:	8b e2       	ldi	r24, 0x2B	; 43
    1c5a:	27 fd       	sbrc	r18, 7
    1c5c:	8d e2       	ldi	r24, 0x2D	; 45
    1c5e:	b7 01       	movw	r22, r14
    1c60:	90 e0       	ldi	r25, 0x00	; 0
    1c62:	0e 94 a4 0e 	call	0x1d48	; 0x1d48 <fputc>
    1c66:	a5 14       	cp	r10, r5
    1c68:	38 f4       	brcc	.+14     	; 0x1c78 <vfprintf+0x366>
    1c6a:	b7 01       	movw	r22, r14
    1c6c:	80 e3       	ldi	r24, 0x30	; 48
    1c6e:	90 e0       	ldi	r25, 0x00	; 0
    1c70:	0e 94 a4 0e 	call	0x1d48	; 0x1d48 <fputc>
    1c74:	5a 94       	dec	r5
    1c76:	f7 cf       	rjmp	.-18     	; 0x1c66 <vfprintf+0x354>
    1c78:	aa 94       	dec	r10
    1c7a:	f4 01       	movw	r30, r8
    1c7c:	ea 0d       	add	r30, r10
    1c7e:	f1 1d       	adc	r31, r1
    1c80:	80 81       	ld	r24, Z
    1c82:	b7 01       	movw	r22, r14
    1c84:	90 e0       	ldi	r25, 0x00	; 0
    1c86:	0e 94 a4 0e 	call	0x1d48	; 0x1d48 <fputc>
    1c8a:	a1 10       	cpse	r10, r1
    1c8c:	f5 cf       	rjmp	.-22     	; 0x1c78 <vfprintf+0x366>
    1c8e:	33 20       	and	r3, r3
    1c90:	09 f4       	brne	.+2      	; 0x1c94 <vfprintf+0x382>
    1c92:	51 ce       	rjmp	.-862    	; 0x1936 <vfprintf+0x24>
    1c94:	b7 01       	movw	r22, r14
    1c96:	80 e2       	ldi	r24, 0x20	; 32
    1c98:	90 e0       	ldi	r25, 0x00	; 0
    1c9a:	0e 94 a4 0e 	call	0x1d48	; 0x1d48 <fputc>
    1c9e:	3a 94       	dec	r3
    1ca0:	f6 cf       	rjmp	.-20     	; 0x1c8e <vfprintf+0x37c>
    1ca2:	f7 01       	movw	r30, r14
    1ca4:	86 81       	ldd	r24, Z+6	; 0x06
    1ca6:	97 81       	ldd	r25, Z+7	; 0x07
    1ca8:	02 c0       	rjmp	.+4      	; 0x1cae <vfprintf+0x39c>
    1caa:	8f ef       	ldi	r24, 0xFF	; 255
    1cac:	9f ef       	ldi	r25, 0xFF	; 255
    1cae:	2c 96       	adiw	r28, 0x0c	; 12
    1cb0:	e2 e1       	ldi	r30, 0x12	; 18
    1cb2:	0c 94 50 0f 	jmp	0x1ea0	; 0x1ea0 <__epilogue_restores__>

00001cb6 <calloc>:
    1cb6:	0f 93       	push	r16
    1cb8:	1f 93       	push	r17
    1cba:	cf 93       	push	r28
    1cbc:	df 93       	push	r29
    1cbe:	86 9f       	mul	r24, r22
    1cc0:	80 01       	movw	r16, r0
    1cc2:	87 9f       	mul	r24, r23
    1cc4:	10 0d       	add	r17, r0
    1cc6:	96 9f       	mul	r25, r22
    1cc8:	10 0d       	add	r17, r0
    1cca:	11 24       	eor	r1, r1
    1ccc:	c8 01       	movw	r24, r16
    1cce:	0e 94 b1 0a 	call	0x1562	; 0x1562 <malloc>
    1cd2:	ec 01       	movw	r28, r24
    1cd4:	00 97       	sbiw	r24, 0x00	; 0
    1cd6:	29 f0       	breq	.+10     	; 0x1ce2 <calloc+0x2c>
    1cd8:	a8 01       	movw	r20, r16
    1cda:	60 e0       	ldi	r22, 0x00	; 0
    1cdc:	70 e0       	ldi	r23, 0x00	; 0
    1cde:	0e 94 82 0e 	call	0x1d04	; 0x1d04 <memset>
    1ce2:	ce 01       	movw	r24, r28
    1ce4:	df 91       	pop	r29
    1ce6:	cf 91       	pop	r28
    1ce8:	1f 91       	pop	r17
    1cea:	0f 91       	pop	r16
    1cec:	08 95       	ret

00001cee <strnlen_P>:
    1cee:	fc 01       	movw	r30, r24
    1cf0:	05 90       	lpm	r0, Z+
    1cf2:	61 50       	subi	r22, 0x01	; 1
    1cf4:	70 40       	sbci	r23, 0x00	; 0
    1cf6:	01 10       	cpse	r0, r1
    1cf8:	d8 f7       	brcc	.-10     	; 0x1cf0 <strnlen_P+0x2>
    1cfa:	80 95       	com	r24
    1cfc:	90 95       	com	r25
    1cfe:	8e 0f       	add	r24, r30
    1d00:	9f 1f       	adc	r25, r31
    1d02:	08 95       	ret

00001d04 <memset>:
    1d04:	dc 01       	movw	r26, r24
    1d06:	01 c0       	rjmp	.+2      	; 0x1d0a <memset+0x6>
    1d08:	6d 93       	st	X+, r22
    1d0a:	41 50       	subi	r20, 0x01	; 1
    1d0c:	50 40       	sbci	r21, 0x00	; 0
    1d0e:	e0 f7       	brcc	.-8      	; 0x1d08 <memset+0x4>
    1d10:	08 95       	ret

00001d12 <strnlen>:
    1d12:	fc 01       	movw	r30, r24
    1d14:	61 50       	subi	r22, 0x01	; 1
    1d16:	70 40       	sbci	r23, 0x00	; 0
    1d18:	01 90       	ld	r0, Z+
    1d1a:	01 10       	cpse	r0, r1
    1d1c:	d8 f7       	brcc	.-10     	; 0x1d14 <strnlen+0x2>
    1d1e:	80 95       	com	r24
    1d20:	90 95       	com	r25
    1d22:	8e 0f       	add	r24, r30
    1d24:	9f 1f       	adc	r25, r31
    1d26:	08 95       	ret

00001d28 <strrev>:
    1d28:	dc 01       	movw	r26, r24
    1d2a:	fc 01       	movw	r30, r24
    1d2c:	67 2f       	mov	r22, r23
    1d2e:	71 91       	ld	r23, Z+
    1d30:	77 23       	and	r23, r23
    1d32:	e1 f7       	brne	.-8      	; 0x1d2c <strrev+0x4>
    1d34:	32 97       	sbiw	r30, 0x02	; 2
    1d36:	04 c0       	rjmp	.+8      	; 0x1d40 <strrev+0x18>
    1d38:	7c 91       	ld	r23, X
    1d3a:	6d 93       	st	X+, r22
    1d3c:	70 83       	st	Z, r23
    1d3e:	62 91       	ld	r22, -Z
    1d40:	ae 17       	cp	r26, r30
    1d42:	bf 07       	cpc	r27, r31
    1d44:	c8 f3       	brcs	.-14     	; 0x1d38 <strrev+0x10>
    1d46:	08 95       	ret

00001d48 <fputc>:
    1d48:	0f 93       	push	r16
    1d4a:	1f 93       	push	r17
    1d4c:	cf 93       	push	r28
    1d4e:	df 93       	push	r29
    1d50:	18 2f       	mov	r17, r24
    1d52:	09 2f       	mov	r16, r25
    1d54:	eb 01       	movw	r28, r22
    1d56:	8b 81       	ldd	r24, Y+3	; 0x03
    1d58:	81 fd       	sbrc	r24, 1
    1d5a:	03 c0       	rjmp	.+6      	; 0x1d62 <fputc+0x1a>
    1d5c:	8f ef       	ldi	r24, 0xFF	; 255
    1d5e:	9f ef       	ldi	r25, 0xFF	; 255
    1d60:	20 c0       	rjmp	.+64     	; 0x1da2 <fputc+0x5a>
    1d62:	82 ff       	sbrs	r24, 2
    1d64:	10 c0       	rjmp	.+32     	; 0x1d86 <fputc+0x3e>
    1d66:	4e 81       	ldd	r20, Y+6	; 0x06
    1d68:	5f 81       	ldd	r21, Y+7	; 0x07
    1d6a:	2c 81       	ldd	r18, Y+4	; 0x04
    1d6c:	3d 81       	ldd	r19, Y+5	; 0x05
    1d6e:	42 17       	cp	r20, r18
    1d70:	53 07       	cpc	r21, r19
    1d72:	7c f4       	brge	.+30     	; 0x1d92 <fputc+0x4a>
    1d74:	e8 81       	ld	r30, Y
    1d76:	f9 81       	ldd	r31, Y+1	; 0x01
    1d78:	9f 01       	movw	r18, r30
    1d7a:	2f 5f       	subi	r18, 0xFF	; 255
    1d7c:	3f 4f       	sbci	r19, 0xFF	; 255
    1d7e:	39 83       	std	Y+1, r19	; 0x01
    1d80:	28 83       	st	Y, r18
    1d82:	10 83       	st	Z, r17
    1d84:	06 c0       	rjmp	.+12     	; 0x1d92 <fputc+0x4a>
    1d86:	e8 85       	ldd	r30, Y+8	; 0x08
    1d88:	f9 85       	ldd	r31, Y+9	; 0x09
    1d8a:	81 2f       	mov	r24, r17
    1d8c:	09 95       	icall
    1d8e:	89 2b       	or	r24, r25
    1d90:	29 f7       	brne	.-54     	; 0x1d5c <fputc+0x14>
    1d92:	2e 81       	ldd	r18, Y+6	; 0x06
    1d94:	3f 81       	ldd	r19, Y+7	; 0x07
    1d96:	2f 5f       	subi	r18, 0xFF	; 255
    1d98:	3f 4f       	sbci	r19, 0xFF	; 255
    1d9a:	3f 83       	std	Y+7, r19	; 0x07
    1d9c:	2e 83       	std	Y+6, r18	; 0x06
    1d9e:	81 2f       	mov	r24, r17
    1da0:	90 2f       	mov	r25, r16
    1da2:	df 91       	pop	r29
    1da4:	cf 91       	pop	r28
    1da6:	1f 91       	pop	r17
    1da8:	0f 91       	pop	r16
    1daa:	08 95       	ret

00001dac <__ultoa_invert>:
    1dac:	fa 01       	movw	r30, r20
    1dae:	aa 27       	eor	r26, r26
    1db0:	28 30       	cpi	r18, 0x08	; 8
    1db2:	51 f1       	breq	.+84     	; 0x1e08 <__ultoa_invert+0x5c>
    1db4:	20 31       	cpi	r18, 0x10	; 16
    1db6:	81 f1       	breq	.+96     	; 0x1e18 <__ultoa_invert+0x6c>
    1db8:	e8 94       	clt
    1dba:	6f 93       	push	r22
    1dbc:	6e 7f       	andi	r22, 0xFE	; 254
    1dbe:	6e 5f       	subi	r22, 0xFE	; 254
    1dc0:	7f 4f       	sbci	r23, 0xFF	; 255
    1dc2:	8f 4f       	sbci	r24, 0xFF	; 255
    1dc4:	9f 4f       	sbci	r25, 0xFF	; 255
    1dc6:	af 4f       	sbci	r26, 0xFF	; 255
    1dc8:	b1 e0       	ldi	r27, 0x01	; 1
    1dca:	3e d0       	rcall	.+124    	; 0x1e48 <__ultoa_invert+0x9c>
    1dcc:	b4 e0       	ldi	r27, 0x04	; 4
    1dce:	3c d0       	rcall	.+120    	; 0x1e48 <__ultoa_invert+0x9c>
    1dd0:	67 0f       	add	r22, r23
    1dd2:	78 1f       	adc	r23, r24
    1dd4:	89 1f       	adc	r24, r25
    1dd6:	9a 1f       	adc	r25, r26
    1dd8:	a1 1d       	adc	r26, r1
    1dda:	68 0f       	add	r22, r24
    1ddc:	79 1f       	adc	r23, r25
    1dde:	8a 1f       	adc	r24, r26
    1de0:	91 1d       	adc	r25, r1
    1de2:	a1 1d       	adc	r26, r1
    1de4:	6a 0f       	add	r22, r26
    1de6:	71 1d       	adc	r23, r1
    1de8:	81 1d       	adc	r24, r1
    1dea:	91 1d       	adc	r25, r1
    1dec:	a1 1d       	adc	r26, r1
    1dee:	20 d0       	rcall	.+64     	; 0x1e30 <__ultoa_invert+0x84>
    1df0:	09 f4       	brne	.+2      	; 0x1df4 <__ultoa_invert+0x48>
    1df2:	68 94       	set
    1df4:	3f 91       	pop	r19
    1df6:	2a e0       	ldi	r18, 0x0A	; 10
    1df8:	26 9f       	mul	r18, r22
    1dfa:	11 24       	eor	r1, r1
    1dfc:	30 19       	sub	r19, r0
    1dfe:	30 5d       	subi	r19, 0xD0	; 208
    1e00:	31 93       	st	Z+, r19
    1e02:	de f6       	brtc	.-74     	; 0x1dba <__ultoa_invert+0xe>
    1e04:	cf 01       	movw	r24, r30
    1e06:	08 95       	ret
    1e08:	46 2f       	mov	r20, r22
    1e0a:	47 70       	andi	r20, 0x07	; 7
    1e0c:	40 5d       	subi	r20, 0xD0	; 208
    1e0e:	41 93       	st	Z+, r20
    1e10:	b3 e0       	ldi	r27, 0x03	; 3
    1e12:	0f d0       	rcall	.+30     	; 0x1e32 <__ultoa_invert+0x86>
    1e14:	c9 f7       	brne	.-14     	; 0x1e08 <__ultoa_invert+0x5c>
    1e16:	f6 cf       	rjmp	.-20     	; 0x1e04 <__ultoa_invert+0x58>
    1e18:	46 2f       	mov	r20, r22
    1e1a:	4f 70       	andi	r20, 0x0F	; 15
    1e1c:	40 5d       	subi	r20, 0xD0	; 208
    1e1e:	4a 33       	cpi	r20, 0x3A	; 58
    1e20:	18 f0       	brcs	.+6      	; 0x1e28 <__ultoa_invert+0x7c>
    1e22:	49 5d       	subi	r20, 0xD9	; 217
    1e24:	31 fd       	sbrc	r19, 1
    1e26:	40 52       	subi	r20, 0x20	; 32
    1e28:	41 93       	st	Z+, r20
    1e2a:	02 d0       	rcall	.+4      	; 0x1e30 <__ultoa_invert+0x84>
    1e2c:	a9 f7       	brne	.-22     	; 0x1e18 <__ultoa_invert+0x6c>
    1e2e:	ea cf       	rjmp	.-44     	; 0x1e04 <__ultoa_invert+0x58>
    1e30:	b4 e0       	ldi	r27, 0x04	; 4
    1e32:	a6 95       	lsr	r26
    1e34:	97 95       	ror	r25
    1e36:	87 95       	ror	r24
    1e38:	77 95       	ror	r23
    1e3a:	67 95       	ror	r22
    1e3c:	ba 95       	dec	r27
    1e3e:	c9 f7       	brne	.-14     	; 0x1e32 <__ultoa_invert+0x86>
    1e40:	00 97       	sbiw	r24, 0x00	; 0
    1e42:	61 05       	cpc	r22, r1
    1e44:	71 05       	cpc	r23, r1
    1e46:	08 95       	ret
    1e48:	9b 01       	movw	r18, r22
    1e4a:	ac 01       	movw	r20, r24
    1e4c:	0a 2e       	mov	r0, r26
    1e4e:	06 94       	lsr	r0
    1e50:	57 95       	ror	r21
    1e52:	47 95       	ror	r20
    1e54:	37 95       	ror	r19
    1e56:	27 95       	ror	r18
    1e58:	ba 95       	dec	r27
    1e5a:	c9 f7       	brne	.-14     	; 0x1e4e <__ultoa_invert+0xa2>
    1e5c:	62 0f       	add	r22, r18
    1e5e:	73 1f       	adc	r23, r19
    1e60:	84 1f       	adc	r24, r20
    1e62:	95 1f       	adc	r25, r21
    1e64:	a0 1d       	adc	r26, r0
    1e66:	08 95       	ret

00001e68 <__prologue_saves__>:
    1e68:	2f 92       	push	r2
    1e6a:	3f 92       	push	r3
    1e6c:	4f 92       	push	r4
    1e6e:	5f 92       	push	r5
    1e70:	6f 92       	push	r6
    1e72:	7f 92       	push	r7
    1e74:	8f 92       	push	r8
    1e76:	9f 92       	push	r9
    1e78:	af 92       	push	r10
    1e7a:	bf 92       	push	r11
    1e7c:	cf 92       	push	r12
    1e7e:	df 92       	push	r13
    1e80:	ef 92       	push	r14
    1e82:	ff 92       	push	r15
    1e84:	0f 93       	push	r16
    1e86:	1f 93       	push	r17
    1e88:	cf 93       	push	r28
    1e8a:	df 93       	push	r29
    1e8c:	cd b7       	in	r28, 0x3d	; 61
    1e8e:	de b7       	in	r29, 0x3e	; 62
    1e90:	ca 1b       	sub	r28, r26
    1e92:	db 0b       	sbc	r29, r27
    1e94:	0f b6       	in	r0, 0x3f	; 63
    1e96:	f8 94       	cli
    1e98:	de bf       	out	0x3e, r29	; 62
    1e9a:	0f be       	out	0x3f, r0	; 63
    1e9c:	cd bf       	out	0x3d, r28	; 61
    1e9e:	09 94       	ijmp

00001ea0 <__epilogue_restores__>:
    1ea0:	2a 88       	ldd	r2, Y+18	; 0x12
    1ea2:	39 88       	ldd	r3, Y+17	; 0x11
    1ea4:	48 88       	ldd	r4, Y+16	; 0x10
    1ea6:	5f 84       	ldd	r5, Y+15	; 0x0f
    1ea8:	6e 84       	ldd	r6, Y+14	; 0x0e
    1eaa:	7d 84       	ldd	r7, Y+13	; 0x0d
    1eac:	8c 84       	ldd	r8, Y+12	; 0x0c
    1eae:	9b 84       	ldd	r9, Y+11	; 0x0b
    1eb0:	aa 84       	ldd	r10, Y+10	; 0x0a
    1eb2:	b9 84       	ldd	r11, Y+9	; 0x09
    1eb4:	c8 84       	ldd	r12, Y+8	; 0x08
    1eb6:	df 80       	ldd	r13, Y+7	; 0x07
    1eb8:	ee 80       	ldd	r14, Y+6	; 0x06
    1eba:	fd 80       	ldd	r15, Y+5	; 0x05
    1ebc:	0c 81       	ldd	r16, Y+4	; 0x04
    1ebe:	1b 81       	ldd	r17, Y+3	; 0x03
    1ec0:	aa 81       	ldd	r26, Y+2	; 0x02
    1ec2:	b9 81       	ldd	r27, Y+1	; 0x01
    1ec4:	ce 0f       	add	r28, r30
    1ec6:	d1 1d       	adc	r29, r1
    1ec8:	0f b6       	in	r0, 0x3f	; 63
    1eca:	f8 94       	cli
    1ecc:	de bf       	out	0x3e, r29	; 62
    1ece:	0f be       	out	0x3f, r0	; 63
    1ed0:	cd bf       	out	0x3d, r28	; 61
    1ed2:	ed 01       	movw	r28, r26
    1ed4:	08 95       	ret

00001ed6 <_exit>:
    1ed6:	f8 94       	cli

00001ed8 <__stop_program>:
    1ed8:	ff cf       	rjmp	.-2      	; 0x1ed8 <__stop_program>
